
MagStrain.elf:     file format elf32-littlearm

Sections:
Idx Name          Size      VMA       LMA       File off  Algn
  0 .isr_vector   0000010c  08000000  08000000  00010000  2**0
                  CONTENTS, ALLOC, LOAD, READONLY, DATA
  1 .text         00006868  0800010c  0800010c  0001010c  2**2
                  CONTENTS, ALLOC, LOAD, READONLY, CODE
  2 .rodata       000008c0  08006974  08006974  00016974  2**2
                  CONTENTS, ALLOC, LOAD, READONLY, DATA
  3 .ARM.extab    00000000  08007234  08007234  0002001c  2**0
                  CONTENTS
  4 .ARM          00000000  08007234  08007234  0002001c  2**0
                  CONTENTS
  5 .preinit_array 00000000  08007234  08007234  0002001c  2**0
                  CONTENTS, ALLOC, LOAD, DATA
  6 .init_array   00000004  08007234  08007234  00017234  2**2
                  CONTENTS, ALLOC, LOAD, DATA
  7 .fini_array   00000004  08007238  08007238  00017238  2**2
                  CONTENTS, ALLOC, LOAD, DATA
  8 .data         0000001c  20000000  0800723c  00020000  2**2
                  CONTENTS, ALLOC, LOAD, DATA
  9 .bss          0000041c  2000001c  08007258  0002001c  2**2
                  ALLOC
 10 ._user_heap_stack 00000600  20000438  08007258  00020438  2**0
                  ALLOC
 11 .ARM.attributes 00000029  00000000  00000000  0002001c  2**0
                  CONTENTS, READONLY
 12 .debug_info   0000ee1e  00000000  00000000  00020045  2**0
                  CONTENTS, READONLY, DEBUGGING, OCTETS
 13 .debug_abbrev 000025aa  00000000  00000000  0002ee63  2**0
                  CONTENTS, READONLY, DEBUGGING, OCTETS
 14 .debug_aranges 00000ef8  00000000  00000000  00031410  2**3
                  CONTENTS, READONLY, DEBUGGING, OCTETS
 15 .debug_ranges 00000e40  00000000  00000000  00032308  2**3
                  CONTENTS, READONLY, DEBUGGING, OCTETS
 16 .debug_line   0000c49e  00000000  00000000  00033148  2**0
                  CONTENTS, READONLY, DEBUGGING, OCTETS
 17 .debug_str    0000474a  00000000  00000000  0003f5e6  2**0
                  CONTENTS, READONLY, DEBUGGING, OCTETS
 18 .comment      00000050  00000000  00000000  00043d30  2**0
                  CONTENTS, READONLY
 19 .debug_frame  00003fc4  00000000  00000000  00043d80  2**2
                  CONTENTS, READONLY, DEBUGGING, OCTETS

Disassembly of section .text:

0800010c <__do_global_dtors_aux>:
 800010c:	b510      	push	{r4, lr}
 800010e:	4c05      	ldr	r4, [pc, #20]	; (8000124 <__do_global_dtors_aux+0x18>)
 8000110:	7823      	ldrb	r3, [r4, #0]
 8000112:	b933      	cbnz	r3, 8000122 <__do_global_dtors_aux+0x16>
 8000114:	4b04      	ldr	r3, [pc, #16]	; (8000128 <__do_global_dtors_aux+0x1c>)
 8000116:	b113      	cbz	r3, 800011e <__do_global_dtors_aux+0x12>
 8000118:	4804      	ldr	r0, [pc, #16]	; (800012c <__do_global_dtors_aux+0x20>)
 800011a:	f3af 8000 	nop.w
 800011e:	2301      	movs	r3, #1
 8000120:	7023      	strb	r3, [r4, #0]
 8000122:	bd10      	pop	{r4, pc}
 8000124:	2000001c 	.word	0x2000001c
 8000128:	00000000 	.word	0x00000000
 800012c:	0800695c 	.word	0x0800695c

08000130 <frame_dummy>:
 8000130:	b508      	push	{r3, lr}
 8000132:	4b03      	ldr	r3, [pc, #12]	; (8000140 <frame_dummy+0x10>)
 8000134:	b11b      	cbz	r3, 800013e <frame_dummy+0xe>
 8000136:	4903      	ldr	r1, [pc, #12]	; (8000144 <frame_dummy+0x14>)
 8000138:	4803      	ldr	r0, [pc, #12]	; (8000148 <frame_dummy+0x18>)
 800013a:	f3af 8000 	nop.w
 800013e:	bd08      	pop	{r3, pc}
 8000140:	00000000 	.word	0x00000000
 8000144:	20000020 	.word	0x20000020
 8000148:	0800695c 	.word	0x0800695c

0800014c <strlen>:
 800014c:	4603      	mov	r3, r0
 800014e:	f813 2b01 	ldrb.w	r2, [r3], #1
 8000152:	2a00      	cmp	r2, #0
 8000154:	d1fb      	bne.n	800014e <strlen+0x2>
 8000156:	1a18      	subs	r0, r3, r0
 8000158:	3801      	subs	r0, #1
 800015a:	4770      	bx	lr

0800015c <__aeabi_frsub>:
 800015c:	f080 4000 	eor.w	r0, r0, #2147483648	; 0x80000000
 8000160:	e002      	b.n	8000168 <__addsf3>
 8000162:	bf00      	nop

08000164 <__aeabi_fsub>:
 8000164:	f081 4100 	eor.w	r1, r1, #2147483648	; 0x80000000

08000168 <__addsf3>:
 8000168:	0042      	lsls	r2, r0, #1
 800016a:	bf1f      	itttt	ne
 800016c:	ea5f 0341 	movsne.w	r3, r1, lsl #1
 8000170:	ea92 0f03 	teqne	r2, r3
 8000174:	ea7f 6c22 	mvnsne.w	ip, r2, asr #24
 8000178:	ea7f 6c23 	mvnsne.w	ip, r3, asr #24
 800017c:	d06a      	beq.n	8000254 <__addsf3+0xec>
 800017e:	ea4f 6212 	mov.w	r2, r2, lsr #24
 8000182:	ebd2 6313 	rsbs	r3, r2, r3, lsr #24
 8000186:	bfc1      	itttt	gt
 8000188:	18d2      	addgt	r2, r2, r3
 800018a:	4041      	eorgt	r1, r0
 800018c:	4048      	eorgt	r0, r1
 800018e:	4041      	eorgt	r1, r0
 8000190:	bfb8      	it	lt
 8000192:	425b      	neglt	r3, r3
 8000194:	2b19      	cmp	r3, #25
 8000196:	bf88      	it	hi
 8000198:	4770      	bxhi	lr
 800019a:	f010 4f00 	tst.w	r0, #2147483648	; 0x80000000
 800019e:	f440 0000 	orr.w	r0, r0, #8388608	; 0x800000
 80001a2:	f020 407f 	bic.w	r0, r0, #4278190080	; 0xff000000
 80001a6:	bf18      	it	ne
 80001a8:	4240      	negne	r0, r0
 80001aa:	f011 4f00 	tst.w	r1, #2147483648	; 0x80000000
 80001ae:	f441 0100 	orr.w	r1, r1, #8388608	; 0x800000
 80001b2:	f021 417f 	bic.w	r1, r1, #4278190080	; 0xff000000
 80001b6:	bf18      	it	ne
 80001b8:	4249      	negne	r1, r1
 80001ba:	ea92 0f03 	teq	r2, r3
 80001be:	d03f      	beq.n	8000240 <__addsf3+0xd8>
 80001c0:	f1a2 0201 	sub.w	r2, r2, #1
 80001c4:	fa41 fc03 	asr.w	ip, r1, r3
 80001c8:	eb10 000c 	adds.w	r0, r0, ip
 80001cc:	f1c3 0320 	rsb	r3, r3, #32
 80001d0:	fa01 f103 	lsl.w	r1, r1, r3
 80001d4:	f000 4300 	and.w	r3, r0, #2147483648	; 0x80000000
 80001d8:	d502      	bpl.n	80001e0 <__addsf3+0x78>
 80001da:	4249      	negs	r1, r1
 80001dc:	eb60 0040 	sbc.w	r0, r0, r0, lsl #1
 80001e0:	f5b0 0f00 	cmp.w	r0, #8388608	; 0x800000
 80001e4:	d313      	bcc.n	800020e <__addsf3+0xa6>
 80001e6:	f1b0 7f80 	cmp.w	r0, #16777216	; 0x1000000
 80001ea:	d306      	bcc.n	80001fa <__addsf3+0x92>
 80001ec:	0840      	lsrs	r0, r0, #1
 80001ee:	ea4f 0131 	mov.w	r1, r1, rrx
 80001f2:	f102 0201 	add.w	r2, r2, #1
 80001f6:	2afe      	cmp	r2, #254	; 0xfe
 80001f8:	d251      	bcs.n	800029e <__addsf3+0x136>
 80001fa:	f1b1 4f00 	cmp.w	r1, #2147483648	; 0x80000000
 80001fe:	eb40 50c2 	adc.w	r0, r0, r2, lsl #23
 8000202:	bf08      	it	eq
 8000204:	f020 0001 	biceq.w	r0, r0, #1
 8000208:	ea40 0003 	orr.w	r0, r0, r3
 800020c:	4770      	bx	lr
 800020e:	0049      	lsls	r1, r1, #1
 8000210:	eb40 0000 	adc.w	r0, r0, r0
 8000214:	3a01      	subs	r2, #1
 8000216:	bf28      	it	cs
 8000218:	f5b0 0f00 	cmpcs.w	r0, #8388608	; 0x800000
 800021c:	d2ed      	bcs.n	80001fa <__addsf3+0x92>
 800021e:	fab0 fc80 	clz	ip, r0
 8000222:	f1ac 0c08 	sub.w	ip, ip, #8
 8000226:	ebb2 020c 	subs.w	r2, r2, ip
 800022a:	fa00 f00c 	lsl.w	r0, r0, ip
 800022e:	bfaa      	itet	ge
 8000230:	eb00 50c2 	addge.w	r0, r0, r2, lsl #23
 8000234:	4252      	neglt	r2, r2
 8000236:	4318      	orrge	r0, r3
 8000238:	bfbc      	itt	lt
 800023a:	40d0      	lsrlt	r0, r2
 800023c:	4318      	orrlt	r0, r3
 800023e:	4770      	bx	lr
 8000240:	f092 0f00 	teq	r2, #0
 8000244:	f481 0100 	eor.w	r1, r1, #8388608	; 0x800000
 8000248:	bf06      	itte	eq
 800024a:	f480 0000 	eoreq.w	r0, r0, #8388608	; 0x800000
 800024e:	3201      	addeq	r2, #1
 8000250:	3b01      	subne	r3, #1
 8000252:	e7b5      	b.n	80001c0 <__addsf3+0x58>
 8000254:	ea4f 0341 	mov.w	r3, r1, lsl #1
 8000258:	ea7f 6c22 	mvns.w	ip, r2, asr #24
 800025c:	bf18      	it	ne
 800025e:	ea7f 6c23 	mvnsne.w	ip, r3, asr #24
 8000262:	d021      	beq.n	80002a8 <__addsf3+0x140>
 8000264:	ea92 0f03 	teq	r2, r3
 8000268:	d004      	beq.n	8000274 <__addsf3+0x10c>
 800026a:	f092 0f00 	teq	r2, #0
 800026e:	bf08      	it	eq
 8000270:	4608      	moveq	r0, r1
 8000272:	4770      	bx	lr
 8000274:	ea90 0f01 	teq	r0, r1
 8000278:	bf1c      	itt	ne
 800027a:	2000      	movne	r0, #0
 800027c:	4770      	bxne	lr
 800027e:	f012 4f7f 	tst.w	r2, #4278190080	; 0xff000000
 8000282:	d104      	bne.n	800028e <__addsf3+0x126>
 8000284:	0040      	lsls	r0, r0, #1
 8000286:	bf28      	it	cs
 8000288:	f040 4000 	orrcs.w	r0, r0, #2147483648	; 0x80000000
 800028c:	4770      	bx	lr
 800028e:	f112 7200 	adds.w	r2, r2, #33554432	; 0x2000000
 8000292:	bf3c      	itt	cc
 8000294:	f500 0000 	addcc.w	r0, r0, #8388608	; 0x800000
 8000298:	4770      	bxcc	lr
 800029a:	f000 4300 	and.w	r3, r0, #2147483648	; 0x80000000
 800029e:	f043 40fe 	orr.w	r0, r3, #2130706432	; 0x7f000000
 80002a2:	f440 0000 	orr.w	r0, r0, #8388608	; 0x800000
 80002a6:	4770      	bx	lr
 80002a8:	ea7f 6222 	mvns.w	r2, r2, asr #24
 80002ac:	bf16      	itet	ne
 80002ae:	4608      	movne	r0, r1
 80002b0:	ea7f 6323 	mvnseq.w	r3, r3, asr #24
 80002b4:	4601      	movne	r1, r0
 80002b6:	0242      	lsls	r2, r0, #9
 80002b8:	bf06      	itte	eq
 80002ba:	ea5f 2341 	movseq.w	r3, r1, lsl #9
 80002be:	ea90 0f01 	teqeq	r0, r1
 80002c2:	f440 0080 	orrne.w	r0, r0, #4194304	; 0x400000
 80002c6:	4770      	bx	lr

080002c8 <__aeabi_ui2f>:
 80002c8:	f04f 0300 	mov.w	r3, #0
 80002cc:	e004      	b.n	80002d8 <__aeabi_i2f+0x8>
 80002ce:	bf00      	nop

080002d0 <__aeabi_i2f>:
 80002d0:	f010 4300 	ands.w	r3, r0, #2147483648	; 0x80000000
 80002d4:	bf48      	it	mi
 80002d6:	4240      	negmi	r0, r0
 80002d8:	ea5f 0c00 	movs.w	ip, r0
 80002dc:	bf08      	it	eq
 80002de:	4770      	bxeq	lr
 80002e0:	f043 4396 	orr.w	r3, r3, #1258291200	; 0x4b000000
 80002e4:	4601      	mov	r1, r0
 80002e6:	f04f 0000 	mov.w	r0, #0
 80002ea:	e01c      	b.n	8000326 <__aeabi_l2f+0x2a>

080002ec <__aeabi_ul2f>:
 80002ec:	ea50 0201 	orrs.w	r2, r0, r1
 80002f0:	bf08      	it	eq
 80002f2:	4770      	bxeq	lr
 80002f4:	f04f 0300 	mov.w	r3, #0
 80002f8:	e00a      	b.n	8000310 <__aeabi_l2f+0x14>
 80002fa:	bf00      	nop

080002fc <__aeabi_l2f>:
 80002fc:	ea50 0201 	orrs.w	r2, r0, r1
 8000300:	bf08      	it	eq
 8000302:	4770      	bxeq	lr
 8000304:	f011 4300 	ands.w	r3, r1, #2147483648	; 0x80000000
 8000308:	d502      	bpl.n	8000310 <__aeabi_l2f+0x14>
 800030a:	4240      	negs	r0, r0
 800030c:	eb61 0141 	sbc.w	r1, r1, r1, lsl #1
 8000310:	ea5f 0c01 	movs.w	ip, r1
 8000314:	bf02      	ittt	eq
 8000316:	4684      	moveq	ip, r0
 8000318:	4601      	moveq	r1, r0
 800031a:	2000      	moveq	r0, #0
 800031c:	f043 43b6 	orr.w	r3, r3, #1526726656	; 0x5b000000
 8000320:	bf08      	it	eq
 8000322:	f1a3 5380 	subeq.w	r3, r3, #268435456	; 0x10000000
 8000326:	f5a3 0300 	sub.w	r3, r3, #8388608	; 0x800000
 800032a:	fabc f28c 	clz	r2, ip
 800032e:	3a08      	subs	r2, #8
 8000330:	eba3 53c2 	sub.w	r3, r3, r2, lsl #23
 8000334:	db10      	blt.n	8000358 <__aeabi_l2f+0x5c>
 8000336:	fa01 fc02 	lsl.w	ip, r1, r2
 800033a:	4463      	add	r3, ip
 800033c:	fa00 fc02 	lsl.w	ip, r0, r2
 8000340:	f1c2 0220 	rsb	r2, r2, #32
 8000344:	f1bc 4f00 	cmp.w	ip, #2147483648	; 0x80000000
 8000348:	fa20 f202 	lsr.w	r2, r0, r2
 800034c:	eb43 0002 	adc.w	r0, r3, r2
 8000350:	bf08      	it	eq
 8000352:	f020 0001 	biceq.w	r0, r0, #1
 8000356:	4770      	bx	lr
 8000358:	f102 0220 	add.w	r2, r2, #32
 800035c:	fa01 fc02 	lsl.w	ip, r1, r2
 8000360:	f1c2 0220 	rsb	r2, r2, #32
 8000364:	ea50 004c 	orrs.w	r0, r0, ip, lsl #1
 8000368:	fa21 f202 	lsr.w	r2, r1, r2
 800036c:	eb43 0002 	adc.w	r0, r3, r2
 8000370:	bf08      	it	eq
 8000372:	ea20 70dc 	biceq.w	r0, r0, ip, lsr #31
 8000376:	4770      	bx	lr

08000378 <__aeabi_fmul>:
 8000378:	f04f 0cff 	mov.w	ip, #255	; 0xff
 800037c:	ea1c 52d0 	ands.w	r2, ip, r0, lsr #23
 8000380:	bf1e      	ittt	ne
 8000382:	ea1c 53d1 	andsne.w	r3, ip, r1, lsr #23
 8000386:	ea92 0f0c 	teqne	r2, ip
 800038a:	ea93 0f0c 	teqne	r3, ip
 800038e:	d06f      	beq.n	8000470 <__aeabi_fmul+0xf8>
 8000390:	441a      	add	r2, r3
 8000392:	ea80 0c01 	eor.w	ip, r0, r1
 8000396:	0240      	lsls	r0, r0, #9
 8000398:	bf18      	it	ne
 800039a:	ea5f 2141 	movsne.w	r1, r1, lsl #9
 800039e:	d01e      	beq.n	80003de <__aeabi_fmul+0x66>
 80003a0:	f04f 6300 	mov.w	r3, #134217728	; 0x8000000
 80003a4:	ea43 1050 	orr.w	r0, r3, r0, lsr #5
 80003a8:	ea43 1151 	orr.w	r1, r3, r1, lsr #5
 80003ac:	fba0 3101 	umull	r3, r1, r0, r1
 80003b0:	f00c 4000 	and.w	r0, ip, #2147483648	; 0x80000000
 80003b4:	f5b1 0f00 	cmp.w	r1, #8388608	; 0x800000
 80003b8:	bf3e      	ittt	cc
 80003ba:	0049      	lslcc	r1, r1, #1
 80003bc:	ea41 71d3 	orrcc.w	r1, r1, r3, lsr #31
 80003c0:	005b      	lslcc	r3, r3, #1
 80003c2:	ea40 0001 	orr.w	r0, r0, r1
 80003c6:	f162 027f 	sbc.w	r2, r2, #127	; 0x7f
 80003ca:	2afd      	cmp	r2, #253	; 0xfd
 80003cc:	d81d      	bhi.n	800040a <__aeabi_fmul+0x92>
 80003ce:	f1b3 4f00 	cmp.w	r3, #2147483648	; 0x80000000
 80003d2:	eb40 50c2 	adc.w	r0, r0, r2, lsl #23
 80003d6:	bf08      	it	eq
 80003d8:	f020 0001 	biceq.w	r0, r0, #1
 80003dc:	4770      	bx	lr
 80003de:	f090 0f00 	teq	r0, #0
 80003e2:	f00c 4c00 	and.w	ip, ip, #2147483648	; 0x80000000
 80003e6:	bf08      	it	eq
 80003e8:	0249      	lsleq	r1, r1, #9
 80003ea:	ea4c 2050 	orr.w	r0, ip, r0, lsr #9
 80003ee:	ea40 2051 	orr.w	r0, r0, r1, lsr #9
 80003f2:	3a7f      	subs	r2, #127	; 0x7f
 80003f4:	bfc2      	ittt	gt
 80003f6:	f1d2 03ff 	rsbsgt	r3, r2, #255	; 0xff
 80003fa:	ea40 50c2 	orrgt.w	r0, r0, r2, lsl #23
 80003fe:	4770      	bxgt	lr
 8000400:	f440 0000 	orr.w	r0, r0, #8388608	; 0x800000
 8000404:	f04f 0300 	mov.w	r3, #0
 8000408:	3a01      	subs	r2, #1
 800040a:	dc5d      	bgt.n	80004c8 <__aeabi_fmul+0x150>
 800040c:	f112 0f19 	cmn.w	r2, #25
 8000410:	bfdc      	itt	le
 8000412:	f000 4000 	andle.w	r0, r0, #2147483648	; 0x80000000
 8000416:	4770      	bxle	lr
 8000418:	f1c2 0200 	rsb	r2, r2, #0
 800041c:	0041      	lsls	r1, r0, #1
 800041e:	fa21 f102 	lsr.w	r1, r1, r2
 8000422:	f1c2 0220 	rsb	r2, r2, #32
 8000426:	fa00 fc02 	lsl.w	ip, r0, r2
 800042a:	ea5f 0031 	movs.w	r0, r1, rrx
 800042e:	f140 0000 	adc.w	r0, r0, #0
 8000432:	ea53 034c 	orrs.w	r3, r3, ip, lsl #1
 8000436:	bf08      	it	eq
 8000438:	ea20 70dc 	biceq.w	r0, r0, ip, lsr #31
 800043c:	4770      	bx	lr
 800043e:	f092 0f00 	teq	r2, #0
 8000442:	f000 4c00 	and.w	ip, r0, #2147483648	; 0x80000000
 8000446:	bf02      	ittt	eq
 8000448:	0040      	lsleq	r0, r0, #1
 800044a:	f410 0f00 	tsteq.w	r0, #8388608	; 0x800000
 800044e:	3a01      	subeq	r2, #1
 8000450:	d0f9      	beq.n	8000446 <__aeabi_fmul+0xce>
 8000452:	ea40 000c 	orr.w	r0, r0, ip
 8000456:	f093 0f00 	teq	r3, #0
 800045a:	f001 4c00 	and.w	ip, r1, #2147483648	; 0x80000000
 800045e:	bf02      	ittt	eq
 8000460:	0049      	lsleq	r1, r1, #1
 8000462:	f411 0f00 	tsteq.w	r1, #8388608	; 0x800000
 8000466:	3b01      	subeq	r3, #1
 8000468:	d0f9      	beq.n	800045e <__aeabi_fmul+0xe6>
 800046a:	ea41 010c 	orr.w	r1, r1, ip
 800046e:	e78f      	b.n	8000390 <__aeabi_fmul+0x18>
 8000470:	ea0c 53d1 	and.w	r3, ip, r1, lsr #23
 8000474:	ea92 0f0c 	teq	r2, ip
 8000478:	bf18      	it	ne
 800047a:	ea93 0f0c 	teqne	r3, ip
 800047e:	d00a      	beq.n	8000496 <__aeabi_fmul+0x11e>
 8000480:	f030 4c00 	bics.w	ip, r0, #2147483648	; 0x80000000
 8000484:	bf18      	it	ne
 8000486:	f031 4c00 	bicsne.w	ip, r1, #2147483648	; 0x80000000
 800048a:	d1d8      	bne.n	800043e <__aeabi_fmul+0xc6>
 800048c:	ea80 0001 	eor.w	r0, r0, r1
 8000490:	f000 4000 	and.w	r0, r0, #2147483648	; 0x80000000
 8000494:	4770      	bx	lr
 8000496:	f090 0f00 	teq	r0, #0
 800049a:	bf17      	itett	ne
 800049c:	f090 4f00 	teqne	r0, #2147483648	; 0x80000000
 80004a0:	4608      	moveq	r0, r1
 80004a2:	f091 0f00 	teqne	r1, #0
 80004a6:	f091 4f00 	teqne	r1, #2147483648	; 0x80000000
 80004aa:	d014      	beq.n	80004d6 <__aeabi_fmul+0x15e>
 80004ac:	ea92 0f0c 	teq	r2, ip
 80004b0:	d101      	bne.n	80004b6 <__aeabi_fmul+0x13e>
 80004b2:	0242      	lsls	r2, r0, #9
 80004b4:	d10f      	bne.n	80004d6 <__aeabi_fmul+0x15e>
 80004b6:	ea93 0f0c 	teq	r3, ip
 80004ba:	d103      	bne.n	80004c4 <__aeabi_fmul+0x14c>
 80004bc:	024b      	lsls	r3, r1, #9
 80004be:	bf18      	it	ne
 80004c0:	4608      	movne	r0, r1
 80004c2:	d108      	bne.n	80004d6 <__aeabi_fmul+0x15e>
 80004c4:	ea80 0001 	eor.w	r0, r0, r1
 80004c8:	f000 4000 	and.w	r0, r0, #2147483648	; 0x80000000
 80004cc:	f040 40fe 	orr.w	r0, r0, #2130706432	; 0x7f000000
 80004d0:	f440 0000 	orr.w	r0, r0, #8388608	; 0x800000
 80004d4:	4770      	bx	lr
 80004d6:	f040 40fe 	orr.w	r0, r0, #2130706432	; 0x7f000000
 80004da:	f440 0040 	orr.w	r0, r0, #12582912	; 0xc00000
 80004de:	4770      	bx	lr

080004e0 <__aeabi_fdiv>:
 80004e0:	f04f 0cff 	mov.w	ip, #255	; 0xff
 80004e4:	ea1c 52d0 	ands.w	r2, ip, r0, lsr #23
 80004e8:	bf1e      	ittt	ne
 80004ea:	ea1c 53d1 	andsne.w	r3, ip, r1, lsr #23
 80004ee:	ea92 0f0c 	teqne	r2, ip
 80004f2:	ea93 0f0c 	teqne	r3, ip
 80004f6:	d069      	beq.n	80005cc <__aeabi_fdiv+0xec>
 80004f8:	eba2 0203 	sub.w	r2, r2, r3
 80004fc:	ea80 0c01 	eor.w	ip, r0, r1
 8000500:	0249      	lsls	r1, r1, #9
 8000502:	ea4f 2040 	mov.w	r0, r0, lsl #9
 8000506:	d037      	beq.n	8000578 <__aeabi_fdiv+0x98>
 8000508:	f04f 5380 	mov.w	r3, #268435456	; 0x10000000
 800050c:	ea43 1111 	orr.w	r1, r3, r1, lsr #4
 8000510:	ea43 1310 	orr.w	r3, r3, r0, lsr #4
 8000514:	f00c 4000 	and.w	r0, ip, #2147483648	; 0x80000000
 8000518:	428b      	cmp	r3, r1
 800051a:	bf38      	it	cc
 800051c:	005b      	lslcc	r3, r3, #1
 800051e:	f142 027d 	adc.w	r2, r2, #125	; 0x7d
 8000522:	f44f 0c00 	mov.w	ip, #8388608	; 0x800000
 8000526:	428b      	cmp	r3, r1
 8000528:	bf24      	itt	cs
 800052a:	1a5b      	subcs	r3, r3, r1
 800052c:	ea40 000c 	orrcs.w	r0, r0, ip
 8000530:	ebb3 0f51 	cmp.w	r3, r1, lsr #1
 8000534:	bf24      	itt	cs
 8000536:	eba3 0351 	subcs.w	r3, r3, r1, lsr #1
 800053a:	ea40 005c 	orrcs.w	r0, r0, ip, lsr #1
 800053e:	ebb3 0f91 	cmp.w	r3, r1, lsr #2
 8000542:	bf24      	itt	cs
 8000544:	eba3 0391 	subcs.w	r3, r3, r1, lsr #2
 8000548:	ea40 009c 	orrcs.w	r0, r0, ip, lsr #2
 800054c:	ebb3 0fd1 	cmp.w	r3, r1, lsr #3
 8000550:	bf24      	itt	cs
 8000552:	eba3 03d1 	subcs.w	r3, r3, r1, lsr #3
 8000556:	ea40 00dc 	orrcs.w	r0, r0, ip, lsr #3
 800055a:	011b      	lsls	r3, r3, #4
 800055c:	bf18      	it	ne
 800055e:	ea5f 1c1c 	movsne.w	ip, ip, lsr #4
 8000562:	d1e0      	bne.n	8000526 <__aeabi_fdiv+0x46>
 8000564:	2afd      	cmp	r2, #253	; 0xfd
 8000566:	f63f af50 	bhi.w	800040a <__aeabi_fmul+0x92>
 800056a:	428b      	cmp	r3, r1
 800056c:	eb40 50c2 	adc.w	r0, r0, r2, lsl #23
 8000570:	bf08      	it	eq
 8000572:	f020 0001 	biceq.w	r0, r0, #1
 8000576:	4770      	bx	lr
 8000578:	f00c 4c00 	and.w	ip, ip, #2147483648	; 0x80000000
 800057c:	ea4c 2050 	orr.w	r0, ip, r0, lsr #9
 8000580:	327f      	adds	r2, #127	; 0x7f
 8000582:	bfc2      	ittt	gt
 8000584:	f1d2 03ff 	rsbsgt	r3, r2, #255	; 0xff
 8000588:	ea40 50c2 	orrgt.w	r0, r0, r2, lsl #23
 800058c:	4770      	bxgt	lr
 800058e:	f440 0000 	orr.w	r0, r0, #8388608	; 0x800000
 8000592:	f04f 0300 	mov.w	r3, #0
 8000596:	3a01      	subs	r2, #1
 8000598:	e737      	b.n	800040a <__aeabi_fmul+0x92>
 800059a:	f092 0f00 	teq	r2, #0
 800059e:	f000 4c00 	and.w	ip, r0, #2147483648	; 0x80000000
 80005a2:	bf02      	ittt	eq
 80005a4:	0040      	lsleq	r0, r0, #1
 80005a6:	f410 0f00 	tsteq.w	r0, #8388608	; 0x800000
 80005aa:	3a01      	subeq	r2, #1
 80005ac:	d0f9      	beq.n	80005a2 <__aeabi_fdiv+0xc2>
 80005ae:	ea40 000c 	orr.w	r0, r0, ip
 80005b2:	f093 0f00 	teq	r3, #0
 80005b6:	f001 4c00 	and.w	ip, r1, #2147483648	; 0x80000000
 80005ba:	bf02      	ittt	eq
 80005bc:	0049      	lsleq	r1, r1, #1
 80005be:	f411 0f00 	tsteq.w	r1, #8388608	; 0x800000
 80005c2:	3b01      	subeq	r3, #1
 80005c4:	d0f9      	beq.n	80005ba <__aeabi_fdiv+0xda>
 80005c6:	ea41 010c 	orr.w	r1, r1, ip
 80005ca:	e795      	b.n	80004f8 <__aeabi_fdiv+0x18>
 80005cc:	ea0c 53d1 	and.w	r3, ip, r1, lsr #23
 80005d0:	ea92 0f0c 	teq	r2, ip
 80005d4:	d108      	bne.n	80005e8 <__aeabi_fdiv+0x108>
 80005d6:	0242      	lsls	r2, r0, #9
 80005d8:	f47f af7d 	bne.w	80004d6 <__aeabi_fmul+0x15e>
 80005dc:	ea93 0f0c 	teq	r3, ip
 80005e0:	f47f af70 	bne.w	80004c4 <__aeabi_fmul+0x14c>
 80005e4:	4608      	mov	r0, r1
 80005e6:	e776      	b.n	80004d6 <__aeabi_fmul+0x15e>
 80005e8:	ea93 0f0c 	teq	r3, ip
 80005ec:	d104      	bne.n	80005f8 <__aeabi_fdiv+0x118>
 80005ee:	024b      	lsls	r3, r1, #9
 80005f0:	f43f af4c 	beq.w	800048c <__aeabi_fmul+0x114>
 80005f4:	4608      	mov	r0, r1
 80005f6:	e76e      	b.n	80004d6 <__aeabi_fmul+0x15e>
 80005f8:	f030 4c00 	bics.w	ip, r0, #2147483648	; 0x80000000
 80005fc:	bf18      	it	ne
 80005fe:	f031 4c00 	bicsne.w	ip, r1, #2147483648	; 0x80000000
 8000602:	d1ca      	bne.n	800059a <__aeabi_fdiv+0xba>
 8000604:	f030 4200 	bics.w	r2, r0, #2147483648	; 0x80000000
 8000608:	f47f af5c 	bne.w	80004c4 <__aeabi_fmul+0x14c>
 800060c:	f031 4300 	bics.w	r3, r1, #2147483648	; 0x80000000
 8000610:	f47f af3c 	bne.w	800048c <__aeabi_fmul+0x114>
 8000614:	e75f      	b.n	80004d6 <__aeabi_fmul+0x15e>
 8000616:	bf00      	nop

08000618 <__gesf2>:
 8000618:	f04f 3cff 	mov.w	ip, #4294967295
 800061c:	e006      	b.n	800062c <__cmpsf2+0x4>
 800061e:	bf00      	nop

08000620 <__lesf2>:
 8000620:	f04f 0c01 	mov.w	ip, #1
 8000624:	e002      	b.n	800062c <__cmpsf2+0x4>
 8000626:	bf00      	nop

08000628 <__cmpsf2>:
 8000628:	f04f 0c01 	mov.w	ip, #1
 800062c:	f84d cd04 	str.w	ip, [sp, #-4]!
 8000630:	ea4f 0240 	mov.w	r2, r0, lsl #1
 8000634:	ea4f 0341 	mov.w	r3, r1, lsl #1
 8000638:	ea7f 6c22 	mvns.w	ip, r2, asr #24
 800063c:	bf18      	it	ne
 800063e:	ea7f 6c23 	mvnsne.w	ip, r3, asr #24
 8000642:	d011      	beq.n	8000668 <__cmpsf2+0x40>
 8000644:	b001      	add	sp, #4
 8000646:	ea52 0c53 	orrs.w	ip, r2, r3, lsr #1
 800064a:	bf18      	it	ne
 800064c:	ea90 0f01 	teqne	r0, r1
 8000650:	bf58      	it	pl
 8000652:	ebb2 0003 	subspl.w	r0, r2, r3
 8000656:	bf88      	it	hi
 8000658:	17c8      	asrhi	r0, r1, #31
 800065a:	bf38      	it	cc
 800065c:	ea6f 70e1 	mvncc.w	r0, r1, asr #31
 8000660:	bf18      	it	ne
 8000662:	f040 0001 	orrne.w	r0, r0, #1
 8000666:	4770      	bx	lr
 8000668:	ea7f 6c22 	mvns.w	ip, r2, asr #24
 800066c:	d102      	bne.n	8000674 <__cmpsf2+0x4c>
 800066e:	ea5f 2c40 	movs.w	ip, r0, lsl #9
 8000672:	d105      	bne.n	8000680 <__cmpsf2+0x58>
 8000674:	ea7f 6c23 	mvns.w	ip, r3, asr #24
 8000678:	d1e4      	bne.n	8000644 <__cmpsf2+0x1c>
 800067a:	ea5f 2c41 	movs.w	ip, r1, lsl #9
 800067e:	d0e1      	beq.n	8000644 <__cmpsf2+0x1c>
 8000680:	f85d 0b04 	ldr.w	r0, [sp], #4
 8000684:	4770      	bx	lr
 8000686:	bf00      	nop

08000688 <__aeabi_cfrcmple>:
 8000688:	4684      	mov	ip, r0
 800068a:	4608      	mov	r0, r1
 800068c:	4661      	mov	r1, ip
 800068e:	e7ff      	b.n	8000690 <__aeabi_cfcmpeq>

08000690 <__aeabi_cfcmpeq>:
 8000690:	b50f      	push	{r0, r1, r2, r3, lr}
 8000692:	f7ff ffc9 	bl	8000628 <__cmpsf2>
 8000696:	2800      	cmp	r0, #0
 8000698:	bf48      	it	mi
 800069a:	f110 0f00 	cmnmi.w	r0, #0
 800069e:	bd0f      	pop	{r0, r1, r2, r3, pc}

080006a0 <__aeabi_fcmpeq>:
 80006a0:	f84d ed08 	str.w	lr, [sp, #-8]!
 80006a4:	f7ff fff4 	bl	8000690 <__aeabi_cfcmpeq>
 80006a8:	bf0c      	ite	eq
 80006aa:	2001      	moveq	r0, #1
 80006ac:	2000      	movne	r0, #0
 80006ae:	f85d fb08 	ldr.w	pc, [sp], #8
 80006b2:	bf00      	nop

080006b4 <__aeabi_fcmplt>:
 80006b4:	f84d ed08 	str.w	lr, [sp, #-8]!
 80006b8:	f7ff ffea 	bl	8000690 <__aeabi_cfcmpeq>
 80006bc:	bf34      	ite	cc
 80006be:	2001      	movcc	r0, #1
 80006c0:	2000      	movcs	r0, #0
 80006c2:	f85d fb08 	ldr.w	pc, [sp], #8
 80006c6:	bf00      	nop

080006c8 <__aeabi_fcmple>:
 80006c8:	f84d ed08 	str.w	lr, [sp, #-8]!
 80006cc:	f7ff ffe0 	bl	8000690 <__aeabi_cfcmpeq>
 80006d0:	bf94      	ite	ls
 80006d2:	2001      	movls	r0, #1
 80006d4:	2000      	movhi	r0, #0
 80006d6:	f85d fb08 	ldr.w	pc, [sp], #8
 80006da:	bf00      	nop

080006dc <__aeabi_fcmpge>:
 80006dc:	f84d ed08 	str.w	lr, [sp, #-8]!
 80006e0:	f7ff ffd2 	bl	8000688 <__aeabi_cfrcmple>
 80006e4:	bf94      	ite	ls
 80006e6:	2001      	movls	r0, #1
 80006e8:	2000      	movhi	r0, #0
 80006ea:	f85d fb08 	ldr.w	pc, [sp], #8
 80006ee:	bf00      	nop

080006f0 <__aeabi_fcmpgt>:
 80006f0:	f84d ed08 	str.w	lr, [sp, #-8]!
 80006f4:	f7ff ffc8 	bl	8000688 <__aeabi_cfrcmple>
 80006f8:	bf34      	ite	cc
 80006fa:	2001      	movcc	r0, #1
 80006fc:	2000      	movcs	r0, #0
 80006fe:	f85d fb08 	ldr.w	pc, [sp], #8
 8000702:	bf00      	nop

08000704 <__aeabi_f2iz>:
 8000704:	ea4f 0240 	mov.w	r2, r0, lsl #1
 8000708:	f1b2 4ffe 	cmp.w	r2, #2130706432	; 0x7f000000
 800070c:	d30f      	bcc.n	800072e <__aeabi_f2iz+0x2a>
 800070e:	f04f 039e 	mov.w	r3, #158	; 0x9e
 8000712:	ebb3 6212 	subs.w	r2, r3, r2, lsr #24
 8000716:	d90d      	bls.n	8000734 <__aeabi_f2iz+0x30>
 8000718:	ea4f 2300 	mov.w	r3, r0, lsl #8
 800071c:	f043 4300 	orr.w	r3, r3, #2147483648	; 0x80000000
 8000720:	f010 4f00 	tst.w	r0, #2147483648	; 0x80000000
 8000724:	fa23 f002 	lsr.w	r0, r3, r2
 8000728:	bf18      	it	ne
 800072a:	4240      	negne	r0, r0
 800072c:	4770      	bx	lr
 800072e:	f04f 0000 	mov.w	r0, #0
 8000732:	4770      	bx	lr
 8000734:	f112 0f61 	cmn.w	r2, #97	; 0x61
 8000738:	d101      	bne.n	800073e <__aeabi_f2iz+0x3a>
 800073a:	0242      	lsls	r2, r0, #9
 800073c:	d105      	bne.n	800074a <__aeabi_f2iz+0x46>
 800073e:	f010 4000 	ands.w	r0, r0, #2147483648	; 0x80000000
 8000742:	bf08      	it	eq
 8000744:	f06f 4000 	mvneq.w	r0, #2147483648	; 0x80000000
 8000748:	4770      	bx	lr
 800074a:	f04f 0000 	mov.w	r0, #0
 800074e:	4770      	bx	lr

08000750 <main>:
/**
  * @brief  The application entry point.
  * @retval int
  */
int main(void)
{
 8000750:	b580      	push	{r7, lr}
 8000752:	b08c      	sub	sp, #48	; 0x30
 8000754:	af00      	add	r7, sp, #0
    /* MCU Configuration--------------------------------------------------------*/
    HAL_Init();
 8000756:	f002 ff65 	bl	8003624 <HAL_Init>
    SystemClock_Config();
 800075a:	f000 fed3 	bl	8001504 <SystemClock_Config>
    MX_GPIO_Init();
 800075e:	f000 ff2d 	bl	80015bc <MX_GPIO_Init>
    MX_USART1_UART_Init();
 8000762:	f001 f807 	bl	8001774 <MX_USART1_UART_Init>
    MX_USART2_UART_Init();
 8000766:	f001 f82f 	bl	80017c8 <MX_USART2_UART_Init>
    MX_ADC1_Init();
 800076a:	f001 f857 	bl	800181c <MX_ADC1_Init>
    MX_ADC2_Init();
 800076e:	f001 f893 	bl	8001898 <MX_ADC2_Init>
    MX_TIM4_Init();
 8000772:	f001 f8cf 	bl	8001914 <MX_TIM4_Init>

    /* Калибровка ADC */
    USART2_Print("[INIT] Calibrating ADC1...\r\n");
 8000776:	48a5      	ldr	r0, [pc, #660]	; (8000a0c <main+0x2bc>)
 8000778:	f002 fa7a 	bl	8002c70 <USART2_Print>
    if (HAL_ADCEx_Calibration_Start(&hadc1) == HAL_OK) {
 800077c:	48a4      	ldr	r0, [pc, #656]	; (8000a10 <main+0x2c0>)
 800077e:	f003 fd05 	bl	800418c <HAL_ADCEx_Calibration_Start>
 8000782:	4603      	mov	r3, r0
 8000784:	2b00      	cmp	r3, #0
 8000786:	d106      	bne.n	8000796 <main+0x46>
        adc1_initialized = 1;
 8000788:	4ba2      	ldr	r3, [pc, #648]	; (8000a14 <main+0x2c4>)
 800078a:	2201      	movs	r2, #1
 800078c:	701a      	strb	r2, [r3, #0]
        USART2_Print("[INIT] ADC1 calibrated OK\r\n");
 800078e:	48a2      	ldr	r0, [pc, #648]	; (8000a18 <main+0x2c8>)
 8000790:	f002 fa6e 	bl	8002c70 <USART2_Print>
 8000794:	e002      	b.n	800079c <main+0x4c>
    } else {
        USART2_Print("[INIT] ADC1 calibration FAILED!\r\n");
 8000796:	48a1      	ldr	r0, [pc, #644]	; (8000a1c <main+0x2cc>)
 8000798:	f002 fa6a 	bl	8002c70 <USART2_Print>
    }

    USART2_Print("[INIT] Calibrating ADC2...\r\n");
 800079c:	48a0      	ldr	r0, [pc, #640]	; (8000a20 <main+0x2d0>)
 800079e:	f002 fa67 	bl	8002c70 <USART2_Print>
    if (HAL_ADCEx_Calibration_Start(&hadc2) == HAL_OK) {
 80007a2:	48a0      	ldr	r0, [pc, #640]	; (8000a24 <main+0x2d4>)
 80007a4:	f003 fcf2 	bl	800418c <HAL_ADCEx_Calibration_Start>
 80007a8:	4603      	mov	r3, r0
 80007aa:	2b00      	cmp	r3, #0
 80007ac:	d106      	bne.n	80007bc <main+0x6c>
        adc2_initialized = 1;
 80007ae:	4b9e      	ldr	r3, [pc, #632]	; (8000a28 <main+0x2d8>)
 80007b0:	2201      	movs	r2, #1
 80007b2:	701a      	strb	r2, [r3, #0]
        USART2_Print("[INIT] ADC2 calibrated OK\r\n");
 80007b4:	489d      	ldr	r0, [pc, #628]	; (8000a2c <main+0x2dc>)
 80007b6:	f002 fa5b 	bl	8002c70 <USART2_Print>
 80007ba:	e002      	b.n	80007c2 <main+0x72>
    } else {
        USART2_Print("[INIT] ADC2 calibration FAILED!\r\n");
 80007bc:	489c      	ldr	r0, [pc, #624]	; (8000a30 <main+0x2e0>)
 80007be:	f002 fa57 	bl	8002c70 <USART2_Print>
    }

    /* Инициализация ModBus */
    ModBus_Init();
 80007c2:	f001 feb5 	bl	8002530 <ModBus_Init>

    /* Задержка для стабилизации */
    HAL_Delay(1000);
 80007c6:	f44f 707a 	mov.w	r0, #1000	; 0x3e8
 80007ca:	f002 ff8d 	bl	80036e8 <HAL_Delay>

    /* Инициализация захвата частоты */
    TIM3_InputCapture_Init();
 80007ce:	f000 fa21 	bl	8000c14 <TIM3_InputCapture_Init>

    /* Инициализация и запуск генератора импульсов (ПРОСТОЙ ВАРИАНТ) */
    TIM4_PWM_Init_Simple();
 80007d2:	f000 fbeb 	bl	8000fac <TIM4_PWM_Init_Simple>
    Start_Pulse_Generator();
 80007d6:	f000 fc3d 	bl	8001054 <Start_Pulse_Generator>

    /* Настройка приоритетов прерываний */
    HAL_NVIC_SetPriority(USART1_IRQn, 0, 0);
 80007da:	2200      	movs	r2, #0
 80007dc:	2100      	movs	r1, #0
 80007de:	2025      	movs	r0, #37	; 0x25
 80007e0:	f003 fe61 	bl	80044a6 <HAL_NVIC_SetPriority>
    HAL_NVIC_EnableIRQ(USART1_IRQn);
 80007e4:	2025      	movs	r0, #37	; 0x25
 80007e6:	f003 fe7a 	bl	80044de <HAL_NVIC_EnableIRQ>
    HAL_NVIC_SetPriority(USART2_IRQn, 0, 1);
 80007ea:	2201      	movs	r2, #1
 80007ec:	2100      	movs	r1, #0
 80007ee:	2026      	movs	r0, #38	; 0x26
 80007f0:	f003 fe59 	bl	80044a6 <HAL_NVIC_SetPriority>
    HAL_NVIC_EnableIRQ(USART2_IRQn);
 80007f4:	2026      	movs	r0, #38	; 0x26
 80007f6:	f003 fe72 	bl	80044de <HAL_NVIC_EnableIRQ>
    HAL_NVIC_SetPriority(TIM3_IRQn, 1, 0);
 80007fa:	2200      	movs	r2, #0
 80007fc:	2101      	movs	r1, #1
 80007fe:	201d      	movs	r0, #29
 8000800:	f003 fe51 	bl	80044a6 <HAL_NVIC_SetPriority>
    HAL_NVIC_EnableIRQ(TIM3_IRQn);
 8000804:	201d      	movs	r0, #29
 8000806:	f003 fe6a 	bl	80044de <HAL_NVIC_EnableIRQ>
    HAL_NVIC_SetPriority(ADC1_2_IRQn, 1, 1);
 800080a:	2201      	movs	r2, #1
 800080c:	2101      	movs	r1, #1
 800080e:	2012      	movs	r0, #18
 8000810:	f003 fe49 	bl	80044a6 <HAL_NVIC_SetPriority>
    HAL_NVIC_EnableIRQ(ADC1_2_IRQn);
 8000814:	2012      	movs	r0, #18
 8000816:	f003 fe62 	bl	80044de <HAL_NVIC_EnableIRQ>
  \details Enables IRQ interrupts by clearing the I-bit in the CPSR.
           Can only be executed in Privileged modes.
 */
__STATIC_FORCEINLINE void __enable_irq(void)
{
  __ASM volatile ("cpsie i" : : : "memory");
 800081a:	b662      	cpsie	i
}
 800081c:	bf00      	nop

    /* Включаем глобальные прерывания */
    __enable_irq();

    /* Вывод информации о системе */
    USART2_Print("\r\n========================================\r\n");
 800081e:	4885      	ldr	r0, [pc, #532]	; (8000a34 <main+0x2e4>)
 8000820:	f002 fa26 	bl	8002c70 <USART2_Print>
    USART2_Print("       STM32 Frequency Meter System       \r\n");
 8000824:	4884      	ldr	r0, [pc, #528]	; (8000a38 <main+0x2e8>)
 8000826:	f002 fa23 	bl	8002c70 <USART2_Print>
    USART2_Print("========================================\r\n");
 800082a:	4884      	ldr	r0, [pc, #528]	; (8000a3c <main+0x2ec>)
 800082c:	f002 fa20 	bl	8002c70 <USART2_Print>
    USART2_Print("System initialized\r\n");
 8000830:	4883      	ldr	r0, [pc, #524]	; (8000a40 <main+0x2f0>)
 8000832:	f002 fa1d 	bl	8002c70 <USART2_Print>
    USART2_Print("USART2: Debug console (115200)\r\n");
 8000836:	4883      	ldr	r0, [pc, #524]	; (8000a44 <main+0x2f4>)
 8000838:	f002 fa1a 	bl	8002c70 <USART2_Print>
    USART2_Print("USART1: ModBus RTU (9600, 8N1)\r\n");
 800083c:	4882      	ldr	r0, [pc, #520]	; (8000a48 <main+0x2f8>)
 800083e:	f002 fa17 	bl	8002c70 <USART2_Print>
    USART2_Print("Device address: 1\r\n");
 8000842:	4882      	ldr	r0, [pc, #520]	; (8000a4c <main+0x2fc>)
 8000844:	f002 fa14 	bl	8002c70 <USART2_Print>
    USART2_Print("ADC samples: ");
 8000848:	4881      	ldr	r0, [pc, #516]	; (8000a50 <main+0x300>)
 800084a:	f002 fa11 	bl	8002c70 <USART2_Print>
    USART2_PrintNum(ADC_SAMPLES);
 800084e:	2010      	movs	r0, #16
 8000850:	f002 fa26 	bl	8002ca0 <USART2_PrintNum>
    USART2_Print("\r\nPulse generator: PB5, 10 us @ 10 Hz\r\n");
 8000854:	487f      	ldr	r0, [pc, #508]	; (8000a54 <main+0x304>)
 8000856:	f002 fa0b 	bl	8002c70 <USART2_Print>
    USART2_Print("========================================\r\n\r\n");
 800085a:	487f      	ldr	r0, [pc, #508]	; (8000a58 <main+0x308>)
 800085c:	f002 fa08 	bl	8002c70 <USART2_Print>

    /* Тестовое измерение напряжений при запуске */
    USART2_Print("[INIT] Testing ADC measurements...\r\n");
 8000860:	487e      	ldr	r0, [pc, #504]	; (8000a5c <main+0x30c>)
 8000862:	f002 fa05 	bl	8002c70 <USART2_Print>
    Read_All_Voltages();
 8000866:	f000 fc83 	bl	8001170 <Read_All_Voltages>

    USART2_Print("[INIT] VDDA: ");
 800086a:	487d      	ldr	r0, [pc, #500]	; (8000a60 <main+0x310>)
 800086c:	f002 fa00 	bl	8002c70 <USART2_Print>
    float_to_str(current_vdda, float_buffer, 3);
 8000870:	4b7c      	ldr	r3, [pc, #496]	; (8000a64 <main+0x314>)
 8000872:	681b      	ldr	r3, [r3, #0]
 8000874:	2203      	movs	r2, #3
 8000876:	497c      	ldr	r1, [pc, #496]	; (8000a68 <main+0x318>)
 8000878:	4618      	mov	r0, r3
 800087a:	f002 fdc3 	bl	8003404 <float_to_str>
    USART2_Print(float_buffer);
 800087e:	487a      	ldr	r0, [pc, #488]	; (8000a68 <main+0x318>)
 8000880:	f002 f9f6 	bl	8002c70 <USART2_Print>
    USART2_Print(" V\r\n");
 8000884:	4879      	ldr	r0, [pc, #484]	; (8000a6c <main+0x31c>)
 8000886:	f002 f9f3 	bl	8002c70 <USART2_Print>

    USART2_Print("[INIT] 24V:  ");
 800088a:	4879      	ldr	r0, [pc, #484]	; (8000a70 <main+0x320>)
 800088c:	f002 f9f0 	bl	8002c70 <USART2_Print>
    float_to_str(current_24v, float_buffer, 3);
 8000890:	4b78      	ldr	r3, [pc, #480]	; (8000a74 <main+0x324>)
 8000892:	681b      	ldr	r3, [r3, #0]
 8000894:	2203      	movs	r2, #3
 8000896:	4974      	ldr	r1, [pc, #464]	; (8000a68 <main+0x318>)
 8000898:	4618      	mov	r0, r3
 800089a:	f002 fdb3 	bl	8003404 <float_to_str>
    USART2_Print(float_buffer);
 800089e:	4872      	ldr	r0, [pc, #456]	; (8000a68 <main+0x318>)
 80008a0:	f002 f9e6 	bl	8002c70 <USART2_Print>
    USART2_Print(" V\r\n");
 80008a4:	4871      	ldr	r0, [pc, #452]	; (8000a6c <main+0x31c>)
 80008a6:	f002 f9e3 	bl	8002c70 <USART2_Print>

    USART2_Print("[INIT] 12V:  ");
 80008aa:	4873      	ldr	r0, [pc, #460]	; (8000a78 <main+0x328>)
 80008ac:	f002 f9e0 	bl	8002c70 <USART2_Print>
    float_to_str(current_12v, float_buffer, 3);
 80008b0:	4b72      	ldr	r3, [pc, #456]	; (8000a7c <main+0x32c>)
 80008b2:	681b      	ldr	r3, [r3, #0]
 80008b4:	2203      	movs	r2, #3
 80008b6:	496c      	ldr	r1, [pc, #432]	; (8000a68 <main+0x318>)
 80008b8:	4618      	mov	r0, r3
 80008ba:	f002 fda3 	bl	8003404 <float_to_str>
    USART2_Print(float_buffer);
 80008be:	486a      	ldr	r0, [pc, #424]	; (8000a68 <main+0x318>)
 80008c0:	f002 f9d6 	bl	8002c70 <USART2_Print>
    USART2_Print(" V\r\n");
 80008c4:	4869      	ldr	r0, [pc, #420]	; (8000a6c <main+0x31c>)
 80008c6:	f002 f9d3 	bl	8002c70 <USART2_Print>

    USART2_Print("[INIT] 5V:   ");
 80008ca:	486d      	ldr	r0, [pc, #436]	; (8000a80 <main+0x330>)
 80008cc:	f002 f9d0 	bl	8002c70 <USART2_Print>
    float_to_str(current_5v, float_buffer, 3);
 80008d0:	4b6c      	ldr	r3, [pc, #432]	; (8000a84 <main+0x334>)
 80008d2:	681b      	ldr	r3, [r3, #0]
 80008d4:	2203      	movs	r2, #3
 80008d6:	4964      	ldr	r1, [pc, #400]	; (8000a68 <main+0x318>)
 80008d8:	4618      	mov	r0, r3
 80008da:	f002 fd93 	bl	8003404 <float_to_str>
    USART2_Print(float_buffer);
 80008de:	4862      	ldr	r0, [pc, #392]	; (8000a68 <main+0x318>)
 80008e0:	f002 f9c6 	bl	8002c70 <USART2_Print>
    USART2_Print(" V\r\n");
 80008e4:	4861      	ldr	r0, [pc, #388]	; (8000a6c <main+0x31c>)
 80008e6:	f002 f9c3 	bl	8002c70 <USART2_Print>

    USART2_Print("[INIT] ADC test completed\r\n\r\n");
 80008ea:	4867      	ldr	r0, [pc, #412]	; (8000a88 <main+0x338>)
 80008ec:	f002 f9c0 	bl	8002c70 <USART2_Print>

    /* Основные переменные цикла */
    uint32_t last_measure_time = 0;
 80008f0:	2300      	movs	r3, #0
 80008f2:	62fb      	str	r3, [r7, #44]	; 0x2c
    uint32_t last_debug_time = 0;
 80008f4:	2300      	movs	r3, #0
 80008f6:	62bb      	str	r3, [r7, #40]	; 0x28
    uint8_t led_state = 0;
 80008f8:	2300      	movs	r3, #0
 80008fa:	f887 3027 	strb.w	r3, [r7, #39]	; 0x27
    while (1)
    {
    	//HAL_GPIO_WritePin(GPIOB, GPIO_PIN_5, GPIO_PIN_SET);
    	//HAL_Delay(0.1);
    	//HAL_GPIO_WritePin(GPIOB, GPIO_PIN_5, GPIO_PIN_RESET);
    	HAL_Delay(100);
 80008fe:	2064      	movs	r0, #100	; 0x64
 8000900:	f002 fef2 	bl	80036e8 <HAL_Delay>
        /* Мигание светодиодом каждые 500 мс */
        if (HAL_GetTick() - last_debug_time >= 500)
 8000904:	f002 fee6 	bl	80036d4 <HAL_GetTick>
 8000908:	4602      	mov	r2, r0
 800090a:	6abb      	ldr	r3, [r7, #40]	; 0x28
 800090c:	1ad3      	subs	r3, r2, r3
 800090e:	f5b3 7ffa 	cmp.w	r3, #500	; 0x1f4
 8000912:	d318      	bcc.n	8000946 <main+0x1f6>
        {
            last_debug_time = HAL_GetTick();
 8000914:	f002 fede 	bl	80036d4 <HAL_GetTick>
 8000918:	62b8      	str	r0, [r7, #40]	; 0x28
            led_state = !led_state;
 800091a:	f897 3027 	ldrb.w	r3, [r7, #39]	; 0x27
 800091e:	2b00      	cmp	r3, #0
 8000920:	bf0c      	ite	eq
 8000922:	2301      	moveq	r3, #1
 8000924:	2300      	movne	r3, #0
 8000926:	b2db      	uxtb	r3, r3
 8000928:	f887 3027 	strb.w	r3, [r7, #39]	; 0x27
            HAL_GPIO_WritePin(GPIOC, GPIO_PIN_13, led_state ? GPIO_PIN_RESET : GPIO_PIN_SET);
 800092c:	f897 3027 	ldrb.w	r3, [r7, #39]	; 0x27
 8000930:	2b00      	cmp	r3, #0
 8000932:	bf0c      	ite	eq
 8000934:	2301      	moveq	r3, #1
 8000936:	2300      	movne	r3, #0
 8000938:	b2db      	uxtb	r3, r3
 800093a:	461a      	mov	r2, r3
 800093c:	f44f 5100 	mov.w	r1, #8192	; 0x2000
 8000940:	4852      	ldr	r0, [pc, #328]	; (8000a8c <main+0x33c>)
 8000942:	f004 f81b 	bl	800497c <HAL_GPIO_WritePin>
        }

        /* Чтение напряжений и измерение частоты каждую секунду */
        if (HAL_GetTick() - last_measure_time >= 1000)
 8000946:	f002 fec5 	bl	80036d4 <HAL_GetTick>
 800094a:	4602      	mov	r2, r0
 800094c:	6afb      	ldr	r3, [r7, #44]	; 0x2c
 800094e:	1ad3      	subs	r3, r2, r3
 8000950:	f5b3 7f7a 	cmp.w	r3, #1000	; 0x3e8
 8000954:	f0c0 8137 	bcc.w	8000bc6 <main+0x476>
        {
            last_measure_time = HAL_GetTick();
 8000958:	f002 febc 	bl	80036d4 <HAL_GetTick>
 800095c:	62f8      	str	r0, [r7, #44]	; 0x2c

            /* Шаг 1: Измерение напряжений */
            Read_All_Voltages();
 800095e:	f000 fc07 	bl	8001170 <Read_All_Voltages>

            /* Шаг 2: Обновление данных в ModBus регистрах */
            ModBus_UpdateVoltages(current_vdda, current_24v, current_12v, current_5v);
 8000962:	4b40      	ldr	r3, [pc, #256]	; (8000a64 <main+0x314>)
 8000964:	6818      	ldr	r0, [r3, #0]
 8000966:	4b43      	ldr	r3, [pc, #268]	; (8000a74 <main+0x324>)
 8000968:	6819      	ldr	r1, [r3, #0]
 800096a:	4b44      	ldr	r3, [pc, #272]	; (8000a7c <main+0x32c>)
 800096c:	681a      	ldr	r2, [r3, #0]
 800096e:	4b45      	ldr	r3, [pc, #276]	; (8000a84 <main+0x334>)
 8000970:	681b      	ldr	r3, [r3, #0]
 8000972:	f001 ff31 	bl	80027d8 <ModBus_UpdateVoltages>

            /* Шаг 3: Вывод напряжений на отладку */
            USART2_Print("\r\n--- VOLTAGES ---\r\n");
 8000976:	4846      	ldr	r0, [pc, #280]	; (8000a90 <main+0x340>)
 8000978:	f002 f97a 	bl	8002c70 <USART2_Print>

            USART2_Print("VDDA = ");
 800097c:	4845      	ldr	r0, [pc, #276]	; (8000a94 <main+0x344>)
 800097e:	f002 f977 	bl	8002c70 <USART2_Print>
            float_to_str(current_vdda, float_buffer, 3);
 8000982:	4b38      	ldr	r3, [pc, #224]	; (8000a64 <main+0x314>)
 8000984:	681b      	ldr	r3, [r3, #0]
 8000986:	2203      	movs	r2, #3
 8000988:	4937      	ldr	r1, [pc, #220]	; (8000a68 <main+0x318>)
 800098a:	4618      	mov	r0, r3
 800098c:	f002 fd3a 	bl	8003404 <float_to_str>
            USART2_Print(float_buffer);
 8000990:	4835      	ldr	r0, [pc, #212]	; (8000a68 <main+0x318>)
 8000992:	f002 f96d 	bl	8002c70 <USART2_Print>
            USART2_Print(" V\r\n");
 8000996:	4835      	ldr	r0, [pc, #212]	; (8000a6c <main+0x31c>)
 8000998:	f002 f96a 	bl	8002c70 <USART2_Print>

            USART2_Print("24V  = ");
 800099c:	483e      	ldr	r0, [pc, #248]	; (8000a98 <main+0x348>)
 800099e:	f002 f967 	bl	8002c70 <USART2_Print>
            float_to_str(current_24v, float_buffer, 3);
 80009a2:	4b34      	ldr	r3, [pc, #208]	; (8000a74 <main+0x324>)
 80009a4:	681b      	ldr	r3, [r3, #0]
 80009a6:	2203      	movs	r2, #3
 80009a8:	492f      	ldr	r1, [pc, #188]	; (8000a68 <main+0x318>)
 80009aa:	4618      	mov	r0, r3
 80009ac:	f002 fd2a 	bl	8003404 <float_to_str>
            USART2_Print(float_buffer);
 80009b0:	482d      	ldr	r0, [pc, #180]	; (8000a68 <main+0x318>)
 80009b2:	f002 f95d 	bl	8002c70 <USART2_Print>
            USART2_Print(" V\r\n");
 80009b6:	482d      	ldr	r0, [pc, #180]	; (8000a6c <main+0x31c>)
 80009b8:	f002 f95a 	bl	8002c70 <USART2_Print>

            USART2_Print("12V  = ");
 80009bc:	4837      	ldr	r0, [pc, #220]	; (8000a9c <main+0x34c>)
 80009be:	f002 f957 	bl	8002c70 <USART2_Print>
            float_to_str(current_12v, float_buffer, 3);
 80009c2:	4b2e      	ldr	r3, [pc, #184]	; (8000a7c <main+0x32c>)
 80009c4:	681b      	ldr	r3, [r3, #0]
 80009c6:	2203      	movs	r2, #3
 80009c8:	4927      	ldr	r1, [pc, #156]	; (8000a68 <main+0x318>)
 80009ca:	4618      	mov	r0, r3
 80009cc:	f002 fd1a 	bl	8003404 <float_to_str>
            USART2_Print(float_buffer);
 80009d0:	4825      	ldr	r0, [pc, #148]	; (8000a68 <main+0x318>)
 80009d2:	f002 f94d 	bl	8002c70 <USART2_Print>
            USART2_Print(" V\r\n");
 80009d6:	4825      	ldr	r0, [pc, #148]	; (8000a6c <main+0x31c>)
 80009d8:	f002 f94a 	bl	8002c70 <USART2_Print>

            USART2_Print("5V   = ");
 80009dc:	4830      	ldr	r0, [pc, #192]	; (8000aa0 <main+0x350>)
 80009de:	f002 f947 	bl	8002c70 <USART2_Print>
            float_to_str(current_5v, float_buffer, 3);
 80009e2:	4b28      	ldr	r3, [pc, #160]	; (8000a84 <main+0x334>)
 80009e4:	681b      	ldr	r3, [r3, #0]
 80009e6:	2203      	movs	r2, #3
 80009e8:	491f      	ldr	r1, [pc, #124]	; (8000a68 <main+0x318>)
 80009ea:	4618      	mov	r0, r3
 80009ec:	f002 fd0a 	bl	8003404 <float_to_str>
            USART2_Print(float_buffer);
 80009f0:	481d      	ldr	r0, [pc, #116]	; (8000a68 <main+0x318>)
 80009f2:	f002 f93d 	bl	8002c70 <USART2_Print>
            USART2_Print(" V\r\n");
 80009f6:	481d      	ldr	r0, [pc, #116]	; (8000a6c <main+0x31c>)
 80009f8:	f002 f93a 	bl	8002c70 <USART2_Print>

            /* Шаг 4: Измерение частоты */
            reset_capture();
 80009fc:	f000 f9bc 	bl	8000d78 <reset_capture>
            start_capture();
 8000a00:	f000 f990 	bl	8000d24 <start_capture>

            /* Ожидание завершения измерения частоты */
            uint32_t start_wait = HAL_GetTick();
 8000a04:	f002 fe66 	bl	80036d4 <HAL_GetTick>
 8000a08:	61b8      	str	r0, [r7, #24]
            while (!measurement_done && ((HAL_GetTick() - start_wait) < 1000)) {
 8000a0a:	e04e      	b.n	8000aaa <main+0x35a>
 8000a0c:	08006974 	.word	0x08006974
 8000a10:	200000c0 	.word	0x200000c0
 8000a14:	20000178 	.word	0x20000178
 8000a18:	08006994 	.word	0x08006994
 8000a1c:	080069b0 	.word	0x080069b0
 8000a20:	080069d4 	.word	0x080069d4
 8000a24:	200000f0 	.word	0x200000f0
 8000a28:	20000179 	.word	0x20000179
 8000a2c:	080069f4 	.word	0x080069f4
 8000a30:	08006a10 	.word	0x08006a10
 8000a34:	08006a34 	.word	0x08006a34
 8000a38:	08006a64 	.word	0x08006a64
 8000a3c:	08006a94 	.word	0x08006a94
 8000a40:	08006ac0 	.word	0x08006ac0
 8000a44:	08006ad8 	.word	0x08006ad8
 8000a48:	08006afc 	.word	0x08006afc
 8000a4c:	08006b20 	.word	0x08006b20
 8000a50:	08006b34 	.word	0x08006b34
 8000a54:	08006b44 	.word	0x08006b44
 8000a58:	08006b6c 	.word	0x08006b6c
 8000a5c:	08006b9c 	.word	0x08006b9c
 8000a60:	08006bc4 	.word	0x08006bc4
 8000a64:	20000000 	.word	0x20000000
 8000a68:	2000017c 	.word	0x2000017c
 8000a6c:	08006bd4 	.word	0x08006bd4
 8000a70:	08006bdc 	.word	0x08006bdc
 8000a74:	20000004 	.word	0x20000004
 8000a78:	08006bec 	.word	0x08006bec
 8000a7c:	20000008 	.word	0x20000008
 8000a80:	08006bfc 	.word	0x08006bfc
 8000a84:	2000000c 	.word	0x2000000c
 8000a88:	08006c0c 	.word	0x08006c0c
 8000a8c:	40011000 	.word	0x40011000
 8000a90:	08006c2c 	.word	0x08006c2c
 8000a94:	08006c44 	.word	0x08006c44
 8000a98:	08006c4c 	.word	0x08006c4c
 8000a9c:	08006c54 	.word	0x08006c54
 8000aa0:	08006c5c 	.word	0x08006c5c
                ModBus_Process();
 8000aa4:	f001 fe72 	bl	800278c <ModBus_Process>
                __NOP();
 8000aa8:	bf00      	nop
            while (!measurement_done && ((HAL_GetTick() - start_wait) < 1000)) {
 8000aaa:	4b4a      	ldr	r3, [pc, #296]	; (8000bd4 <main+0x484>)
 8000aac:	781b      	ldrb	r3, [r3, #0]
 8000aae:	b2db      	uxtb	r3, r3
 8000ab0:	2b00      	cmp	r3, #0
 8000ab2:	d107      	bne.n	8000ac4 <main+0x374>
 8000ab4:	f002 fe0e 	bl	80036d4 <HAL_GetTick>
 8000ab8:	4602      	mov	r2, r0
 8000aba:	69bb      	ldr	r3, [r7, #24]
 8000abc:	1ad3      	subs	r3, r2, r3
 8000abe:	f5b3 7f7a 	cmp.w	r3, #1000	; 0x3e8
 8000ac2:	d3ef      	bcc.n	8000aa4 <main+0x354>
            }

            /* Обработка результатов измерения частоты */
            if (measurement_done && capture_index >= 3) {
 8000ac4:	4b43      	ldr	r3, [pc, #268]	; (8000bd4 <main+0x484>)
 8000ac6:	781b      	ldrb	r3, [r3, #0]
 8000ac8:	b2db      	uxtb	r3, r3
 8000aca:	2b00      	cmp	r3, #0
 8000acc:	d066      	beq.n	8000b9c <main+0x44c>
 8000ace:	4b42      	ldr	r3, [pc, #264]	; (8000bd8 <main+0x488>)
 8000ad0:	781b      	ldrb	r3, [r3, #0]
 8000ad2:	b2db      	uxtb	r3, r3
 8000ad4:	2b02      	cmp	r3, #2
 8000ad6:	d961      	bls.n	8000b9c <main+0x44c>
                /* Расчет периодов */
                uint32_t period1_ticks = capture_times[1] - capture_times[0];
 8000ad8:	4b40      	ldr	r3, [pc, #256]	; (8000bdc <main+0x48c>)
 8000ada:	685a      	ldr	r2, [r3, #4]
 8000adc:	4b3f      	ldr	r3, [pc, #252]	; (8000bdc <main+0x48c>)
 8000ade:	681b      	ldr	r3, [r3, #0]
 8000ae0:	1ad3      	subs	r3, r2, r3
 8000ae2:	617b      	str	r3, [r7, #20]
                uint32_t period2_ticks = capture_times[2] - capture_times[1];
 8000ae4:	4b3d      	ldr	r3, [pc, #244]	; (8000bdc <main+0x48c>)
 8000ae6:	689a      	ldr	r2, [r3, #8]
 8000ae8:	4b3c      	ldr	r3, [pc, #240]	; (8000bdc <main+0x48c>)
 8000aea:	685b      	ldr	r3, [r3, #4]
 8000aec:	1ad3      	subs	r3, r2, r3
 8000aee:	613b      	str	r3, [r7, #16]

                float tick_duration_us = 1000000.0f / (TIMER_CLOCK_HZ / 7.0f);
 8000af0:	4b3b      	ldr	r3, [pc, #236]	; (8000be0 <main+0x490>)
 8000af2:	60fb      	str	r3, [r7, #12]
                float period1_us = period1_ticks * tick_duration_us;
 8000af4:	6978      	ldr	r0, [r7, #20]
 8000af6:	f7ff fbe7 	bl	80002c8 <__aeabi_ui2f>
 8000afa:	4603      	mov	r3, r0
 8000afc:	4619      	mov	r1, r3
 8000afe:	68f8      	ldr	r0, [r7, #12]
 8000b00:	f7ff fc3a 	bl	8000378 <__aeabi_fmul>
 8000b04:	4603      	mov	r3, r0
 8000b06:	60bb      	str	r3, [r7, #8]
                float period2_us = period2_ticks * tick_duration_us;
 8000b08:	6938      	ldr	r0, [r7, #16]
 8000b0a:	f7ff fbdd 	bl	80002c8 <__aeabi_ui2f>
 8000b0e:	4603      	mov	r3, r0
 8000b10:	4619      	mov	r1, r3
 8000b12:	68f8      	ldr	r0, [r7, #12]
 8000b14:	f7ff fc30 	bl	8000378 <__aeabi_fmul>
 8000b18:	4603      	mov	r3, r0
 8000b1a:	607b      	str	r3, [r7, #4]
                float avg_freq_mhz = 0.0f;
 8000b1c:	f04f 0300 	mov.w	r3, #0
 8000b20:	623b      	str	r3, [r7, #32]
                uint8_t meas_status = 0;
 8000b22:	2300      	movs	r3, #0
 8000b24:	77fb      	strb	r3, [r7, #31]

                /* Проверяем минимальную паузу 1.5 мкс */
                if (period1_us >= 1.5f && period2_us >= 1.5f) {
 8000b26:	f04f 517f 	mov.w	r1, #1069547520	; 0x3fc00000
 8000b2a:	68b8      	ldr	r0, [r7, #8]
 8000b2c:	f7ff fdd6 	bl	80006dc <__aeabi_fcmpge>
 8000b30:	4603      	mov	r3, r0
 8000b32:	2b00      	cmp	r3, #0
 8000b34:	d029      	beq.n	8000b8a <main+0x43a>
 8000b36:	f04f 517f 	mov.w	r1, #1069547520	; 0x3fc00000
 8000b3a:	6878      	ldr	r0, [r7, #4]
 8000b3c:	f7ff fdce 	bl	80006dc <__aeabi_fcmpge>
 8000b40:	4603      	mov	r3, r0
 8000b42:	2b00      	cmp	r3, #0
 8000b44:	d021      	beq.n	8000b8a <main+0x43a>
                    float avg_period_us = (period1_us + period2_us) / 2.0f;
 8000b46:	6879      	ldr	r1, [r7, #4]
 8000b48:	68b8      	ldr	r0, [r7, #8]
 8000b4a:	f7ff fb0d 	bl	8000168 <__addsf3>
 8000b4e:	4603      	mov	r3, r0
 8000b50:	f04f 4180 	mov.w	r1, #1073741824	; 0x40000000
 8000b54:	4618      	mov	r0, r3
 8000b56:	f7ff fcc3 	bl	80004e0 <__aeabi_fdiv>
 8000b5a:	4603      	mov	r3, r0
 8000b5c:	603b      	str	r3, [r7, #0]
                    if (avg_period_us > 0.0f) {
 8000b5e:	f04f 0100 	mov.w	r1, #0
 8000b62:	6838      	ldr	r0, [r7, #0]
 8000b64:	f7ff fdc4 	bl	80006f0 <__aeabi_fcmpgt>
 8000b68:	4603      	mov	r3, r0
 8000b6a:	2b00      	cmp	r3, #0
 8000b6c:	d00d      	beq.n	8000b8a <main+0x43a>
                        avg_freq_mhz = 1.0f / (avg_period_us * 0.000001f);
 8000b6e:	491d      	ldr	r1, [pc, #116]	; (8000be4 <main+0x494>)
 8000b70:	6838      	ldr	r0, [r7, #0]
 8000b72:	f7ff fc01 	bl	8000378 <__aeabi_fmul>
 8000b76:	4603      	mov	r3, r0
 8000b78:	4619      	mov	r1, r3
 8000b7a:	f04f 507e 	mov.w	r0, #1065353216	; 0x3f800000
 8000b7e:	f7ff fcaf 	bl	80004e0 <__aeabi_fdiv>
 8000b82:	4603      	mov	r3, r0
 8000b84:	623b      	str	r3, [r7, #32]
                        meas_status = 1;
 8000b86:	2301      	movs	r3, #1
 8000b88:	77fb      	strb	r3, [r7, #31]
                    }
                }

                /* Обновляем ModBus регистры */
                ModBus_UpdateMeasurements(period1_us, period2_us, avg_freq_mhz, meas_status);
 8000b8a:	7ffb      	ldrb	r3, [r7, #31]
 8000b8c:	6a3a      	ldr	r2, [r7, #32]
 8000b8e:	6879      	ldr	r1, [r7, #4]
 8000b90:	68b8      	ldr	r0, [r7, #8]
 8000b92:	f001 fe51 	bl	8002838 <ModBus_UpdateMeasurements>

                /* Вывод результатов на отладку */
                print_results();
 8000b96:	f000 f917 	bl	8000dc8 <print_results>
            if (measurement_done && capture_index >= 3) {
 8000b9a:	e014      	b.n	8000bc6 <main+0x476>
            } else {
                /* Ошибка измерения частоты */
                USART2_Print("\r\nERROR: Measurement timeout, captures=");
 8000b9c:	4812      	ldr	r0, [pc, #72]	; (8000be8 <main+0x498>)
 8000b9e:	f002 f867 	bl	8002c70 <USART2_Print>
                USART2_PrintNum(capture_index);
 8000ba2:	4b0d      	ldr	r3, [pc, #52]	; (8000bd8 <main+0x488>)
 8000ba4:	781b      	ldrb	r3, [r3, #0]
 8000ba6:	b2db      	uxtb	r3, r3
 8000ba8:	4618      	mov	r0, r3
 8000baa:	f002 f879 	bl	8002ca0 <USART2_PrintNum>
                USART2_Print("\r\n");
 8000bae:	480f      	ldr	r0, [pc, #60]	; (8000bec <main+0x49c>)
 8000bb0:	f002 f85e 	bl	8002c70 <USART2_Print>

                /* Обнуление регистров измерений в ModBus */
                ModBus_UpdateMeasurements(0, 0, 0, 0);
 8000bb4:	2300      	movs	r3, #0
 8000bb6:	f04f 0200 	mov.w	r2, #0
 8000bba:	f04f 0100 	mov.w	r1, #0
 8000bbe:	f04f 0000 	mov.w	r0, #0
 8000bc2:	f001 fe39 	bl	8002838 <ModBus_UpdateMeasurements>
            }
        }

        /* Обработка ModBus */
        ModBus_Process();
 8000bc6:	f001 fde1 	bl	800278c <ModBus_Process>

        /* Минимальная задержка */
        HAL_Delay(1);
 8000bca:	2001      	movs	r0, #1
 8000bcc:	f002 fd8c 	bl	80036e8 <HAL_Delay>
    	HAL_Delay(100);
 8000bd0:	e695      	b.n	80008fe <main+0x1ae>
 8000bd2:	bf00      	nop
 8000bd4:	20000175 	.word	0x20000175
 8000bd8:	20000174 	.word	0x20000174
 8000bdc:	20000168 	.word	0x20000168
 8000be0:	3dc71c72 	.word	0x3dc71c72
 8000be4:	358637bd 	.word	0x358637bd
 8000be8:	08006c64 	.word	0x08006c64
 8000bec:	08006c8c 	.word	0x08006c8c

08000bf0 <HAL_UART_RxCpltCallback>:

/**
  * @brief  Callback завершения приема UART
  */
void HAL_UART_RxCpltCallback(UART_HandleTypeDef *huart)
{
 8000bf0:	b580      	push	{r7, lr}
 8000bf2:	b082      	sub	sp, #8
 8000bf4:	af00      	add	r7, sp, #0
 8000bf6:	6078      	str	r0, [r7, #4]
    if (huart->Instance == USART1) {
 8000bf8:	687b      	ldr	r3, [r7, #4]
 8000bfa:	681b      	ldr	r3, [r3, #0]
 8000bfc:	4a04      	ldr	r2, [pc, #16]	; (8000c10 <HAL_UART_RxCpltCallback+0x20>)
 8000bfe:	4293      	cmp	r3, r2
 8000c00:	d102      	bne.n	8000c08 <HAL_UART_RxCpltCallback+0x18>
        ModBus_RxCallback(huart);
 8000c02:	6878      	ldr	r0, [r7, #4]
 8000c04:	f001 fd52 	bl	80026ac <ModBus_RxCallback>
    }
}
 8000c08:	bf00      	nop
 8000c0a:	3708      	adds	r7, #8
 8000c0c:	46bd      	mov	sp, r7
 8000c0e:	bd80      	pop	{r7, pc}
 8000c10:	40013800 	.word	0x40013800

08000c14 <TIM3_InputCapture_Init>:

/**
  * @brief  Инициализация TIM3 для захвата частоты
  */
void TIM3_InputCapture_Init(void)
{
 8000c14:	b580      	push	{r7, lr}
 8000c16:	b088      	sub	sp, #32
 8000c18:	af00      	add	r7, sp, #0
    /* Включаем тактирование */
    __HAL_RCC_TIM3_CLK_ENABLE();
 8000c1a:	4b3e      	ldr	r3, [pc, #248]	; (8000d14 <TIM3_InputCapture_Init+0x100>)
 8000c1c:	69db      	ldr	r3, [r3, #28]
 8000c1e:	4a3d      	ldr	r2, [pc, #244]	; (8000d14 <TIM3_InputCapture_Init+0x100>)
 8000c20:	f043 0302 	orr.w	r3, r3, #2
 8000c24:	61d3      	str	r3, [r2, #28]
 8000c26:	4b3b      	ldr	r3, [pc, #236]	; (8000d14 <TIM3_InputCapture_Init+0x100>)
 8000c28:	69db      	ldr	r3, [r3, #28]
 8000c2a:	f003 0302 	and.w	r3, r3, #2
 8000c2e:	60bb      	str	r3, [r7, #8]
 8000c30:	68bb      	ldr	r3, [r7, #8]
    __HAL_RCC_GPIOB_CLK_ENABLE();
 8000c32:	4b38      	ldr	r3, [pc, #224]	; (8000d14 <TIM3_InputCapture_Init+0x100>)
 8000c34:	699b      	ldr	r3, [r3, #24]
 8000c36:	4a37      	ldr	r2, [pc, #220]	; (8000d14 <TIM3_InputCapture_Init+0x100>)
 8000c38:	f043 0308 	orr.w	r3, r3, #8
 8000c3c:	6193      	str	r3, [r2, #24]
 8000c3e:	4b35      	ldr	r3, [pc, #212]	; (8000d14 <TIM3_InputCapture_Init+0x100>)
 8000c40:	699b      	ldr	r3, [r3, #24]
 8000c42:	f003 0308 	and.w	r3, r3, #8
 8000c46:	607b      	str	r3, [r7, #4]
 8000c48:	687b      	ldr	r3, [r7, #4]
    __HAL_RCC_AFIO_CLK_ENABLE();
 8000c4a:	4b32      	ldr	r3, [pc, #200]	; (8000d14 <TIM3_InputCapture_Init+0x100>)
 8000c4c:	699b      	ldr	r3, [r3, #24]
 8000c4e:	4a31      	ldr	r2, [pc, #196]	; (8000d14 <TIM3_InputCapture_Init+0x100>)
 8000c50:	f043 0301 	orr.w	r3, r3, #1
 8000c54:	6193      	str	r3, [r2, #24]
 8000c56:	4b2f      	ldr	r3, [pc, #188]	; (8000d14 <TIM3_InputCapture_Init+0x100>)
 8000c58:	699b      	ldr	r3, [r3, #24]
 8000c5a:	f003 0301 	and.w	r3, r3, #1
 8000c5e:	603b      	str	r3, [r7, #0]
 8000c60:	683b      	ldr	r3, [r7, #0]

    /* Частичное перемаппирование TIM3 для PB1 (TIM3_CH4) */
    __HAL_AFIO_REMAP_TIM3_PARTIAL();
 8000c62:	4b2d      	ldr	r3, [pc, #180]	; (8000d18 <TIM3_InputCapture_Init+0x104>)
 8000c64:	685b      	ldr	r3, [r3, #4]
 8000c66:	61fb      	str	r3, [r7, #28]
 8000c68:	69fb      	ldr	r3, [r7, #28]
 8000c6a:	f423 6340 	bic.w	r3, r3, #3072	; 0xc00
 8000c6e:	61fb      	str	r3, [r7, #28]
 8000c70:	69fb      	ldr	r3, [r7, #28]
 8000c72:	f043 63e0 	orr.w	r3, r3, #117440512	; 0x7000000
 8000c76:	61fb      	str	r3, [r7, #28]
 8000c78:	69fb      	ldr	r3, [r7, #28]
 8000c7a:	f443 6300 	orr.w	r3, r3, #2048	; 0x800
 8000c7e:	61fb      	str	r3, [r7, #28]
 8000c80:	4a25      	ldr	r2, [pc, #148]	; (8000d18 <TIM3_InputCapture_Init+0x104>)
 8000c82:	69fb      	ldr	r3, [r7, #28]
 8000c84:	6053      	str	r3, [r2, #4]

    /* Настройка GPIO для PB1 (вход захвата) */
    GPIO_InitTypeDef GPIO_InitStruct = {0};
 8000c86:	f107 030c 	add.w	r3, r7, #12
 8000c8a:	2200      	movs	r2, #0
 8000c8c:	601a      	str	r2, [r3, #0]
 8000c8e:	605a      	str	r2, [r3, #4]
 8000c90:	609a      	str	r2, [r3, #8]
 8000c92:	60da      	str	r2, [r3, #12]
    GPIO_InitStruct.Pin = GPIO_PIN_1;
 8000c94:	2302      	movs	r3, #2
 8000c96:	60fb      	str	r3, [r7, #12]
    GPIO_InitStruct.Mode = GPIO_MODE_INPUT;
 8000c98:	2300      	movs	r3, #0
 8000c9a:	613b      	str	r3, [r7, #16]
    GPIO_InitStruct.Pull = GPIO_NOPULL;
 8000c9c:	2300      	movs	r3, #0
 8000c9e:	617b      	str	r3, [r7, #20]
    GPIO_InitStruct.Speed = GPIO_SPEED_FREQ_HIGH;
 8000ca0:	2303      	movs	r3, #3
 8000ca2:	61bb      	str	r3, [r7, #24]
    HAL_GPIO_Init(GPIOB, &GPIO_InitStruct);
 8000ca4:	f107 030c 	add.w	r3, r7, #12
 8000ca8:	4619      	mov	r1, r3
 8000caa:	481c      	ldr	r0, [pc, #112]	; (8000d1c <TIM3_InputCapture_Init+0x108>)
 8000cac:	f003 fce2 	bl	8004674 <HAL_GPIO_Init>

    /* Сброс таймера */
    TIM3->CR1 = 0;
 8000cb0:	4b1b      	ldr	r3, [pc, #108]	; (8000d20 <TIM3_InputCapture_Init+0x10c>)
 8000cb2:	2200      	movs	r2, #0
 8000cb4:	601a      	str	r2, [r3, #0]
    TIM3->CR2 = 0;
 8000cb6:	4b1a      	ldr	r3, [pc, #104]	; (8000d20 <TIM3_InputCapture_Init+0x10c>)
 8000cb8:	2200      	movs	r2, #0
 8000cba:	605a      	str	r2, [r3, #4]
    TIM3->PSC = 6;          /* Предделитель: 72MHz / (6+1) = 10.2857MHz */
 8000cbc:	4b18      	ldr	r3, [pc, #96]	; (8000d20 <TIM3_InputCapture_Init+0x10c>)
 8000cbe:	2206      	movs	r2, #6
 8000cc0:	629a      	str	r2, [r3, #40]	; 0x28
    TIM3->ARR = 0xFFFF;     /* Максимальный период */
 8000cc2:	4b17      	ldr	r3, [pc, #92]	; (8000d20 <TIM3_InputCapture_Init+0x10c>)
 8000cc4:	f64f 72ff 	movw	r2, #65535	; 0xffff
 8000cc8:	62da      	str	r2, [r3, #44]	; 0x2c
    TIM3->CNT = 0;
 8000cca:	4b15      	ldr	r3, [pc, #84]	; (8000d20 <TIM3_InputCapture_Init+0x10c>)
 8000ccc:	2200      	movs	r2, #0
 8000cce:	625a      	str	r2, [r3, #36]	; 0x24

    /* Применяем настройки (генерируем событие обновления) */
    TIM3->EGR = TIM_EGR_UG;
 8000cd0:	4b13      	ldr	r3, [pc, #76]	; (8000d20 <TIM3_InputCapture_Init+0x10c>)
 8000cd2:	2201      	movs	r2, #1
 8000cd4:	615a      	str	r2, [r3, #20]

    /* Настройка канала 4 (PB1) для захвата по фронту */
    TIM3->CCMR2 = TIM_CCMR2_CC4S_0; /* CC4S = 01 (вход TI4) */
 8000cd6:	4b12      	ldr	r3, [pc, #72]	; (8000d20 <TIM3_InputCapture_Init+0x10c>)
 8000cd8:	f44f 7280 	mov.w	r2, #256	; 0x100
 8000cdc:	61da      	str	r2, [r3, #28]
    TIM3->CCMR2 &= ~(0xF << 12);    /* Очистка битов фильтра */
 8000cde:	4b10      	ldr	r3, [pc, #64]	; (8000d20 <TIM3_InputCapture_Init+0x10c>)
 8000ce0:	69db      	ldr	r3, [r3, #28]
 8000ce2:	4a0f      	ldr	r2, [pc, #60]	; (8000d20 <TIM3_InputCapture_Init+0x10c>)
 8000ce4:	f423 4370 	bic.w	r3, r3, #61440	; 0xf000
 8000ce8:	61d3      	str	r3, [r2, #28]
    TIM3->CCMR2 &= ~(0x3 << 10);    /* Без предделителя */
 8000cea:	4b0d      	ldr	r3, [pc, #52]	; (8000d20 <TIM3_InputCapture_Init+0x10c>)
 8000cec:	69db      	ldr	r3, [r3, #28]
 8000cee:	4a0c      	ldr	r2, [pc, #48]	; (8000d20 <TIM3_InputCapture_Init+0x10c>)
 8000cf0:	f423 6340 	bic.w	r3, r3, #3072	; 0xc00
 8000cf4:	61d3      	str	r3, [r2, #28]

    /* Включаем захват по фронту (без инверсии) */
    TIM3->CCER = TIM_CCER_CC4E;
 8000cf6:	4b0a      	ldr	r3, [pc, #40]	; (8000d20 <TIM3_InputCapture_Init+0x10c>)
 8000cf8:	f44f 5280 	mov.w	r2, #4096	; 0x1000
 8000cfc:	621a      	str	r2, [r3, #32]

    /* Включаем прерывание по захвату */
    TIM3->DIER = TIM_DIER_CC4IE;
 8000cfe:	4b08      	ldr	r3, [pc, #32]	; (8000d20 <TIM3_InputCapture_Init+0x10c>)
 8000d00:	2210      	movs	r2, #16
 8000d02:	60da      	str	r2, [r3, #12]

    /* Очищаем все флаги прерываний */
    TIM3->SR = 0;
 8000d04:	4b06      	ldr	r3, [pc, #24]	; (8000d20 <TIM3_InputCapture_Init+0x10c>)
 8000d06:	2200      	movs	r2, #0
 8000d08:	611a      	str	r2, [r3, #16]
}
 8000d0a:	bf00      	nop
 8000d0c:	3720      	adds	r7, #32
 8000d0e:	46bd      	mov	sp, r7
 8000d10:	bd80      	pop	{r7, pc}
 8000d12:	bf00      	nop
 8000d14:	40021000 	.word	0x40021000
 8000d18:	40010000 	.word	0x40010000
 8000d1c:	40010c00 	.word	0x40010c00
 8000d20:	40000400 	.word	0x40000400

08000d24 <start_capture>:

/**
  * @brief  Начало захвата частоты
  */
void start_capture(void)
{
 8000d24:	b480      	push	{r7}
 8000d26:	af00      	add	r7, sp, #0
    /* Сброс переменных */
    capture_index = 0;
 8000d28:	4b0f      	ldr	r3, [pc, #60]	; (8000d68 <start_capture+0x44>)
 8000d2a:	2200      	movs	r2, #0
 8000d2c:	701a      	strb	r2, [r3, #0]
    measurement_done = 0;
 8000d2e:	4b0f      	ldr	r3, [pc, #60]	; (8000d6c <start_capture+0x48>)
 8000d30:	2200      	movs	r2, #0
 8000d32:	701a      	strb	r2, [r3, #0]
    last_capture = 0;
 8000d34:	4b0e      	ldr	r3, [pc, #56]	; (8000d70 <start_capture+0x4c>)
 8000d36:	2200      	movs	r2, #0
 8000d38:	801a      	strh	r2, [r3, #0]

    /* Очищаем флаги прерываний */
    TIM3->SR = 0;
 8000d3a:	4b0e      	ldr	r3, [pc, #56]	; (8000d74 <start_capture+0x50>)
 8000d3c:	2200      	movs	r2, #0
 8000d3e:	611a      	str	r2, [r3, #16]

    /* Сбрасываем счетчик */
    TIM3->CNT = 0;
 8000d40:	4b0c      	ldr	r3, [pc, #48]	; (8000d74 <start_capture+0x50>)
 8000d42:	2200      	movs	r2, #0
 8000d44:	625a      	str	r2, [r3, #36]	; 0x24

    /* Включаем прерывание захвата */
    TIM3->DIER |= TIM_DIER_CC4IE;
 8000d46:	4b0b      	ldr	r3, [pc, #44]	; (8000d74 <start_capture+0x50>)
 8000d48:	68db      	ldr	r3, [r3, #12]
 8000d4a:	4a0a      	ldr	r2, [pc, #40]	; (8000d74 <start_capture+0x50>)
 8000d4c:	f043 0310 	orr.w	r3, r3, #16
 8000d50:	60d3      	str	r3, [r2, #12]

    /* Запускаем таймер */
    TIM3->CR1 |= TIM_CR1_CEN;
 8000d52:	4b08      	ldr	r3, [pc, #32]	; (8000d74 <start_capture+0x50>)
 8000d54:	681b      	ldr	r3, [r3, #0]
 8000d56:	4a07      	ldr	r2, [pc, #28]	; (8000d74 <start_capture+0x50>)
 8000d58:	f043 0301 	orr.w	r3, r3, #1
 8000d5c:	6013      	str	r3, [r2, #0]
}
 8000d5e:	bf00      	nop
 8000d60:	46bd      	mov	sp, r7
 8000d62:	bc80      	pop	{r7}
 8000d64:	4770      	bx	lr
 8000d66:	bf00      	nop
 8000d68:	20000174 	.word	0x20000174
 8000d6c:	20000175 	.word	0x20000175
 8000d70:	20000176 	.word	0x20000176
 8000d74:	40000400 	.word	0x40000400

08000d78 <reset_capture>:

/**
  * @brief  Сброс состояния захвата
  */
void reset_capture(void)
{
 8000d78:	b480      	push	{r7}
 8000d7a:	b083      	sub	sp, #12
 8000d7c:	af00      	add	r7, sp, #0
    capture_index = 0;
 8000d7e:	4b0e      	ldr	r3, [pc, #56]	; (8000db8 <reset_capture+0x40>)
 8000d80:	2200      	movs	r2, #0
 8000d82:	701a      	strb	r2, [r3, #0]
    measurement_done = 0;
 8000d84:	4b0d      	ldr	r3, [pc, #52]	; (8000dbc <reset_capture+0x44>)
 8000d86:	2200      	movs	r2, #0
 8000d88:	701a      	strb	r2, [r3, #0]
    last_capture = 0;
 8000d8a:	4b0d      	ldr	r3, [pc, #52]	; (8000dc0 <reset_capture+0x48>)
 8000d8c:	2200      	movs	r2, #0
 8000d8e:	801a      	strh	r2, [r3, #0]
    for (int i = 0; i < 3; i++) capture_times[i] = 0;
 8000d90:	2300      	movs	r3, #0
 8000d92:	607b      	str	r3, [r7, #4]
 8000d94:	e007      	b.n	8000da6 <reset_capture+0x2e>
 8000d96:	4a0b      	ldr	r2, [pc, #44]	; (8000dc4 <reset_capture+0x4c>)
 8000d98:	687b      	ldr	r3, [r7, #4]
 8000d9a:	2100      	movs	r1, #0
 8000d9c:	f842 1023 	str.w	r1, [r2, r3, lsl #2]
 8000da0:	687b      	ldr	r3, [r7, #4]
 8000da2:	3301      	adds	r3, #1
 8000da4:	607b      	str	r3, [r7, #4]
 8000da6:	687b      	ldr	r3, [r7, #4]
 8000da8:	2b02      	cmp	r3, #2
 8000daa:	ddf4      	ble.n	8000d96 <reset_capture+0x1e>
}
 8000dac:	bf00      	nop
 8000dae:	bf00      	nop
 8000db0:	370c      	adds	r7, #12
 8000db2:	46bd      	mov	sp, r7
 8000db4:	bc80      	pop	{r7}
 8000db6:	4770      	bx	lr
 8000db8:	20000174 	.word	0x20000174
 8000dbc:	20000175 	.word	0x20000175
 8000dc0:	20000176 	.word	0x20000176
 8000dc4:	20000168 	.word	0x20000168

08000dc8 <print_results>:

/**
  * @brief  Вывод результатов измерения частоты
  */
void print_results(void)
{
 8000dc8:	b580      	push	{r7, lr}
 8000dca:	b088      	sub	sp, #32
 8000dcc:	af00      	add	r7, sp, #0
    /* Периоды в тиках */
    uint32_t period1_ticks = capture_times[1] - capture_times[0];
 8000dce:	4b66      	ldr	r3, [pc, #408]	; (8000f68 <print_results+0x1a0>)
 8000dd0:	685a      	ldr	r2, [r3, #4]
 8000dd2:	4b65      	ldr	r3, [pc, #404]	; (8000f68 <print_results+0x1a0>)
 8000dd4:	681b      	ldr	r3, [r3, #0]
 8000dd6:	1ad3      	subs	r3, r2, r3
 8000dd8:	61fb      	str	r3, [r7, #28]
    uint32_t period2_ticks = capture_times[2] - capture_times[1];
 8000dda:	4b63      	ldr	r3, [pc, #396]	; (8000f68 <print_results+0x1a0>)
 8000ddc:	689a      	ldr	r2, [r3, #8]
 8000dde:	4b62      	ldr	r3, [pc, #392]	; (8000f68 <print_results+0x1a0>)
 8000de0:	685b      	ldr	r3, [r3, #4]
 8000de2:	1ad3      	subs	r3, r2, r3
 8000de4:	61bb      	str	r3, [r7, #24]

    /* Разрешение таймера: 1/(72MHz/(PSC+1)) = 1/10.2857MHz = 0.09722 мкс */
    float tick_duration_us = 1000000.0f / (TIMER_CLOCK_HZ / 7.0f);
 8000de6:	4b61      	ldr	r3, [pc, #388]	; (8000f6c <print_results+0x1a4>)
 8000de8:	617b      	str	r3, [r7, #20]
    float period1_us = period1_ticks * tick_duration_us;
 8000dea:	69f8      	ldr	r0, [r7, #28]
 8000dec:	f7ff fa6c 	bl	80002c8 <__aeabi_ui2f>
 8000df0:	4603      	mov	r3, r0
 8000df2:	4619      	mov	r1, r3
 8000df4:	6978      	ldr	r0, [r7, #20]
 8000df6:	f7ff fabf 	bl	8000378 <__aeabi_fmul>
 8000dfa:	4603      	mov	r3, r0
 8000dfc:	613b      	str	r3, [r7, #16]
    float period2_us = period2_ticks * tick_duration_us;
 8000dfe:	69b8      	ldr	r0, [r7, #24]
 8000e00:	f7ff fa62 	bl	80002c8 <__aeabi_ui2f>
 8000e04:	4603      	mov	r3, r0
 8000e06:	4619      	mov	r1, r3
 8000e08:	6978      	ldr	r0, [r7, #20]
 8000e0a:	f7ff fab5 	bl	8000378 <__aeabi_fmul>
 8000e0e:	4603      	mov	r3, r0
 8000e10:	60fb      	str	r3, [r7, #12]

    USART2_Print("\r\n--- FREQUENCY MEASUREMENT ---\r\n");
 8000e12:	4857      	ldr	r0, [pc, #348]	; (8000f70 <print_results+0x1a8>)
 8000e14:	f001 ff2c 	bl	8002c70 <USART2_Print>

    /* Отладочный вывод тиков */
    USART2_Print("Period1: ");
 8000e18:	4856      	ldr	r0, [pc, #344]	; (8000f74 <print_results+0x1ac>)
 8000e1a:	f001 ff29 	bl	8002c70 <USART2_Print>
    USART2_PrintNum(period1_ticks);
 8000e1e:	69f8      	ldr	r0, [r7, #28]
 8000e20:	f001 ff3e 	bl	8002ca0 <USART2_PrintNum>
    USART2_Print(" ticks, Period2: ");
 8000e24:	4854      	ldr	r0, [pc, #336]	; (8000f78 <print_results+0x1b0>)
 8000e26:	f001 ff23 	bl	8002c70 <USART2_Print>
    USART2_PrintNum(period2_ticks);
 8000e2a:	69b8      	ldr	r0, [r7, #24]
 8000e2c:	f001 ff38 	bl	8002ca0 <USART2_PrintNum>
    USART2_Print(" ticks\r\n");
 8000e30:	4852      	ldr	r0, [pc, #328]	; (8000f7c <print_results+0x1b4>)
 8000e32:	f001 ff1d 	bl	8002c70 <USART2_Print>

    /* Проверка на минимальную паузу 1.5 мкс */
    USART2_Print("Period 1-2: ");
 8000e36:	4852      	ldr	r0, [pc, #328]	; (8000f80 <print_results+0x1b8>)
 8000e38:	f001 ff1a 	bl	8002c70 <USART2_Print>
    if (period1_us < 1.5f) {
 8000e3c:	f04f 517f 	mov.w	r1, #1069547520	; 0x3fc00000
 8000e40:	6938      	ldr	r0, [r7, #16]
 8000e42:	f7ff fc37 	bl	80006b4 <__aeabi_fcmplt>
 8000e46:	4603      	mov	r3, r0
 8000e48:	2b00      	cmp	r3, #0
 8000e4a:	d00e      	beq.n	8000e6a <print_results+0xa2>
        USART2_Print("<1.5 us (");
 8000e4c:	484d      	ldr	r0, [pc, #308]	; (8000f84 <print_results+0x1bc>)
 8000e4e:	f001 ff0f 	bl	8002c70 <USART2_Print>
        float_to_str(period1_us, float_buffer, 3);
 8000e52:	2203      	movs	r2, #3
 8000e54:	494c      	ldr	r1, [pc, #304]	; (8000f88 <print_results+0x1c0>)
 8000e56:	6938      	ldr	r0, [r7, #16]
 8000e58:	f002 fad4 	bl	8003404 <float_to_str>
        USART2_Print(float_buffer);
 8000e5c:	484a      	ldr	r0, [pc, #296]	; (8000f88 <print_results+0x1c0>)
 8000e5e:	f001 ff07 	bl	8002c70 <USART2_Print>
        USART2_Print(" us)\r\n");
 8000e62:	484a      	ldr	r0, [pc, #296]	; (8000f8c <print_results+0x1c4>)
 8000e64:	f001 ff04 	bl	8002c70 <USART2_Print>
 8000e68:	e00a      	b.n	8000e80 <print_results+0xb8>
    } else {
        float_to_str(period1_us, float_buffer, 3);
 8000e6a:	2203      	movs	r2, #3
 8000e6c:	4946      	ldr	r1, [pc, #280]	; (8000f88 <print_results+0x1c0>)
 8000e6e:	6938      	ldr	r0, [r7, #16]
 8000e70:	f002 fac8 	bl	8003404 <float_to_str>
        USART2_Print(float_buffer);
 8000e74:	4844      	ldr	r0, [pc, #272]	; (8000f88 <print_results+0x1c0>)
 8000e76:	f001 fefb 	bl	8002c70 <USART2_Print>
        USART2_Print(" us\r\n");
 8000e7a:	4845      	ldr	r0, [pc, #276]	; (8000f90 <print_results+0x1c8>)
 8000e7c:	f001 fef8 	bl	8002c70 <USART2_Print>
    }

    USART2_Print("Period 2-3: ");
 8000e80:	4844      	ldr	r0, [pc, #272]	; (8000f94 <print_results+0x1cc>)
 8000e82:	f001 fef5 	bl	8002c70 <USART2_Print>
    if (period2_us < 1.5f) {
 8000e86:	f04f 517f 	mov.w	r1, #1069547520	; 0x3fc00000
 8000e8a:	68f8      	ldr	r0, [r7, #12]
 8000e8c:	f7ff fc12 	bl	80006b4 <__aeabi_fcmplt>
 8000e90:	4603      	mov	r3, r0
 8000e92:	2b00      	cmp	r3, #0
 8000e94:	d00e      	beq.n	8000eb4 <print_results+0xec>
        USART2_Print("<1.5 us (");
 8000e96:	483b      	ldr	r0, [pc, #236]	; (8000f84 <print_results+0x1bc>)
 8000e98:	f001 feea 	bl	8002c70 <USART2_Print>
        float_to_str(period2_us, float_buffer, 3);
 8000e9c:	2203      	movs	r2, #3
 8000e9e:	493a      	ldr	r1, [pc, #232]	; (8000f88 <print_results+0x1c0>)
 8000ea0:	68f8      	ldr	r0, [r7, #12]
 8000ea2:	f002 faaf 	bl	8003404 <float_to_str>
        USART2_Print(float_buffer);
 8000ea6:	4838      	ldr	r0, [pc, #224]	; (8000f88 <print_results+0x1c0>)
 8000ea8:	f001 fee2 	bl	8002c70 <USART2_Print>
        USART2_Print(" us)\r\n");
 8000eac:	4837      	ldr	r0, [pc, #220]	; (8000f8c <print_results+0x1c4>)
 8000eae:	f001 fedf 	bl	8002c70 <USART2_Print>
 8000eb2:	e00a      	b.n	8000eca <print_results+0x102>
    } else {
        float_to_str(period2_us, float_buffer, 3);
 8000eb4:	2203      	movs	r2, #3
 8000eb6:	4934      	ldr	r1, [pc, #208]	; (8000f88 <print_results+0x1c0>)
 8000eb8:	68f8      	ldr	r0, [r7, #12]
 8000eba:	f002 faa3 	bl	8003404 <float_to_str>
        USART2_Print(float_buffer);
 8000ebe:	4832      	ldr	r0, [pc, #200]	; (8000f88 <print_results+0x1c0>)
 8000ec0:	f001 fed6 	bl	8002c70 <USART2_Print>
        USART2_Print(" us\r\n");
 8000ec4:	4832      	ldr	r0, [pc, #200]	; (8000f90 <print_results+0x1c8>)
 8000ec6:	f001 fed3 	bl	8002c70 <USART2_Print>
    }

    /* Средний период (только если обе паузы >= 1.5 мкс) */
    if (period1_us >= 1.5f && period2_us >= 1.5f) {
 8000eca:	f04f 517f 	mov.w	r1, #1069547520	; 0x3fc00000
 8000ece:	6938      	ldr	r0, [r7, #16]
 8000ed0:	f7ff fc04 	bl	80006dc <__aeabi_fcmpge>
 8000ed4:	4603      	mov	r3, r0
 8000ed6:	2b00      	cmp	r3, #0
 8000ed8:	d03d      	beq.n	8000f56 <print_results+0x18e>
 8000eda:	f04f 517f 	mov.w	r1, #1069547520	; 0x3fc00000
 8000ede:	68f8      	ldr	r0, [r7, #12]
 8000ee0:	f7ff fbfc 	bl	80006dc <__aeabi_fcmpge>
 8000ee4:	4603      	mov	r3, r0
 8000ee6:	2b00      	cmp	r3, #0
 8000ee8:	d035      	beq.n	8000f56 <print_results+0x18e>
        float avg_period_us = (period1_us + period2_us) / 2.0f;
 8000eea:	68f9      	ldr	r1, [r7, #12]
 8000eec:	6938      	ldr	r0, [r7, #16]
 8000eee:	f7ff f93b 	bl	8000168 <__addsf3>
 8000ef2:	4603      	mov	r3, r0
 8000ef4:	f04f 4180 	mov.w	r1, #1073741824	; 0x40000000
 8000ef8:	4618      	mov	r0, r3
 8000efa:	f7ff faf1 	bl	80004e0 <__aeabi_fdiv>
 8000efe:	4603      	mov	r3, r0
 8000f00:	60bb      	str	r3, [r7, #8]
        if (avg_period_us > 0.0f) {
 8000f02:	f04f 0100 	mov.w	r1, #0
 8000f06:	68b8      	ldr	r0, [r7, #8]
 8000f08:	f7ff fbf2 	bl	80006f0 <__aeabi_fcmpgt>
 8000f0c:	4603      	mov	r3, r0
 8000f0e:	2b00      	cmp	r3, #0
 8000f10:	d100      	bne.n	8000f14 <print_results+0x14c>
    if (period1_us >= 1.5f && period2_us >= 1.5f) {
 8000f12:	e024      	b.n	8000f5e <print_results+0x196>
        	float avg_freq_hz = 1.0f / (avg_period_us * 0.000001f);   // Частота в Гц
 8000f14:	4920      	ldr	r1, [pc, #128]	; (8000f98 <print_results+0x1d0>)
 8000f16:	68b8      	ldr	r0, [r7, #8]
 8000f18:	f7ff fa2e 	bl	8000378 <__aeabi_fmul>
 8000f1c:	4603      	mov	r3, r0
 8000f1e:	4619      	mov	r1, r3
 8000f20:	f04f 507e 	mov.w	r0, #1065353216	; 0x3f800000
 8000f24:	f7ff fadc 	bl	80004e0 <__aeabi_fdiv>
 8000f28:	4603      	mov	r3, r0
 8000f2a:	607b      	str	r3, [r7, #4]
        	float avg_freq_MHz = avg_freq_hz / 1000000.0f;            // Перевод в МГц
 8000f2c:	491b      	ldr	r1, [pc, #108]	; (8000f9c <print_results+0x1d4>)
 8000f2e:	6878      	ldr	r0, [r7, #4]
 8000f30:	f7ff fad6 	bl	80004e0 <__aeabi_fdiv>
 8000f34:	4603      	mov	r3, r0
 8000f36:	603b      	str	r3, [r7, #0]
            USART2_Print("Avg frequency: ");
 8000f38:	4819      	ldr	r0, [pc, #100]	; (8000fa0 <print_results+0x1d8>)
 8000f3a:	f001 fe99 	bl	8002c70 <USART2_Print>
            float_to_str(avg_freq_MHz, float_buffer, 3);
 8000f3e:	2203      	movs	r2, #3
 8000f40:	4911      	ldr	r1, [pc, #68]	; (8000f88 <print_results+0x1c0>)
 8000f42:	6838      	ldr	r0, [r7, #0]
 8000f44:	f002 fa5e 	bl	8003404 <float_to_str>
            USART2_Print(float_buffer);
 8000f48:	480f      	ldr	r0, [pc, #60]	; (8000f88 <print_results+0x1c0>)
 8000f4a:	f001 fe91 	bl	8002c70 <USART2_Print>
            USART2_Print(" MHz\r\n");
 8000f4e:	4815      	ldr	r0, [pc, #84]	; (8000fa4 <print_results+0x1dc>)
 8000f50:	f001 fe8e 	bl	8002c70 <USART2_Print>
    if (period1_us >= 1.5f && period2_us >= 1.5f) {
 8000f54:	e003      	b.n	8000f5e <print_results+0x196>
        }
    } else {
        USART2_Print("Avg frequency: NOT CALCULATED (period < 1.5 us)\r\n");
 8000f56:	4814      	ldr	r0, [pc, #80]	; (8000fa8 <print_results+0x1e0>)
 8000f58:	f001 fe8a 	bl	8002c70 <USART2_Print>
    }
}
 8000f5c:	bf00      	nop
 8000f5e:	bf00      	nop
 8000f60:	3720      	adds	r7, #32
 8000f62:	46bd      	mov	sp, r7
 8000f64:	bd80      	pop	{r7, pc}
 8000f66:	bf00      	nop
 8000f68:	20000168 	.word	0x20000168
 8000f6c:	3dc71c72 	.word	0x3dc71c72
 8000f70:	08006c90 	.word	0x08006c90
 8000f74:	08006cb4 	.word	0x08006cb4
 8000f78:	08006cc0 	.word	0x08006cc0
 8000f7c:	08006cd4 	.word	0x08006cd4
 8000f80:	08006ce0 	.word	0x08006ce0
 8000f84:	08006cf0 	.word	0x08006cf0
 8000f88:	2000017c 	.word	0x2000017c
 8000f8c:	08006cfc 	.word	0x08006cfc
 8000f90:	08006d04 	.word	0x08006d04
 8000f94:	08006d0c 	.word	0x08006d0c
 8000f98:	358637bd 	.word	0x358637bd
 8000f9c:	49742400 	.word	0x49742400
 8000fa0:	08006d1c 	.word	0x08006d1c
 8000fa4:	08006d2c 	.word	0x08006d2c
 8000fa8:	08006d34 	.word	0x08006d34

08000fac <TIM4_PWM_Init_Simple>:

/**
  * @brief  ПРОСТАЯ инициализация TIM4 для генерации импульсов на PB5
  */
void TIM4_PWM_Init_Simple(void)
{
 8000fac:	b480      	push	{r7}
 8000fae:	b083      	sub	sp, #12
 8000fb0:	af00      	add	r7, sp, #0
    /* Включаем тактирование TIM4 */
    __HAL_RCC_TIM4_CLK_ENABLE();
 8000fb2:	4b25      	ldr	r3, [pc, #148]	; (8001048 <TIM4_PWM_Init_Simple+0x9c>)
 8000fb4:	69db      	ldr	r3, [r3, #28]
 8000fb6:	4a24      	ldr	r2, [pc, #144]	; (8001048 <TIM4_PWM_Init_Simple+0x9c>)
 8000fb8:	f043 0304 	orr.w	r3, r3, #4
 8000fbc:	61d3      	str	r3, [r2, #28]
 8000fbe:	4b22      	ldr	r3, [pc, #136]	; (8001048 <TIM4_PWM_Init_Simple+0x9c>)
 8000fc0:	69db      	ldr	r3, [r3, #28]
 8000fc2:	f003 0304 	and.w	r3, r3, #4
 8000fc6:	607b      	str	r3, [r7, #4]
 8000fc8:	687b      	ldr	r3, [r7, #4]

    /* Настройка таймера вручную */
    TIM4->CR1 = 0;
 8000fca:	4b20      	ldr	r3, [pc, #128]	; (800104c <TIM4_PWM_Init_Simple+0xa0>)
 8000fcc:	2200      	movs	r2, #0
 8000fce:	601a      	str	r2, [r3, #0]
    TIM4->CR2 = 0;
 8000fd0:	4b1e      	ldr	r3, [pc, #120]	; (800104c <TIM4_PWM_Init_Simple+0xa0>)
 8000fd2:	2200      	movs	r2, #0
 8000fd4:	605a      	str	r2, [r3, #4]
    TIM4->PSC = 72 - 1;        // Предделитель: 72MHz / 72 = 1MHz (1 тик = 1 мкс)
 8000fd6:	4b1d      	ldr	r3, [pc, #116]	; (800104c <TIM4_PWM_Init_Simple+0xa0>)
 8000fd8:	2247      	movs	r2, #71	; 0x47
 8000fda:	629a      	str	r2, [r3, #40]	; 0x28
    TIM4->ARR = 100000 - 1;    // Период: 100000 мкс = 100 мс (10 Гц)
 8000fdc:	4b1b      	ldr	r3, [pc, #108]	; (800104c <TIM4_PWM_Init_Simple+0xa0>)
 8000fde:	4a1c      	ldr	r2, [pc, #112]	; (8001050 <TIM4_PWM_Init_Simple+0xa4>)
 8000fe0:	62da      	str	r2, [r3, #44]	; 0x2c
    TIM4->CNT = 0;
 8000fe2:	4b1a      	ldr	r3, [pc, #104]	; (800104c <TIM4_PWM_Init_Simple+0xa0>)
 8000fe4:	2200      	movs	r2, #0
 8000fe6:	625a      	str	r2, [r3, #36]	; 0x24
    /* Давайте используем PB6 (TIM4_CH1) или PB7 (TIM4_CH2) */
    // Я выберу PB6 (TIM4_CH1) для простоты
    // Но сначала проверим, что в MX_GPIO_Init настроен PB5 как выход

    /* Настраиваем канал 1 в режиме PWM1 */
    TIM4->CCMR1 &= ~TIM_CCMR1_OC1M;
 8000fe8:	4b18      	ldr	r3, [pc, #96]	; (800104c <TIM4_PWM_Init_Simple+0xa0>)
 8000fea:	699b      	ldr	r3, [r3, #24]
 8000fec:	4a17      	ldr	r2, [pc, #92]	; (800104c <TIM4_PWM_Init_Simple+0xa0>)
 8000fee:	f023 0370 	bic.w	r3, r3, #112	; 0x70
 8000ff2:	6193      	str	r3, [r2, #24]
    TIM4->CCMR1 |= (0x6 << 4);  // PWM mode 1
 8000ff4:	4b15      	ldr	r3, [pc, #84]	; (800104c <TIM4_PWM_Init_Simple+0xa0>)
 8000ff6:	699b      	ldr	r3, [r3, #24]
 8000ff8:	4a14      	ldr	r2, [pc, #80]	; (800104c <TIM4_PWM_Init_Simple+0xa0>)
 8000ffa:	f043 0360 	orr.w	r3, r3, #96	; 0x60
 8000ffe:	6193      	str	r3, [r2, #24]
    TIM4->CCMR1 |= TIM_CCMR1_OC1PE;  // Preload enable
 8001000:	4b12      	ldr	r3, [pc, #72]	; (800104c <TIM4_PWM_Init_Simple+0xa0>)
 8001002:	699b      	ldr	r3, [r3, #24]
 8001004:	4a11      	ldr	r2, [pc, #68]	; (800104c <TIM4_PWM_Init_Simple+0xa0>)
 8001006:	f043 0308 	orr.w	r3, r3, #8
 800100a:	6193      	str	r3, [r2, #24]

    /* Настраиваем выход */
    TIM4->CCER |= TIM_CCER_CC1E;  // Включаем канал 1
 800100c:	4b0f      	ldr	r3, [pc, #60]	; (800104c <TIM4_PWM_Init_Simple+0xa0>)
 800100e:	6a1b      	ldr	r3, [r3, #32]
 8001010:	4a0e      	ldr	r2, [pc, #56]	; (800104c <TIM4_PWM_Init_Simple+0xa0>)
 8001012:	f043 0301 	orr.w	r3, r3, #1
 8001016:	6213      	str	r3, [r2, #32]
    TIM4->CCER &= ~TIM_CCER_CC1P; // Активный высокий уровень
 8001018:	4b0c      	ldr	r3, [pc, #48]	; (800104c <TIM4_PWM_Init_Simple+0xa0>)
 800101a:	6a1b      	ldr	r3, [r3, #32]
 800101c:	4a0b      	ldr	r2, [pc, #44]	; (800104c <TIM4_PWM_Init_Simple+0xa0>)
 800101e:	f023 0302 	bic.w	r3, r3, #2
 8001022:	6213      	str	r3, [r2, #32]

    /* Устанавливаем ширину импульса: 10 мкс */
    TIM4->CCR1 = 10 - 1;  // 10 мкс импульс
 8001024:	4b09      	ldr	r3, [pc, #36]	; (800104c <TIM4_PWM_Init_Simple+0xa0>)
 8001026:	2209      	movs	r2, #9
 8001028:	635a      	str	r2, [r3, #52]	; 0x34

    /* Включаем предзагрузку ARR */
    TIM4->CR1 |= TIM_CR1_ARPE;
 800102a:	4b08      	ldr	r3, [pc, #32]	; (800104c <TIM4_PWM_Init_Simple+0xa0>)
 800102c:	681b      	ldr	r3, [r3, #0]
 800102e:	4a07      	ldr	r2, [pc, #28]	; (800104c <TIM4_PWM_Init_Simple+0xa0>)
 8001030:	f043 0380 	orr.w	r3, r3, #128	; 0x80
 8001034:	6013      	str	r3, [r2, #0]

    /* Применяем настройки */
    TIM4->EGR = TIM_EGR_UG;
 8001036:	4b05      	ldr	r3, [pc, #20]	; (800104c <TIM4_PWM_Init_Simple+0xa0>)
 8001038:	2201      	movs	r2, #1
 800103a:	615a      	str	r2, [r3, #20]
}
 800103c:	bf00      	nop
 800103e:	370c      	adds	r7, #12
 8001040:	46bd      	mov	sp, r7
 8001042:	bc80      	pop	{r7}
 8001044:	4770      	bx	lr
 8001046:	bf00      	nop
 8001048:	40021000 	.word	0x40021000
 800104c:	40000800 	.word	0x40000800
 8001050:	0001869f 	.word	0x0001869f

08001054 <Start_Pulse_Generator>:

/**
  * @brief  Запуск генератора импульсов
  */
void Start_Pulse_Generator(void)
{
 8001054:	b580      	push	{r7, lr}
 8001056:	af00      	add	r7, sp, #0
    /* Запускаем таймер */
    TIM4->CR1 |= TIM_CR1_CEN;
 8001058:	4b08      	ldr	r3, [pc, #32]	; (800107c <Start_Pulse_Generator+0x28>)
 800105a:	681b      	ldr	r3, [r3, #0]
 800105c:	4a07      	ldr	r2, [pc, #28]	; (800107c <Start_Pulse_Generator+0x28>)
 800105e:	f043 0301 	orr.w	r3, r3, #1
 8001062:	6013      	str	r3, [r2, #0]

    USART2_Print("[PULSE] Generator started on PB6 (TIM4_CH1)\r\n");
 8001064:	4806      	ldr	r0, [pc, #24]	; (8001080 <Start_Pulse_Generator+0x2c>)
 8001066:	f001 fe03 	bl	8002c70 <USART2_Print>
    USART2_Print("[PULSE] 10 us pulse, 100 ms period (10 Hz)\r\n");
 800106a:	4806      	ldr	r0, [pc, #24]	; (8001084 <Start_Pulse_Generator+0x30>)
 800106c:	f001 fe00 	bl	8002c70 <USART2_Print>
    USART2_Print("[PULSE] Duty cycle: 0.01%\r\n");
 8001070:	4805      	ldr	r0, [pc, #20]	; (8001088 <Start_Pulse_Generator+0x34>)
 8001072:	f001 fdfd 	bl	8002c70 <USART2_Print>
}
 8001076:	bf00      	nop
 8001078:	bd80      	pop	{r7, pc}
 800107a:	bf00      	nop
 800107c:	40000800 	.word	0x40000800
 8001080:	08006d68 	.word	0x08006d68
 8001084:	08006d98 	.word	0x08006d98
 8001088:	08006dc8 	.word	0x08006dc8

0800108c <Read_ADC_Single>:

/**
  * @brief  Чтение одного значения ADC
  */
uint32_t Read_ADC_Single(ADC_HandleTypeDef* hadc, uint32_t channel, uint32_t sampling_time)
{
 800108c:	b580      	push	{r7, lr}
 800108e:	b088      	sub	sp, #32
 8001090:	af00      	add	r7, sp, #0
 8001092:	60f8      	str	r0, [r7, #12]
 8001094:	60b9      	str	r1, [r7, #8]
 8001096:	607a      	str	r2, [r7, #4]
    ADC_ChannelConfTypeDef sConfig = {0};
 8001098:	f107 0310 	add.w	r3, r7, #16
 800109c:	2200      	movs	r2, #0
 800109e:	601a      	str	r2, [r3, #0]
 80010a0:	605a      	str	r2, [r3, #4]
 80010a2:	609a      	str	r2, [r3, #8]

    /* Настройка канала */
    sConfig.Channel = channel;
 80010a4:	68bb      	ldr	r3, [r7, #8]
 80010a6:	613b      	str	r3, [r7, #16]
    sConfig.Rank = ADC_REGULAR_RANK_1;
 80010a8:	2301      	movs	r3, #1
 80010aa:	617b      	str	r3, [r7, #20]
    sConfig.SamplingTime = sampling_time;
 80010ac:	687b      	ldr	r3, [r7, #4]
 80010ae:	61bb      	str	r3, [r7, #24]

    if (HAL_ADC_ConfigChannel(hadc, &sConfig) != HAL_OK) {
 80010b0:	f107 0310 	add.w	r3, r7, #16
 80010b4:	4619      	mov	r1, r3
 80010b6:	68f8      	ldr	r0, [r7, #12]
 80010b8:	f002 fed4 	bl	8003e64 <HAL_ADC_ConfigChannel>
 80010bc:	4603      	mov	r3, r0
 80010be:	2b00      	cmp	r3, #0
 80010c0:	d001      	beq.n	80010c6 <Read_ADC_Single+0x3a>
        return 0;
 80010c2:	2300      	movs	r3, #0
 80010c4:	e016      	b.n	80010f4 <Read_ADC_Single+0x68>
    }

    /* Запуск преобразования */
    HAL_ADC_Start(hadc);
 80010c6:	68f8      	ldr	r0, [r7, #12]
 80010c8:	f002 fc0a 	bl	80038e0 <HAL_ADC_Start>

    /* Ожидание завершения преобразования */
    if (HAL_ADC_PollForConversion(hadc, 10) != HAL_OK) {
 80010cc:	210a      	movs	r1, #10
 80010ce:	68f8      	ldr	r0, [r7, #12]
 80010d0:	f002 fce0 	bl	8003a94 <HAL_ADC_PollForConversion>
 80010d4:	4603      	mov	r3, r0
 80010d6:	2b00      	cmp	r3, #0
 80010d8:	d004      	beq.n	80010e4 <Read_ADC_Single+0x58>
        HAL_ADC_Stop(hadc);
 80010da:	68f8      	ldr	r0, [r7, #12]
 80010dc:	f002 fcae 	bl	8003a3c <HAL_ADC_Stop>
        return 0;
 80010e0:	2300      	movs	r3, #0
 80010e2:	e007      	b.n	80010f4 <Read_ADC_Single+0x68>
    }

    /* Получение результата */
    uint32_t adc_value = HAL_ADC_GetValue(hadc);
 80010e4:	68f8      	ldr	r0, [r7, #12]
 80010e6:	f002 fddb 	bl	8003ca0 <HAL_ADC_GetValue>
 80010ea:	61f8      	str	r0, [r7, #28]

    /* Остановка ADC */
    HAL_ADC_Stop(hadc);
 80010ec:	68f8      	ldr	r0, [r7, #12]
 80010ee:	f002 fca5 	bl	8003a3c <HAL_ADC_Stop>

    return adc_value;
 80010f2:	69fb      	ldr	r3, [r7, #28]
}
 80010f4:	4618      	mov	r0, r3
 80010f6:	3720      	adds	r7, #32
 80010f8:	46bd      	mov	sp, r7
 80010fa:	bd80      	pop	{r7, pc}

080010fc <Read_ADC_Average>:

/**
  * @brief  Чтение среднего значения ADC
  */
uint32_t Read_ADC_Average(ADC_HandleTypeDef* hadc, uint32_t channel, uint32_t sampling_time, uint8_t samples)
{
 80010fc:	b580      	push	{r7, lr}
 80010fe:	b088      	sub	sp, #32
 8001100:	af00      	add	r7, sp, #0
 8001102:	60f8      	str	r0, [r7, #12]
 8001104:	60b9      	str	r1, [r7, #8]
 8001106:	607a      	str	r2, [r7, #4]
 8001108:	70fb      	strb	r3, [r7, #3]
    uint32_t sum = 0;
 800110a:	2300      	movs	r3, #0
 800110c:	61fb      	str	r3, [r7, #28]
    uint8_t valid_samples = 0;
 800110e:	2300      	movs	r3, #0
 8001110:	76fb      	strb	r3, [r7, #27]

    for (uint8_t i = 0; i < samples; i++) {
 8001112:	2300      	movs	r3, #0
 8001114:	76bb      	strb	r3, [r7, #26]
 8001116:	e019      	b.n	800114c <Read_ADC_Average+0x50>
        uint32_t value = Read_ADC_Single(hadc, channel, sampling_time);
 8001118:	687a      	ldr	r2, [r7, #4]
 800111a:	68b9      	ldr	r1, [r7, #8]
 800111c:	68f8      	ldr	r0, [r7, #12]
 800111e:	f7ff ffb5 	bl	800108c <Read_ADC_Single>
 8001122:	6178      	str	r0, [r7, #20]
        if (value > 0 && value < 4096) {
 8001124:	697b      	ldr	r3, [r7, #20]
 8001126:	2b00      	cmp	r3, #0
 8001128:	d00a      	beq.n	8001140 <Read_ADC_Average+0x44>
 800112a:	697b      	ldr	r3, [r7, #20]
 800112c:	f5b3 5f80 	cmp.w	r3, #4096	; 0x1000
 8001130:	d206      	bcs.n	8001140 <Read_ADC_Average+0x44>
            sum += value;
 8001132:	69fa      	ldr	r2, [r7, #28]
 8001134:	697b      	ldr	r3, [r7, #20]
 8001136:	4413      	add	r3, r2
 8001138:	61fb      	str	r3, [r7, #28]
            valid_samples++;
 800113a:	7efb      	ldrb	r3, [r7, #27]
 800113c:	3301      	adds	r3, #1
 800113e:	76fb      	strb	r3, [r7, #27]
        }
        HAL_Delay(1);
 8001140:	2001      	movs	r0, #1
 8001142:	f002 fad1 	bl	80036e8 <HAL_Delay>
    for (uint8_t i = 0; i < samples; i++) {
 8001146:	7ebb      	ldrb	r3, [r7, #26]
 8001148:	3301      	adds	r3, #1
 800114a:	76bb      	strb	r3, [r7, #26]
 800114c:	7eba      	ldrb	r2, [r7, #26]
 800114e:	78fb      	ldrb	r3, [r7, #3]
 8001150:	429a      	cmp	r2, r3
 8001152:	d3e1      	bcc.n	8001118 <Read_ADC_Average+0x1c>
    }

    if (valid_samples == 0) {
 8001154:	7efb      	ldrb	r3, [r7, #27]
 8001156:	2b00      	cmp	r3, #0
 8001158:	d101      	bne.n	800115e <Read_ADC_Average+0x62>
        return 0;
 800115a:	2300      	movs	r3, #0
 800115c:	e003      	b.n	8001166 <Read_ADC_Average+0x6a>
    }

    return sum / valid_samples;
 800115e:	7efb      	ldrb	r3, [r7, #27]
 8001160:	69fa      	ldr	r2, [r7, #28]
 8001162:	fbb2 f3f3 	udiv	r3, r2, r3
}
 8001166:	4618      	mov	r0, r3
 8001168:	3720      	adds	r7, #32
 800116a:	46bd      	mov	sp, r7
 800116c:	bd80      	pop	{r7, pc}
	...

08001170 <Read_All_Voltages>:

/**
  * @brief  Чтение всех напряжений
  */
void Read_All_Voltages(void)
{
 8001170:	b590      	push	{r4, r7, lr}
 8001172:	b085      	sub	sp, #20
 8001174:	af00      	add	r7, sp, #0
    /* Проверка инициализации ADC */
    if (!adc1_initialized || !adc2_initialized) {
 8001176:	4b80      	ldr	r3, [pc, #512]	; (8001378 <Read_All_Voltages+0x208>)
 8001178:	781b      	ldrb	r3, [r3, #0]
 800117a:	2b00      	cmp	r3, #0
 800117c:	d003      	beq.n	8001186 <Read_All_Voltages+0x16>
 800117e:	4b7f      	ldr	r3, [pc, #508]	; (800137c <Read_All_Voltages+0x20c>)
 8001180:	781b      	ldrb	r3, [r3, #0]
 8001182:	2b00      	cmp	r3, #0
 8001184:	d103      	bne.n	800118e <Read_All_Voltages+0x1e>
        USART2_Print("[ADC] ERROR: ADC not initialized!\r\n");
 8001186:	487e      	ldr	r0, [pc, #504]	; (8001380 <Read_All_Voltages+0x210>)
 8001188:	f001 fd72 	bl	8002c70 <USART2_Print>
        return;
 800118c:	e192      	b.n	80014b4 <Read_All_Voltages+0x344>
    }

    uint32_t adc_raw_vdda = 0;
 800118e:	2300      	movs	r3, #0
 8001190:	60fb      	str	r3, [r7, #12]
    uint32_t adc_raw_24v = 0;
 8001192:	2300      	movs	r3, #0
 8001194:	60bb      	str	r3, [r7, #8]
    uint32_t adc_raw_12v = 0;
 8001196:	2300      	movs	r3, #0
 8001198:	607b      	str	r3, [r7, #4]
    uint32_t adc_raw_5v = 0;
 800119a:	2300      	movs	r3, #0
 800119c:	603b      	str	r3, [r7, #0]

    /* --- Измерение VREFINT для калибровки VDDA --- */

    /* Включаем внутренний источник опорного напряжения */
    ADC1->CR2 |= ADC_CR2_TSVREFE;
 800119e:	4b79      	ldr	r3, [pc, #484]	; (8001384 <Read_All_Voltages+0x214>)
 80011a0:	689b      	ldr	r3, [r3, #8]
 80011a2:	4a78      	ldr	r2, [pc, #480]	; (8001384 <Read_All_Voltages+0x214>)
 80011a4:	f443 0300 	orr.w	r3, r3, #8388608	; 0x800000
 80011a8:	6093      	str	r3, [r2, #8]
    HAL_Delay(10);
 80011aa:	200a      	movs	r0, #10
 80011ac:	f002 fa9c 	bl	80036e8 <HAL_Delay>

    /* Измерение VREFINT (канал 17) */
    adc_raw_vdda = Read_ADC_Average(&hadc1, ADC_CHANNEL_VREFINT, ADC_SAMPLETIME_239CYCLES_5, ADC_SAMPLES);
 80011b0:	2310      	movs	r3, #16
 80011b2:	2207      	movs	r2, #7
 80011b4:	2111      	movs	r1, #17
 80011b6:	4874      	ldr	r0, [pc, #464]	; (8001388 <Read_All_Voltages+0x218>)
 80011b8:	f7ff ffa0 	bl	80010fc <Read_ADC_Average>
 80011bc:	60f8      	str	r0, [r7, #12]

    /* Выключаем VREFINT */
    ADC1->CR2 &= ~ADC_CR2_TSVREFE;
 80011be:	4b71      	ldr	r3, [pc, #452]	; (8001384 <Read_All_Voltages+0x214>)
 80011c0:	689b      	ldr	r3, [r3, #8]
 80011c2:	4a70      	ldr	r2, [pc, #448]	; (8001384 <Read_All_Voltages+0x214>)
 80011c4:	f423 0300 	bic.w	r3, r3, #8388608	; 0x800000
 80011c8:	6093      	str	r3, [r2, #8]
    HAL_Delay(1);
 80011ca:	2001      	movs	r0, #1
 80011cc:	f002 fa8c 	bl	80036e8 <HAL_Delay>

    USART2_Print("[ADC] Raw VREFINT: ");
 80011d0:	486e      	ldr	r0, [pc, #440]	; (800138c <Read_All_Voltages+0x21c>)
 80011d2:	f001 fd4d 	bl	8002c70 <USART2_Print>
    USART2_PrintNum(adc_raw_vdda);
 80011d6:	68f8      	ldr	r0, [r7, #12]
 80011d8:	f001 fd62 	bl	8002ca0 <USART2_PrintNum>
    USART2_Print("\r\n");
 80011dc:	486c      	ldr	r0, [pc, #432]	; (8001390 <Read_All_Voltages+0x220>)
 80011de:	f001 fd47 	bl	8002c70 <USART2_Print>

    if (adc_raw_vdda == 0) {
 80011e2:	68fb      	ldr	r3, [r7, #12]
 80011e4:	2b00      	cmp	r3, #0
 80011e6:	d106      	bne.n	80011f6 <Read_All_Voltages+0x86>
        current_vdda = 3.3f;
 80011e8:	4b6a      	ldr	r3, [pc, #424]	; (8001394 <Read_All_Voltages+0x224>)
 80011ea:	4a6b      	ldr	r2, [pc, #428]	; (8001398 <Read_All_Voltages+0x228>)
 80011ec:	601a      	str	r2, [r3, #0]
        USART2_Print("[ADC] WARNING: VREFINT = 0! Using default 3.3V\r\n");
 80011ee:	486b      	ldr	r0, [pc, #428]	; (800139c <Read_All_Voltages+0x22c>)
 80011f0:	f001 fd3e 	bl	8002c70 <USART2_Print>
 80011f4:	e022      	b.n	800123c <Read_All_Voltages+0xcc>
    } else if (adc_raw_vdda > 4095) {
 80011f6:	68fb      	ldr	r3, [r7, #12]
 80011f8:	f5b3 5f80 	cmp.w	r3, #4096	; 0x1000
 80011fc:	d306      	bcc.n	800120c <Read_All_Voltages+0x9c>
        current_vdda = 3.3f;
 80011fe:	4b65      	ldr	r3, [pc, #404]	; (8001394 <Read_All_Voltages+0x224>)
 8001200:	4a65      	ldr	r2, [pc, #404]	; (8001398 <Read_All_Voltages+0x228>)
 8001202:	601a      	str	r2, [r3, #0]
        USART2_Print("[ADC] WARNING: VREFINT > 4095! Using default 3.3V\r\n");
 8001204:	4866      	ldr	r0, [pc, #408]	; (80013a0 <Read_All_Voltages+0x230>)
 8001206:	f001 fd33 	bl	8002c70 <USART2_Print>
 800120a:	e017      	b.n	800123c <Read_All_Voltages+0xcc>
    } else {
        /* Расчет VDDA: VREFINT_CAL * VREFINT_VOLTAGE / ADC_reading */
        current_vdda = (VREFINT_VOLTAGE * VREFINT_CAL) / (float)adc_raw_vdda;
 800120c:	4b65      	ldr	r3, [pc, #404]	; (80013a4 <Read_All_Voltages+0x234>)
 800120e:	881b      	ldrh	r3, [r3, #0]
 8001210:	4618      	mov	r0, r3
 8001212:	f7ff f85d 	bl	80002d0 <__aeabi_i2f>
 8001216:	4603      	mov	r3, r0
 8001218:	4963      	ldr	r1, [pc, #396]	; (80013a8 <Read_All_Voltages+0x238>)
 800121a:	4618      	mov	r0, r3
 800121c:	f7ff f8ac 	bl	8000378 <__aeabi_fmul>
 8001220:	4603      	mov	r3, r0
 8001222:	461c      	mov	r4, r3
 8001224:	68f8      	ldr	r0, [r7, #12]
 8001226:	f7ff f84f 	bl	80002c8 <__aeabi_ui2f>
 800122a:	4603      	mov	r3, r0
 800122c:	4619      	mov	r1, r3
 800122e:	4620      	mov	r0, r4
 8001230:	f7ff f956 	bl	80004e0 <__aeabi_fdiv>
 8001234:	4603      	mov	r3, r0
 8001236:	461a      	mov	r2, r3
 8001238:	4b56      	ldr	r3, [pc, #344]	; (8001394 <Read_All_Voltages+0x224>)
 800123a:	601a      	str	r2, [r3, #0]
    }

    /* --- 24V (PA0, канал 0, ADC1) --- */
    adc_raw_24v = Read_ADC_Average(&hadc1, ADC_CHANNEL_0, ADC_SAMPLETIME_239CYCLES_5, ADC_SAMPLES);
 800123c:	2310      	movs	r3, #16
 800123e:	2207      	movs	r2, #7
 8001240:	2100      	movs	r1, #0
 8001242:	4851      	ldr	r0, [pc, #324]	; (8001388 <Read_All_Voltages+0x218>)
 8001244:	f7ff ff5a 	bl	80010fc <Read_ADC_Average>
 8001248:	60b8      	str	r0, [r7, #8]

    USART2_Print("[ADC] Raw 24V: ");
 800124a:	4858      	ldr	r0, [pc, #352]	; (80013ac <Read_All_Voltages+0x23c>)
 800124c:	f001 fd10 	bl	8002c70 <USART2_Print>
    USART2_PrintNum(adc_raw_24v);
 8001250:	68b8      	ldr	r0, [r7, #8]
 8001252:	f001 fd25 	bl	8002ca0 <USART2_PrintNum>
    USART2_Print("\r\n");
 8001256:	484e      	ldr	r0, [pc, #312]	; (8001390 <Read_All_Voltages+0x220>)
 8001258:	f001 fd0a 	bl	8002c70 <USART2_Print>

    /* Коэффициент делителя для 24В: (150k+10k)/10k = 16 */
    if (adc_raw_24v > 0 && adc_raw_24v < 4096) {
 800125c:	68bb      	ldr	r3, [r7, #8]
 800125e:	2b00      	cmp	r3, #0
 8001260:	d01d      	beq.n	800129e <Read_All_Voltages+0x12e>
 8001262:	68bb      	ldr	r3, [r7, #8]
 8001264:	f5b3 5f80 	cmp.w	r3, #4096	; 0x1000
 8001268:	d219      	bcs.n	800129e <Read_All_Voltages+0x12e>
        current_24v = (float)adc_raw_24v * current_vdda / 4095.0f * 16.0f;
 800126a:	68b8      	ldr	r0, [r7, #8]
 800126c:	f7ff f82c 	bl	80002c8 <__aeabi_ui2f>
 8001270:	4602      	mov	r2, r0
 8001272:	4b48      	ldr	r3, [pc, #288]	; (8001394 <Read_All_Voltages+0x224>)
 8001274:	681b      	ldr	r3, [r3, #0]
 8001276:	4619      	mov	r1, r3
 8001278:	4610      	mov	r0, r2
 800127a:	f7ff f87d 	bl	8000378 <__aeabi_fmul>
 800127e:	4603      	mov	r3, r0
 8001280:	494b      	ldr	r1, [pc, #300]	; (80013b0 <Read_All_Voltages+0x240>)
 8001282:	4618      	mov	r0, r3
 8001284:	f7ff f92c 	bl	80004e0 <__aeabi_fdiv>
 8001288:	4603      	mov	r3, r0
 800128a:	f04f 4183 	mov.w	r1, #1098907648	; 0x41800000
 800128e:	4618      	mov	r0, r3
 8001290:	f7ff f872 	bl	8000378 <__aeabi_fmul>
 8001294:	4603      	mov	r3, r0
 8001296:	461a      	mov	r2, r3
 8001298:	4b46      	ldr	r3, [pc, #280]	; (80013b4 <Read_All_Voltages+0x244>)
 800129a:	601a      	str	r2, [r3, #0]
 800129c:	e005      	b.n	80012aa <Read_All_Voltages+0x13a>
    } else {
        current_24v = 24.0f;
 800129e:	4b45      	ldr	r3, [pc, #276]	; (80013b4 <Read_All_Voltages+0x244>)
 80012a0:	4a45      	ldr	r2, [pc, #276]	; (80013b8 <Read_All_Voltages+0x248>)
 80012a2:	601a      	str	r2, [r3, #0]
        USART2_Print("[ADC] WARNING: 24V measurement invalid, using default\r\n");
 80012a4:	4845      	ldr	r0, [pc, #276]	; (80013bc <Read_All_Voltages+0x24c>)
 80012a6:	f001 fce3 	bl	8002c70 <USART2_Print>
    }

    /* --- 12V (PA1, канал 1, ADC2) --- */
    adc_raw_12v = Read_ADC_Average(&hadc2, ADC_CHANNEL_1, ADC_SAMPLETIME_239CYCLES_5, ADC_SAMPLES);
 80012aa:	2310      	movs	r3, #16
 80012ac:	2207      	movs	r2, #7
 80012ae:	2101      	movs	r1, #1
 80012b0:	4843      	ldr	r0, [pc, #268]	; (80013c0 <Read_All_Voltages+0x250>)
 80012b2:	f7ff ff23 	bl	80010fc <Read_ADC_Average>
 80012b6:	6078      	str	r0, [r7, #4]

    USART2_Print("[ADC] Raw 12V: ");
 80012b8:	4842      	ldr	r0, [pc, #264]	; (80013c4 <Read_All_Voltages+0x254>)
 80012ba:	f001 fcd9 	bl	8002c70 <USART2_Print>
    USART2_PrintNum(adc_raw_12v);
 80012be:	6878      	ldr	r0, [r7, #4]
 80012c0:	f001 fcee 	bl	8002ca0 <USART2_PrintNum>
    USART2_Print("\r\n");
 80012c4:	4832      	ldr	r0, [pc, #200]	; (8001390 <Read_All_Voltages+0x220>)
 80012c6:	f001 fcd3 	bl	8002c70 <USART2_Print>

    /* Коэффициент делителя для 12В: (82k+10k)/10k = 9.2 */
    if (adc_raw_12v > 0 && adc_raw_12v < 4096) {
 80012ca:	687b      	ldr	r3, [r7, #4]
 80012cc:	2b00      	cmp	r3, #0
 80012ce:	d01c      	beq.n	800130a <Read_All_Voltages+0x19a>
 80012d0:	687b      	ldr	r3, [r7, #4]
 80012d2:	f5b3 5f80 	cmp.w	r3, #4096	; 0x1000
 80012d6:	d218      	bcs.n	800130a <Read_All_Voltages+0x19a>
        current_12v = (float)adc_raw_12v * current_vdda / 4095.0f * 9.2f;
 80012d8:	6878      	ldr	r0, [r7, #4]
 80012da:	f7fe fff5 	bl	80002c8 <__aeabi_ui2f>
 80012de:	4602      	mov	r2, r0
 80012e0:	4b2c      	ldr	r3, [pc, #176]	; (8001394 <Read_All_Voltages+0x224>)
 80012e2:	681b      	ldr	r3, [r3, #0]
 80012e4:	4619      	mov	r1, r3
 80012e6:	4610      	mov	r0, r2
 80012e8:	f7ff f846 	bl	8000378 <__aeabi_fmul>
 80012ec:	4603      	mov	r3, r0
 80012ee:	4930      	ldr	r1, [pc, #192]	; (80013b0 <Read_All_Voltages+0x240>)
 80012f0:	4618      	mov	r0, r3
 80012f2:	f7ff f8f5 	bl	80004e0 <__aeabi_fdiv>
 80012f6:	4603      	mov	r3, r0
 80012f8:	4933      	ldr	r1, [pc, #204]	; (80013c8 <Read_All_Voltages+0x258>)
 80012fa:	4618      	mov	r0, r3
 80012fc:	f7ff f83c 	bl	8000378 <__aeabi_fmul>
 8001300:	4603      	mov	r3, r0
 8001302:	461a      	mov	r2, r3
 8001304:	4b31      	ldr	r3, [pc, #196]	; (80013cc <Read_All_Voltages+0x25c>)
 8001306:	601a      	str	r2, [r3, #0]
 8001308:	e005      	b.n	8001316 <Read_All_Voltages+0x1a6>
    } else {
        current_12v = 12.0f;
 800130a:	4b30      	ldr	r3, [pc, #192]	; (80013cc <Read_All_Voltages+0x25c>)
 800130c:	4a30      	ldr	r2, [pc, #192]	; (80013d0 <Read_All_Voltages+0x260>)
 800130e:	601a      	str	r2, [r3, #0]
        USART2_Print("[ADC] WARNING: 12V measurement invalid, using default\r\n");
 8001310:	4830      	ldr	r0, [pc, #192]	; (80013d4 <Read_All_Voltages+0x264>)
 8001312:	f001 fcad 	bl	8002c70 <USART2_Print>
    }

    /* --- 5V (PA5, канал 5, ADC2) --- */
    adc_raw_5v = Read_ADC_Average(&hadc2, ADC_CHANNEL_5, ADC_SAMPLETIME_239CYCLES_5, ADC_SAMPLES);
 8001316:	2310      	movs	r3, #16
 8001318:	2207      	movs	r2, #7
 800131a:	2105      	movs	r1, #5
 800131c:	4828      	ldr	r0, [pc, #160]	; (80013c0 <Read_All_Voltages+0x250>)
 800131e:	f7ff feed 	bl	80010fc <Read_ADC_Average>
 8001322:	6038      	str	r0, [r7, #0]

    USART2_Print("[ADC] Raw 5V: ");
 8001324:	482c      	ldr	r0, [pc, #176]	; (80013d8 <Read_All_Voltages+0x268>)
 8001326:	f001 fca3 	bl	8002c70 <USART2_Print>
    USART2_PrintNum(adc_raw_5v);
 800132a:	6838      	ldr	r0, [r7, #0]
 800132c:	f001 fcb8 	bl	8002ca0 <USART2_PrintNum>
    USART2_Print("\r\n");
 8001330:	4817      	ldr	r0, [pc, #92]	; (8001390 <Read_All_Voltages+0x220>)
 8001332:	f001 fc9d 	bl	8002c70 <USART2_Print>

    /* Коэффициент делителя для 5В: (20k+10k)/10k = 3 */
    if (adc_raw_5v > 0 && adc_raw_5v < 4096) {
 8001336:	683b      	ldr	r3, [r7, #0]
 8001338:	2b00      	cmp	r3, #0
 800133a:	d053      	beq.n	80013e4 <Read_All_Voltages+0x274>
 800133c:	683b      	ldr	r3, [r7, #0]
 800133e:	f5b3 5f80 	cmp.w	r3, #4096	; 0x1000
 8001342:	d24f      	bcs.n	80013e4 <Read_All_Voltages+0x274>
        current_5v = (float)adc_raw_5v * current_vdda / 4095.0f * 3.0f;
 8001344:	6838      	ldr	r0, [r7, #0]
 8001346:	f7fe ffbf 	bl	80002c8 <__aeabi_ui2f>
 800134a:	4602      	mov	r2, r0
 800134c:	4b11      	ldr	r3, [pc, #68]	; (8001394 <Read_All_Voltages+0x224>)
 800134e:	681b      	ldr	r3, [r3, #0]
 8001350:	4619      	mov	r1, r3
 8001352:	4610      	mov	r0, r2
 8001354:	f7ff f810 	bl	8000378 <__aeabi_fmul>
 8001358:	4603      	mov	r3, r0
 800135a:	4915      	ldr	r1, [pc, #84]	; (80013b0 <Read_All_Voltages+0x240>)
 800135c:	4618      	mov	r0, r3
 800135e:	f7ff f8bf 	bl	80004e0 <__aeabi_fdiv>
 8001362:	4603      	mov	r3, r0
 8001364:	491d      	ldr	r1, [pc, #116]	; (80013dc <Read_All_Voltages+0x26c>)
 8001366:	4618      	mov	r0, r3
 8001368:	f7ff f806 	bl	8000378 <__aeabi_fmul>
 800136c:	4603      	mov	r3, r0
 800136e:	461a      	mov	r2, r3
 8001370:	4b1b      	ldr	r3, [pc, #108]	; (80013e0 <Read_All_Voltages+0x270>)
 8001372:	601a      	str	r2, [r3, #0]
 8001374:	e03c      	b.n	80013f0 <Read_All_Voltages+0x280>
 8001376:	bf00      	nop
 8001378:	20000178 	.word	0x20000178
 800137c:	20000179 	.word	0x20000179
 8001380:	08006de4 	.word	0x08006de4
 8001384:	40012400 	.word	0x40012400
 8001388:	200000c0 	.word	0x200000c0
 800138c:	08006e08 	.word	0x08006e08
 8001390:	08006c8c 	.word	0x08006c8c
 8001394:	20000000 	.word	0x20000000
 8001398:	40533333 	.word	0x40533333
 800139c:	08006e1c 	.word	0x08006e1c
 80013a0:	08006e50 	.word	0x08006e50
 80013a4:	1ffff7ba 	.word	0x1ffff7ba
 80013a8:	3f9d70a4 	.word	0x3f9d70a4
 80013ac:	08006e84 	.word	0x08006e84
 80013b0:	457ff000 	.word	0x457ff000
 80013b4:	20000004 	.word	0x20000004
 80013b8:	41c00000 	.word	0x41c00000
 80013bc:	08006e94 	.word	0x08006e94
 80013c0:	200000f0 	.word	0x200000f0
 80013c4:	08006ecc 	.word	0x08006ecc
 80013c8:	41133333 	.word	0x41133333
 80013cc:	20000008 	.word	0x20000008
 80013d0:	41400000 	.word	0x41400000
 80013d4:	08006edc 	.word	0x08006edc
 80013d8:	08006f14 	.word	0x08006f14
 80013dc:	40400000 	.word	0x40400000
 80013e0:	2000000c 	.word	0x2000000c
    } else {
        current_5v = 5.0f;
 80013e4:	4b35      	ldr	r3, [pc, #212]	; (80014bc <Read_All_Voltages+0x34c>)
 80013e6:	4a36      	ldr	r2, [pc, #216]	; (80014c0 <Read_All_Voltages+0x350>)
 80013e8:	601a      	str	r2, [r3, #0]
        USART2_Print("[ADC] WARNING: 5V measurement invalid, using default\r\n");
 80013ea:	4836      	ldr	r0, [pc, #216]	; (80014c4 <Read_All_Voltages+0x354>)
 80013ec:	f001 fc40 	bl	8002c70 <USART2_Print>
    }

    /* Ограничение значений */
    if (current_vdda < 2.0f || current_vdda > 4.0f) {
 80013f0:	4b35      	ldr	r3, [pc, #212]	; (80014c8 <Read_All_Voltages+0x358>)
 80013f2:	681b      	ldr	r3, [r3, #0]
 80013f4:	f04f 4180 	mov.w	r1, #1073741824	; 0x40000000
 80013f8:	4618      	mov	r0, r3
 80013fa:	f7ff f95b 	bl	80006b4 <__aeabi_fcmplt>
 80013fe:	4603      	mov	r3, r0
 8001400:	2b00      	cmp	r3, #0
 8001402:	d109      	bne.n	8001418 <Read_All_Voltages+0x2a8>
 8001404:	4b30      	ldr	r3, [pc, #192]	; (80014c8 <Read_All_Voltages+0x358>)
 8001406:	681b      	ldr	r3, [r3, #0]
 8001408:	f04f 4181 	mov.w	r1, #1082130432	; 0x40800000
 800140c:	4618      	mov	r0, r3
 800140e:	f7ff f96f 	bl	80006f0 <__aeabi_fcmpgt>
 8001412:	4603      	mov	r3, r0
 8001414:	2b00      	cmp	r3, #0
 8001416:	d005      	beq.n	8001424 <Read_All_Voltages+0x2b4>
        current_vdda = 3.3f;
 8001418:	4b2b      	ldr	r3, [pc, #172]	; (80014c8 <Read_All_Voltages+0x358>)
 800141a:	4a2c      	ldr	r2, [pc, #176]	; (80014cc <Read_All_Voltages+0x35c>)
 800141c:	601a      	str	r2, [r3, #0]
        USART2_Print("[ADC] ERROR: VDDA out of range, reset\r\n");
 800141e:	482c      	ldr	r0, [pc, #176]	; (80014d0 <Read_All_Voltages+0x360>)
 8001420:	f001 fc26 	bl	8002c70 <USART2_Print>
    }
    if (current_24v < 10.0f || current_24v > 30.0f) {
 8001424:	4b2b      	ldr	r3, [pc, #172]	; (80014d4 <Read_All_Voltages+0x364>)
 8001426:	681b      	ldr	r3, [r3, #0]
 8001428:	492b      	ldr	r1, [pc, #172]	; (80014d8 <Read_All_Voltages+0x368>)
 800142a:	4618      	mov	r0, r3
 800142c:	f7ff f942 	bl	80006b4 <__aeabi_fcmplt>
 8001430:	4603      	mov	r3, r0
 8001432:	2b00      	cmp	r3, #0
 8001434:	d108      	bne.n	8001448 <Read_All_Voltages+0x2d8>
 8001436:	4b27      	ldr	r3, [pc, #156]	; (80014d4 <Read_All_Voltages+0x364>)
 8001438:	681b      	ldr	r3, [r3, #0]
 800143a:	4928      	ldr	r1, [pc, #160]	; (80014dc <Read_All_Voltages+0x36c>)
 800143c:	4618      	mov	r0, r3
 800143e:	f7ff f957 	bl	80006f0 <__aeabi_fcmpgt>
 8001442:	4603      	mov	r3, r0
 8001444:	2b00      	cmp	r3, #0
 8001446:	d005      	beq.n	8001454 <Read_All_Voltages+0x2e4>
        current_24v = 24.0f;
 8001448:	4b22      	ldr	r3, [pc, #136]	; (80014d4 <Read_All_Voltages+0x364>)
 800144a:	4a25      	ldr	r2, [pc, #148]	; (80014e0 <Read_All_Voltages+0x370>)
 800144c:	601a      	str	r2, [r3, #0]
        USART2_Print("[ADC] ERROR: 24V out of range, reset\r\n");
 800144e:	4825      	ldr	r0, [pc, #148]	; (80014e4 <Read_All_Voltages+0x374>)
 8001450:	f001 fc0e 	bl	8002c70 <USART2_Print>
    }
    if (current_12v < 5.0f || current_12v > 15.0f) {
 8001454:	4b24      	ldr	r3, [pc, #144]	; (80014e8 <Read_All_Voltages+0x378>)
 8001456:	681b      	ldr	r3, [r3, #0]
 8001458:	4919      	ldr	r1, [pc, #100]	; (80014c0 <Read_All_Voltages+0x350>)
 800145a:	4618      	mov	r0, r3
 800145c:	f7ff f92a 	bl	80006b4 <__aeabi_fcmplt>
 8001460:	4603      	mov	r3, r0
 8001462:	2b00      	cmp	r3, #0
 8001464:	d108      	bne.n	8001478 <Read_All_Voltages+0x308>
 8001466:	4b20      	ldr	r3, [pc, #128]	; (80014e8 <Read_All_Voltages+0x378>)
 8001468:	681b      	ldr	r3, [r3, #0]
 800146a:	4920      	ldr	r1, [pc, #128]	; (80014ec <Read_All_Voltages+0x37c>)
 800146c:	4618      	mov	r0, r3
 800146e:	f7ff f93f 	bl	80006f0 <__aeabi_fcmpgt>
 8001472:	4603      	mov	r3, r0
 8001474:	2b00      	cmp	r3, #0
 8001476:	d005      	beq.n	8001484 <Read_All_Voltages+0x314>
        current_12v = 12.0f;
 8001478:	4b1b      	ldr	r3, [pc, #108]	; (80014e8 <Read_All_Voltages+0x378>)
 800147a:	4a1d      	ldr	r2, [pc, #116]	; (80014f0 <Read_All_Voltages+0x380>)
 800147c:	601a      	str	r2, [r3, #0]
        USART2_Print("[ADC] ERROR: 12V out of range, reset\r\n");
 800147e:	481d      	ldr	r0, [pc, #116]	; (80014f4 <Read_All_Voltages+0x384>)
 8001480:	f001 fbf6 	bl	8002c70 <USART2_Print>
    }
    if (current_5v < 3.0f || current_5v > 6.0f) {
 8001484:	4b0d      	ldr	r3, [pc, #52]	; (80014bc <Read_All_Voltages+0x34c>)
 8001486:	681b      	ldr	r3, [r3, #0]
 8001488:	491b      	ldr	r1, [pc, #108]	; (80014f8 <Read_All_Voltages+0x388>)
 800148a:	4618      	mov	r0, r3
 800148c:	f7ff f912 	bl	80006b4 <__aeabi_fcmplt>
 8001490:	4603      	mov	r3, r0
 8001492:	2b00      	cmp	r3, #0
 8001494:	d108      	bne.n	80014a8 <Read_All_Voltages+0x338>
 8001496:	4b09      	ldr	r3, [pc, #36]	; (80014bc <Read_All_Voltages+0x34c>)
 8001498:	681b      	ldr	r3, [r3, #0]
 800149a:	4918      	ldr	r1, [pc, #96]	; (80014fc <Read_All_Voltages+0x38c>)
 800149c:	4618      	mov	r0, r3
 800149e:	f7ff f927 	bl	80006f0 <__aeabi_fcmpgt>
 80014a2:	4603      	mov	r3, r0
 80014a4:	2b00      	cmp	r3, #0
 80014a6:	d005      	beq.n	80014b4 <Read_All_Voltages+0x344>
        current_5v = 5.0f;
 80014a8:	4b04      	ldr	r3, [pc, #16]	; (80014bc <Read_All_Voltages+0x34c>)
 80014aa:	4a05      	ldr	r2, [pc, #20]	; (80014c0 <Read_All_Voltages+0x350>)
 80014ac:	601a      	str	r2, [r3, #0]
        USART2_Print("[ADC] ERROR: 5V out of range, reset\r\n");
 80014ae:	4814      	ldr	r0, [pc, #80]	; (8001500 <Read_All_Voltages+0x390>)
 80014b0:	f001 fbde 	bl	8002c70 <USART2_Print>
    }
}
 80014b4:	3714      	adds	r7, #20
 80014b6:	46bd      	mov	sp, r7
 80014b8:	bd90      	pop	{r4, r7, pc}
 80014ba:	bf00      	nop
 80014bc:	2000000c 	.word	0x2000000c
 80014c0:	40a00000 	.word	0x40a00000
 80014c4:	08006f24 	.word	0x08006f24
 80014c8:	20000000 	.word	0x20000000
 80014cc:	40533333 	.word	0x40533333
 80014d0:	08006f5c 	.word	0x08006f5c
 80014d4:	20000004 	.word	0x20000004
 80014d8:	41200000 	.word	0x41200000
 80014dc:	41f00000 	.word	0x41f00000
 80014e0:	41c00000 	.word	0x41c00000
 80014e4:	08006f84 	.word	0x08006f84
 80014e8:	20000008 	.word	0x20000008
 80014ec:	41700000 	.word	0x41700000
 80014f0:	41400000 	.word	0x41400000
 80014f4:	08006fac 	.word	0x08006fac
 80014f8:	40400000 	.word	0x40400000
 80014fc:	40c00000 	.word	0x40c00000
 8001500:	08006fd4 	.word	0x08006fd4

08001504 <SystemClock_Config>:

/**
  * @brief System Clock Configuration
  */
void SystemClock_Config(void)
{
 8001504:	b580      	push	{r7, lr}
 8001506:	b094      	sub	sp, #80	; 0x50
 8001508:	af00      	add	r7, sp, #0
    RCC_OscInitTypeDef RCC_OscInitStruct = {0};
 800150a:	f107 0328 	add.w	r3, r7, #40	; 0x28
 800150e:	2228      	movs	r2, #40	; 0x28
 8001510:	2100      	movs	r1, #0
 8001512:	4618      	mov	r0, r3
 8001514:	f005 fa12 	bl	800693c <memset>
    RCC_ClkInitTypeDef RCC_ClkInitStruct = {0};
 8001518:	f107 0314 	add.w	r3, r7, #20
 800151c:	2200      	movs	r2, #0
 800151e:	601a      	str	r2, [r3, #0]
 8001520:	605a      	str	r2, [r3, #4]
 8001522:	609a      	str	r2, [r3, #8]
 8001524:	60da      	str	r2, [r3, #12]
 8001526:	611a      	str	r2, [r3, #16]
    RCC_PeriphCLKInitTypeDef PeriphClkInit = {0};
 8001528:	1d3b      	adds	r3, r7, #4
 800152a:	2200      	movs	r2, #0
 800152c:	601a      	str	r2, [r3, #0]
 800152e:	605a      	str	r2, [r3, #4]
 8001530:	609a      	str	r2, [r3, #8]
 8001532:	60da      	str	r2, [r3, #12]

    RCC_OscInitStruct.OscillatorType = RCC_OSCILLATORTYPE_HSE;
 8001534:	2301      	movs	r3, #1
 8001536:	62bb      	str	r3, [r7, #40]	; 0x28
    RCC_OscInitStruct.HSEState = RCC_HSE_ON;
 8001538:	f44f 3380 	mov.w	r3, #65536	; 0x10000
 800153c:	62fb      	str	r3, [r7, #44]	; 0x2c
    RCC_OscInitStruct.HSEPredivValue = RCC_HSE_PREDIV_DIV1;
 800153e:	2300      	movs	r3, #0
 8001540:	633b      	str	r3, [r7, #48]	; 0x30
    RCC_OscInitStruct.HSIState = RCC_HSI_ON;
 8001542:	2301      	movs	r3, #1
 8001544:	63bb      	str	r3, [r7, #56]	; 0x38
    RCC_OscInitStruct.PLL.PLLState = RCC_PLL_ON;
 8001546:	2302      	movs	r3, #2
 8001548:	647b      	str	r3, [r7, #68]	; 0x44
    RCC_OscInitStruct.PLL.PLLSource = RCC_PLLSOURCE_HSE;
 800154a:	f44f 3380 	mov.w	r3, #65536	; 0x10000
 800154e:	64bb      	str	r3, [r7, #72]	; 0x48
    RCC_OscInitStruct.PLL.PLLMUL = RCC_PLL_MUL9;
 8001550:	f44f 13e0 	mov.w	r3, #1835008	; 0x1c0000
 8001554:	64fb      	str	r3, [r7, #76]	; 0x4c
    if (HAL_RCC_OscConfig(&RCC_OscInitStruct) != HAL_OK)
 8001556:	f107 0328 	add.w	r3, r7, #40	; 0x28
 800155a:	4618      	mov	r0, r3
 800155c:	f003 fa62 	bl	8004a24 <HAL_RCC_OscConfig>
 8001560:	4603      	mov	r3, r0
 8001562:	2b00      	cmp	r3, #0
 8001564:	d001      	beq.n	800156a <SystemClock_Config+0x66>
    {
        Error_Handler();
 8001566:	f000 fa2f 	bl	80019c8 <Error_Handler>
    }

    RCC_ClkInitStruct.ClockType = RCC_CLOCKTYPE_HCLK|RCC_CLOCKTYPE_SYSCLK
 800156a:	230f      	movs	r3, #15
 800156c:	617b      	str	r3, [r7, #20]
                                |RCC_CLOCKTYPE_PCLK1|RCC_CLOCKTYPE_PCLK2;
    RCC_ClkInitStruct.SYSCLKSource = RCC_SYSCLKSOURCE_PLLCLK;
 800156e:	2302      	movs	r3, #2
 8001570:	61bb      	str	r3, [r7, #24]
    RCC_ClkInitStruct.AHBCLKDivider = RCC_SYSCLK_DIV1;
 8001572:	2300      	movs	r3, #0
 8001574:	61fb      	str	r3, [r7, #28]
    RCC_ClkInitStruct.APB1CLKDivider = RCC_HCLK_DIV2;
 8001576:	f44f 6380 	mov.w	r3, #1024	; 0x400
 800157a:	623b      	str	r3, [r7, #32]
    RCC_ClkInitStruct.APB2CLKDivider = RCC_HCLK_DIV1;
 800157c:	2300      	movs	r3, #0
 800157e:	627b      	str	r3, [r7, #36]	; 0x24

    if (HAL_RCC_ClockConfig(&RCC_ClkInitStruct, FLASH_LATENCY_2) != HAL_OK)
 8001580:	f107 0314 	add.w	r3, r7, #20
 8001584:	2102      	movs	r1, #2
 8001586:	4618      	mov	r0, r3
 8001588:	f003 fcce 	bl	8004f28 <HAL_RCC_ClockConfig>
 800158c:	4603      	mov	r3, r0
 800158e:	2b00      	cmp	r3, #0
 8001590:	d001      	beq.n	8001596 <SystemClock_Config+0x92>
    {
        Error_Handler();
 8001592:	f000 fa19 	bl	80019c8 <Error_Handler>
    }

    PeriphClkInit.PeriphClockSelection = RCC_PERIPHCLK_ADC;
 8001596:	2302      	movs	r3, #2
 8001598:	607b      	str	r3, [r7, #4]
    PeriphClkInit.AdcClockSelection = RCC_ADCPCLK2_DIV6;
 800159a:	f44f 4300 	mov.w	r3, #32768	; 0x8000
 800159e:	60fb      	str	r3, [r7, #12]
    if (HAL_RCCEx_PeriphCLKConfig(&PeriphClkInit) != HAL_OK)
 80015a0:	1d3b      	adds	r3, r7, #4
 80015a2:	4618      	mov	r0, r3
 80015a4:	f003 fe58 	bl	8005258 <HAL_RCCEx_PeriphCLKConfig>
 80015a8:	4603      	mov	r3, r0
 80015aa:	2b00      	cmp	r3, #0
 80015ac:	d001      	beq.n	80015b2 <SystemClock_Config+0xae>
    {
        Error_Handler();
 80015ae:	f000 fa0b 	bl	80019c8 <Error_Handler>
    }
}
 80015b2:	bf00      	nop
 80015b4:	3750      	adds	r7, #80	; 0x50
 80015b6:	46bd      	mov	sp, r7
 80015b8:	bd80      	pop	{r7, pc}
	...

080015bc <MX_GPIO_Init>:

/**
  * @brief GPIO Initialization Function
  */
static void MX_GPIO_Init(void)
{
 80015bc:	b580      	push	{r7, lr}
 80015be:	b08a      	sub	sp, #40	; 0x28
 80015c0:	af00      	add	r7, sp, #0
    GPIO_InitTypeDef GPIO_InitStruct = {0};
 80015c2:	f107 0318 	add.w	r3, r7, #24
 80015c6:	2200      	movs	r2, #0
 80015c8:	601a      	str	r2, [r3, #0]
 80015ca:	605a      	str	r2, [r3, #4]
 80015cc:	609a      	str	r2, [r3, #8]
 80015ce:	60da      	str	r2, [r3, #12]

    __HAL_RCC_GPIOC_CLK_ENABLE();
 80015d0:	4b64      	ldr	r3, [pc, #400]	; (8001764 <MX_GPIO_Init+0x1a8>)
 80015d2:	699b      	ldr	r3, [r3, #24]
 80015d4:	4a63      	ldr	r2, [pc, #396]	; (8001764 <MX_GPIO_Init+0x1a8>)
 80015d6:	f043 0310 	orr.w	r3, r3, #16
 80015da:	6193      	str	r3, [r2, #24]
 80015dc:	4b61      	ldr	r3, [pc, #388]	; (8001764 <MX_GPIO_Init+0x1a8>)
 80015de:	699b      	ldr	r3, [r3, #24]
 80015e0:	f003 0310 	and.w	r3, r3, #16
 80015e4:	617b      	str	r3, [r7, #20]
 80015e6:	697b      	ldr	r3, [r7, #20]
    __HAL_RCC_GPIOD_CLK_ENABLE();
 80015e8:	4b5e      	ldr	r3, [pc, #376]	; (8001764 <MX_GPIO_Init+0x1a8>)
 80015ea:	699b      	ldr	r3, [r3, #24]
 80015ec:	4a5d      	ldr	r2, [pc, #372]	; (8001764 <MX_GPIO_Init+0x1a8>)
 80015ee:	f043 0320 	orr.w	r3, r3, #32
 80015f2:	6193      	str	r3, [r2, #24]
 80015f4:	4b5b      	ldr	r3, [pc, #364]	; (8001764 <MX_GPIO_Init+0x1a8>)
 80015f6:	699b      	ldr	r3, [r3, #24]
 80015f8:	f003 0320 	and.w	r3, r3, #32
 80015fc:	613b      	str	r3, [r7, #16]
 80015fe:	693b      	ldr	r3, [r7, #16]
    __HAL_RCC_GPIOA_CLK_ENABLE();
 8001600:	4b58      	ldr	r3, [pc, #352]	; (8001764 <MX_GPIO_Init+0x1a8>)
 8001602:	699b      	ldr	r3, [r3, #24]
 8001604:	4a57      	ldr	r2, [pc, #348]	; (8001764 <MX_GPIO_Init+0x1a8>)
 8001606:	f043 0304 	orr.w	r3, r3, #4
 800160a:	6193      	str	r3, [r2, #24]
 800160c:	4b55      	ldr	r3, [pc, #340]	; (8001764 <MX_GPIO_Init+0x1a8>)
 800160e:	699b      	ldr	r3, [r3, #24]
 8001610:	f003 0304 	and.w	r3, r3, #4
 8001614:	60fb      	str	r3, [r7, #12]
 8001616:	68fb      	ldr	r3, [r7, #12]
    __HAL_RCC_GPIOB_CLK_ENABLE();
 8001618:	4b52      	ldr	r3, [pc, #328]	; (8001764 <MX_GPIO_Init+0x1a8>)
 800161a:	699b      	ldr	r3, [r3, #24]
 800161c:	4a51      	ldr	r2, [pc, #324]	; (8001764 <MX_GPIO_Init+0x1a8>)
 800161e:	f043 0308 	orr.w	r3, r3, #8
 8001622:	6193      	str	r3, [r2, #24]
 8001624:	4b4f      	ldr	r3, [pc, #316]	; (8001764 <MX_GPIO_Init+0x1a8>)
 8001626:	699b      	ldr	r3, [r3, #24]
 8001628:	f003 0308 	and.w	r3, r3, #8
 800162c:	60bb      	str	r3, [r7, #8]
 800162e:	68bb      	ldr	r3, [r7, #8]
    __HAL_RCC_AFIO_CLK_ENABLE();
 8001630:	4b4c      	ldr	r3, [pc, #304]	; (8001764 <MX_GPIO_Init+0x1a8>)
 8001632:	699b      	ldr	r3, [r3, #24]
 8001634:	4a4b      	ldr	r2, [pc, #300]	; (8001764 <MX_GPIO_Init+0x1a8>)
 8001636:	f043 0301 	orr.w	r3, r3, #1
 800163a:	6193      	str	r3, [r2, #24]
 800163c:	4b49      	ldr	r3, [pc, #292]	; (8001764 <MX_GPIO_Init+0x1a8>)
 800163e:	699b      	ldr	r3, [r3, #24]
 8001640:	f003 0301 	and.w	r3, r3, #1
 8001644:	607b      	str	r3, [r7, #4]
 8001646:	687b      	ldr	r3, [r7, #4]

    HAL_GPIO_WritePin(GPIOC, GPIO_PIN_13, GPIO_PIN_SET);
 8001648:	2201      	movs	r2, #1
 800164a:	f44f 5100 	mov.w	r1, #8192	; 0x2000
 800164e:	4846      	ldr	r0, [pc, #280]	; (8001768 <MX_GPIO_Init+0x1ac>)
 8001650:	f003 f994 	bl	800497c <HAL_GPIO_WritePin>

    /* Настройка светодиода на PC13 */
    GPIO_InitStruct.Pin = GPIO_PIN_13;
 8001654:	f44f 5300 	mov.w	r3, #8192	; 0x2000
 8001658:	61bb      	str	r3, [r7, #24]
    GPIO_InitStruct.Mode = GPIO_MODE_OUTPUT_PP;
 800165a:	2301      	movs	r3, #1
 800165c:	61fb      	str	r3, [r7, #28]
    GPIO_InitStruct.Pull = GPIO_NOPULL;
 800165e:	2300      	movs	r3, #0
 8001660:	623b      	str	r3, [r7, #32]
    GPIO_InitStruct.Speed = GPIO_SPEED_FREQ_LOW;
 8001662:	2302      	movs	r3, #2
 8001664:	627b      	str	r3, [r7, #36]	; 0x24
    HAL_GPIO_Init(GPIOC, &GPIO_InitStruct);
 8001666:	f107 0318 	add.w	r3, r7, #24
 800166a:	4619      	mov	r1, r3
 800166c:	483e      	ldr	r0, [pc, #248]	; (8001768 <MX_GPIO_Init+0x1ac>)
 800166e:	f003 f801 	bl	8004674 <HAL_GPIO_Init>

    GPIO_InitStruct.Pin = GPIO_PIN_14|GPIO_PIN_15;
 8001672:	f44f 4340 	mov.w	r3, #49152	; 0xc000
 8001676:	61bb      	str	r3, [r7, #24]
    GPIO_InitStruct.Mode = GPIO_MODE_INPUT;
 8001678:	2300      	movs	r3, #0
 800167a:	61fb      	str	r3, [r7, #28]
    GPIO_InitStruct.Pull = GPIO_NOPULL;
 800167c:	2300      	movs	r3, #0
 800167e:	623b      	str	r3, [r7, #32]
    HAL_GPIO_Init(GPIOC, &GPIO_InitStruct);
 8001680:	f107 0318 	add.w	r3, r7, #24
 8001684:	4619      	mov	r1, r3
 8001686:	4838      	ldr	r0, [pc, #224]	; (8001768 <MX_GPIO_Init+0x1ac>)
 8001688:	f002 fff4 	bl	8004674 <HAL_GPIO_Init>

    /* Настройка аналоговых входов */
    GPIO_InitStruct.Pin = GPIO_PIN_0|GPIO_PIN_1|GPIO_PIN_5;
 800168c:	2323      	movs	r3, #35	; 0x23
 800168e:	61bb      	str	r3, [r7, #24]
    GPIO_InitStruct.Mode = GPIO_MODE_ANALOG;
 8001690:	2303      	movs	r3, #3
 8001692:	61fb      	str	r3, [r7, #28]
    GPIO_InitStruct.Pull = GPIO_NOPULL;
 8001694:	2300      	movs	r3, #0
 8001696:	623b      	str	r3, [r7, #32]
    HAL_GPIO_Init(GPIOA, &GPIO_InitStruct);
 8001698:	f107 0318 	add.w	r3, r7, #24
 800169c:	4619      	mov	r1, r3
 800169e:	4833      	ldr	r0, [pc, #204]	; (800176c <MX_GPIO_Init+0x1b0>)
 80016a0:	f002 ffe8 	bl	8004674 <HAL_GPIO_Init>

    /* Настройка PB1 для захвата частоты (TIM3_CH4) */
    GPIO_InitStruct.Pin = GPIO_PIN_1;
 80016a4:	2302      	movs	r3, #2
 80016a6:	61bb      	str	r3, [r7, #24]
    GPIO_InitStruct.Mode = GPIO_MODE_INPUT;
 80016a8:	2300      	movs	r3, #0
 80016aa:	61fb      	str	r3, [r7, #28]
    GPIO_InitStruct.Pull = GPIO_NOPULL;
 80016ac:	2300      	movs	r3, #0
 80016ae:	623b      	str	r3, [r7, #32]
    GPIO_InitStruct.Speed = GPIO_SPEED_FREQ_HIGH;
 80016b0:	2303      	movs	r3, #3
 80016b2:	627b      	str	r3, [r7, #36]	; 0x24
    HAL_GPIO_Init(GPIOB, &GPIO_InitStruct);
 80016b4:	f107 0318 	add.w	r3, r7, #24
 80016b8:	4619      	mov	r1, r3
 80016ba:	482d      	ldr	r0, [pc, #180]	; (8001770 <MX_GPIO_Init+0x1b4>)
 80016bc:	f002 ffda 	bl	8004674 <HAL_GPIO_Init>

    /* Настройка PB5 как выход для генерации импульсов (ручной режим) */
    GPIO_InitStruct.Pin = GPIO_PIN_5;
 80016c0:	2320      	movs	r3, #32
 80016c2:	61bb      	str	r3, [r7, #24]
    GPIO_InitStruct.Mode = GPIO_MODE_OUTPUT_PP;
 80016c4:	2301      	movs	r3, #1
 80016c6:	61fb      	str	r3, [r7, #28]
    GPIO_InitStruct.Pull = GPIO_NOPULL;
 80016c8:	2300      	movs	r3, #0
 80016ca:	623b      	str	r3, [r7, #32]
    GPIO_InitStruct.Speed = GPIO_SPEED_FREQ_HIGH;
 80016cc:	2303      	movs	r3, #3
 80016ce:	627b      	str	r3, [r7, #36]	; 0x24
    HAL_GPIO_Init(GPIOB, &GPIO_InitStruct);
 80016d0:	f107 0318 	add.w	r3, r7, #24
 80016d4:	4619      	mov	r1, r3
 80016d6:	4826      	ldr	r0, [pc, #152]	; (8001770 <MX_GPIO_Init+0x1b4>)
 80016d8:	f002 ffcc 	bl	8004674 <HAL_GPIO_Init>

    /* Настройка PB6 как альтернативной функции для TIM4_CH1 */
    GPIO_InitStruct.Pin = GPIO_PIN_6;
 80016dc:	2340      	movs	r3, #64	; 0x40
 80016de:	61bb      	str	r3, [r7, #24]
    GPIO_InitStruct.Mode = GPIO_MODE_AF_PP;
 80016e0:	2302      	movs	r3, #2
 80016e2:	61fb      	str	r3, [r7, #28]
    GPIO_InitStruct.Pull = GPIO_NOPULL;
 80016e4:	2300      	movs	r3, #0
 80016e6:	623b      	str	r3, [r7, #32]
    GPIO_InitStruct.Speed = GPIO_SPEED_FREQ_HIGH;
 80016e8:	2303      	movs	r3, #3
 80016ea:	627b      	str	r3, [r7, #36]	; 0x24
    HAL_GPIO_Init(GPIOB, &GPIO_InitStruct);
 80016ec:	f107 0318 	add.w	r3, r7, #24
 80016f0:	4619      	mov	r1, r3
 80016f2:	481f      	ldr	r0, [pc, #124]	; (8001770 <MX_GPIO_Init+0x1b4>)
 80016f4:	f002 ffbe 	bl	8004674 <HAL_GPIO_Init>

    /* Настройка USART1 (PA9-TX, PA10-RX) */
    GPIO_InitStruct.Pin = GPIO_PIN_9;
 80016f8:	f44f 7300 	mov.w	r3, #512	; 0x200
 80016fc:	61bb      	str	r3, [r7, #24]
    GPIO_InitStruct.Mode = GPIO_MODE_AF_PP;
 80016fe:	2302      	movs	r3, #2
 8001700:	61fb      	str	r3, [r7, #28]
    GPIO_InitStruct.Speed = GPIO_SPEED_FREQ_HIGH;
 8001702:	2303      	movs	r3, #3
 8001704:	627b      	str	r3, [r7, #36]	; 0x24
    HAL_GPIO_Init(GPIOA, &GPIO_InitStruct);
 8001706:	f107 0318 	add.w	r3, r7, #24
 800170a:	4619      	mov	r1, r3
 800170c:	4817      	ldr	r0, [pc, #92]	; (800176c <MX_GPIO_Init+0x1b0>)
 800170e:	f002 ffb1 	bl	8004674 <HAL_GPIO_Init>

    GPIO_InitStruct.Pin = GPIO_PIN_10;
 8001712:	f44f 6380 	mov.w	r3, #1024	; 0x400
 8001716:	61bb      	str	r3, [r7, #24]
    GPIO_InitStruct.Mode = GPIO_MODE_INPUT;
 8001718:	2300      	movs	r3, #0
 800171a:	61fb      	str	r3, [r7, #28]
    GPIO_InitStruct.Pull = GPIO_PULLUP;
 800171c:	2301      	movs	r3, #1
 800171e:	623b      	str	r3, [r7, #32]
    HAL_GPIO_Init(GPIOA, &GPIO_InitStruct);
 8001720:	f107 0318 	add.w	r3, r7, #24
 8001724:	4619      	mov	r1, r3
 8001726:	4811      	ldr	r0, [pc, #68]	; (800176c <MX_GPIO_Init+0x1b0>)
 8001728:	f002 ffa4 	bl	8004674 <HAL_GPIO_Init>

    /* Настройка USART2 (PA2-TX, PA3-RX) */
    GPIO_InitStruct.Pin = GPIO_PIN_2;
 800172c:	2304      	movs	r3, #4
 800172e:	61bb      	str	r3, [r7, #24]
    GPIO_InitStruct.Mode = GPIO_MODE_AF_PP;
 8001730:	2302      	movs	r3, #2
 8001732:	61fb      	str	r3, [r7, #28]
    GPIO_InitStruct.Speed = GPIO_SPEED_FREQ_HIGH;
 8001734:	2303      	movs	r3, #3
 8001736:	627b      	str	r3, [r7, #36]	; 0x24
    HAL_GPIO_Init(GPIOA, &GPIO_InitStruct);
 8001738:	f107 0318 	add.w	r3, r7, #24
 800173c:	4619      	mov	r1, r3
 800173e:	480b      	ldr	r0, [pc, #44]	; (800176c <MX_GPIO_Init+0x1b0>)
 8001740:	f002 ff98 	bl	8004674 <HAL_GPIO_Init>

    GPIO_InitStruct.Pin = GPIO_PIN_3;
 8001744:	2308      	movs	r3, #8
 8001746:	61bb      	str	r3, [r7, #24]
    GPIO_InitStruct.Mode = GPIO_MODE_INPUT;
 8001748:	2300      	movs	r3, #0
 800174a:	61fb      	str	r3, [r7, #28]
    GPIO_InitStruct.Pull = GPIO_PULLUP;
 800174c:	2301      	movs	r3, #1
 800174e:	623b      	str	r3, [r7, #32]
    HAL_GPIO_Init(GPIOA, &GPIO_InitStruct);
 8001750:	f107 0318 	add.w	r3, r7, #24
 8001754:	4619      	mov	r1, r3
 8001756:	4805      	ldr	r0, [pc, #20]	; (800176c <MX_GPIO_Init+0x1b0>)
 8001758:	f002 ff8c 	bl	8004674 <HAL_GPIO_Init>
}
 800175c:	bf00      	nop
 800175e:	3728      	adds	r7, #40	; 0x28
 8001760:	46bd      	mov	sp, r7
 8001762:	bd80      	pop	{r7, pc}
 8001764:	40021000 	.word	0x40021000
 8001768:	40011000 	.word	0x40011000
 800176c:	40010800 	.word	0x40010800
 8001770:	40010c00 	.word	0x40010c00

08001774 <MX_USART1_UART_Init>:

/**
  * @brief USART1 Initialization Function (ModBus)
  */
static void MX_USART1_UART_Init(void)
{
 8001774:	b580      	push	{r7, lr}
 8001776:	af00      	add	r7, sp, #0
    huart1.Instance = USART1;
 8001778:	4b11      	ldr	r3, [pc, #68]	; (80017c0 <MX_USART1_UART_Init+0x4c>)
 800177a:	4a12      	ldr	r2, [pc, #72]	; (80017c4 <MX_USART1_UART_Init+0x50>)
 800177c:	601a      	str	r2, [r3, #0]
    huart1.Init.BaudRate = 9600;
 800177e:	4b10      	ldr	r3, [pc, #64]	; (80017c0 <MX_USART1_UART_Init+0x4c>)
 8001780:	f44f 5216 	mov.w	r2, #9600	; 0x2580
 8001784:	605a      	str	r2, [r3, #4]
    huart1.Init.WordLength = UART_WORDLENGTH_8B;
 8001786:	4b0e      	ldr	r3, [pc, #56]	; (80017c0 <MX_USART1_UART_Init+0x4c>)
 8001788:	2200      	movs	r2, #0
 800178a:	609a      	str	r2, [r3, #8]
    huart1.Init.StopBits = UART_STOPBITS_1;
 800178c:	4b0c      	ldr	r3, [pc, #48]	; (80017c0 <MX_USART1_UART_Init+0x4c>)
 800178e:	2200      	movs	r2, #0
 8001790:	60da      	str	r2, [r3, #12]
    huart1.Init.Parity = UART_PARITY_NONE;
 8001792:	4b0b      	ldr	r3, [pc, #44]	; (80017c0 <MX_USART1_UART_Init+0x4c>)
 8001794:	2200      	movs	r2, #0
 8001796:	611a      	str	r2, [r3, #16]
    huart1.Init.Mode = UART_MODE_TX_RX;
 8001798:	4b09      	ldr	r3, [pc, #36]	; (80017c0 <MX_USART1_UART_Init+0x4c>)
 800179a:	220c      	movs	r2, #12
 800179c:	615a      	str	r2, [r3, #20]
    huart1.Init.HwFlowCtl = UART_HWCONTROL_NONE;
 800179e:	4b08      	ldr	r3, [pc, #32]	; (80017c0 <MX_USART1_UART_Init+0x4c>)
 80017a0:	2200      	movs	r2, #0
 80017a2:	619a      	str	r2, [r3, #24]
    huart1.Init.OverSampling = UART_OVERSAMPLING_16;
 80017a4:	4b06      	ldr	r3, [pc, #24]	; (80017c0 <MX_USART1_UART_Init+0x4c>)
 80017a6:	2200      	movs	r2, #0
 80017a8:	61da      	str	r2, [r3, #28]
    if (HAL_UART_Init(&huart1) != HAL_OK)
 80017aa:	4805      	ldr	r0, [pc, #20]	; (80017c0 <MX_USART1_UART_Init+0x4c>)
 80017ac:	f004 fb6a 	bl	8005e84 <HAL_UART_Init>
 80017b0:	4603      	mov	r3, r0
 80017b2:	2b00      	cmp	r3, #0
 80017b4:	d001      	beq.n	80017ba <MX_USART1_UART_Init+0x46>
    {
        Error_Handler();
 80017b6:	f000 f907 	bl	80019c8 <Error_Handler>
    }
}
 80017ba:	bf00      	nop
 80017bc:	bd80      	pop	{r7, pc}
 80017be:	bf00      	nop
 80017c0:	20000038 	.word	0x20000038
 80017c4:	40013800 	.word	0x40013800

080017c8 <MX_USART2_UART_Init>:

/**
  * @brief USART2 Initialization Function (Debug)
  */
static void MX_USART2_UART_Init(void)
{
 80017c8:	b580      	push	{r7, lr}
 80017ca:	af00      	add	r7, sp, #0
    huart2.Instance = USART2;
 80017cc:	4b11      	ldr	r3, [pc, #68]	; (8001814 <MX_USART2_UART_Init+0x4c>)
 80017ce:	4a12      	ldr	r2, [pc, #72]	; (8001818 <MX_USART2_UART_Init+0x50>)
 80017d0:	601a      	str	r2, [r3, #0]
    huart2.Init.BaudRate = 115200;
 80017d2:	4b10      	ldr	r3, [pc, #64]	; (8001814 <MX_USART2_UART_Init+0x4c>)
 80017d4:	f44f 32e1 	mov.w	r2, #115200	; 0x1c200
 80017d8:	605a      	str	r2, [r3, #4]
    huart2.Init.WordLength = UART_WORDLENGTH_8B;
 80017da:	4b0e      	ldr	r3, [pc, #56]	; (8001814 <MX_USART2_UART_Init+0x4c>)
 80017dc:	2200      	movs	r2, #0
 80017de:	609a      	str	r2, [r3, #8]
    huart2.Init.StopBits = UART_STOPBITS_1;
 80017e0:	4b0c      	ldr	r3, [pc, #48]	; (8001814 <MX_USART2_UART_Init+0x4c>)
 80017e2:	2200      	movs	r2, #0
 80017e4:	60da      	str	r2, [r3, #12]
    huart2.Init.Parity = UART_PARITY_NONE;
 80017e6:	4b0b      	ldr	r3, [pc, #44]	; (8001814 <MX_USART2_UART_Init+0x4c>)
 80017e8:	2200      	movs	r2, #0
 80017ea:	611a      	str	r2, [r3, #16]
    huart2.Init.Mode = UART_MODE_TX_RX;
 80017ec:	4b09      	ldr	r3, [pc, #36]	; (8001814 <MX_USART2_UART_Init+0x4c>)
 80017ee:	220c      	movs	r2, #12
 80017f0:	615a      	str	r2, [r3, #20]
    huart2.Init.HwFlowCtl = UART_HWCONTROL_NONE;
 80017f2:	4b08      	ldr	r3, [pc, #32]	; (8001814 <MX_USART2_UART_Init+0x4c>)
 80017f4:	2200      	movs	r2, #0
 80017f6:	619a      	str	r2, [r3, #24]
    huart2.Init.OverSampling = UART_OVERSAMPLING_16;
 80017f8:	4b06      	ldr	r3, [pc, #24]	; (8001814 <MX_USART2_UART_Init+0x4c>)
 80017fa:	2200      	movs	r2, #0
 80017fc:	61da      	str	r2, [r3, #28]
    if (HAL_UART_Init(&huart2) != HAL_OK)
 80017fe:	4805      	ldr	r0, [pc, #20]	; (8001814 <MX_USART2_UART_Init+0x4c>)
 8001800:	f004 fb40 	bl	8005e84 <HAL_UART_Init>
 8001804:	4603      	mov	r3, r0
 8001806:	2b00      	cmp	r3, #0
 8001808:	d001      	beq.n	800180e <MX_USART2_UART_Init+0x46>
    {
        Error_Handler();
 800180a:	f000 f8dd 	bl	80019c8 <Error_Handler>
    }
}
 800180e:	bf00      	nop
 8001810:	bd80      	pop	{r7, pc}
 8001812:	bf00      	nop
 8001814:	2000007c 	.word	0x2000007c
 8001818:	40004400 	.word	0x40004400

0800181c <MX_ADC1_Init>:

/**
  * @brief ADC1 Initialization Function
  */
static void MX_ADC1_Init(void)
{
 800181c:	b580      	push	{r7, lr}
 800181e:	b084      	sub	sp, #16
 8001820:	af00      	add	r7, sp, #0
    ADC_ChannelConfTypeDef sConfig = {0};
 8001822:	1d3b      	adds	r3, r7, #4
 8001824:	2200      	movs	r2, #0
 8001826:	601a      	str	r2, [r3, #0]
 8001828:	605a      	str	r2, [r3, #4]
 800182a:	609a      	str	r2, [r3, #8]

    hadc1.Instance = ADC1;
 800182c:	4b18      	ldr	r3, [pc, #96]	; (8001890 <MX_ADC1_Init+0x74>)
 800182e:	4a19      	ldr	r2, [pc, #100]	; (8001894 <MX_ADC1_Init+0x78>)
 8001830:	601a      	str	r2, [r3, #0]
    hadc1.Init.ScanConvMode = ADC_SCAN_DISABLE;
 8001832:	4b17      	ldr	r3, [pc, #92]	; (8001890 <MX_ADC1_Init+0x74>)
 8001834:	2200      	movs	r2, #0
 8001836:	609a      	str	r2, [r3, #8]
    hadc1.Init.ContinuousConvMode = DISABLE;
 8001838:	4b15      	ldr	r3, [pc, #84]	; (8001890 <MX_ADC1_Init+0x74>)
 800183a:	2200      	movs	r2, #0
 800183c:	731a      	strb	r2, [r3, #12]
    hadc1.Init.DiscontinuousConvMode = DISABLE;
 800183e:	4b14      	ldr	r3, [pc, #80]	; (8001890 <MX_ADC1_Init+0x74>)
 8001840:	2200      	movs	r2, #0
 8001842:	751a      	strb	r2, [r3, #20]
    hadc1.Init.ExternalTrigConv = ADC_SOFTWARE_START;
 8001844:	4b12      	ldr	r3, [pc, #72]	; (8001890 <MX_ADC1_Init+0x74>)
 8001846:	f44f 2260 	mov.w	r2, #917504	; 0xe0000
 800184a:	61da      	str	r2, [r3, #28]
    hadc1.Init.DataAlign = ADC_DATAALIGN_RIGHT;
 800184c:	4b10      	ldr	r3, [pc, #64]	; (8001890 <MX_ADC1_Init+0x74>)
 800184e:	2200      	movs	r2, #0
 8001850:	605a      	str	r2, [r3, #4]
    hadc1.Init.NbrOfConversion = 1;
 8001852:	4b0f      	ldr	r3, [pc, #60]	; (8001890 <MX_ADC1_Init+0x74>)
 8001854:	2201      	movs	r2, #1
 8001856:	611a      	str	r2, [r3, #16]
    if (HAL_ADC_Init(&hadc1) != HAL_OK)
 8001858:	480d      	ldr	r0, [pc, #52]	; (8001890 <MX_ADC1_Init+0x74>)
 800185a:	f001 ff69 	bl	8003730 <HAL_ADC_Init>
 800185e:	4603      	mov	r3, r0
 8001860:	2b00      	cmp	r3, #0
 8001862:	d001      	beq.n	8001868 <MX_ADC1_Init+0x4c>
    {
        Error_Handler();
 8001864:	f000 f8b0 	bl	80019c8 <Error_Handler>
    }

    sConfig.Channel = ADC_CHANNEL_0;
 8001868:	2300      	movs	r3, #0
 800186a:	607b      	str	r3, [r7, #4]
    sConfig.Rank = ADC_REGULAR_RANK_1;
 800186c:	2301      	movs	r3, #1
 800186e:	60bb      	str	r3, [r7, #8]
    sConfig.SamplingTime = ADC_SAMPLETIME_239CYCLES_5;
 8001870:	2307      	movs	r3, #7
 8001872:	60fb      	str	r3, [r7, #12]
    if (HAL_ADC_ConfigChannel(&hadc1, &sConfig) != HAL_OK)
 8001874:	1d3b      	adds	r3, r7, #4
 8001876:	4619      	mov	r1, r3
 8001878:	4805      	ldr	r0, [pc, #20]	; (8001890 <MX_ADC1_Init+0x74>)
 800187a:	f002 faf3 	bl	8003e64 <HAL_ADC_ConfigChannel>
 800187e:	4603      	mov	r3, r0
 8001880:	2b00      	cmp	r3, #0
 8001882:	d001      	beq.n	8001888 <MX_ADC1_Init+0x6c>
    {
        Error_Handler();
 8001884:	f000 f8a0 	bl	80019c8 <Error_Handler>
    }
}
 8001888:	bf00      	nop
 800188a:	3710      	adds	r7, #16
 800188c:	46bd      	mov	sp, r7
 800188e:	bd80      	pop	{r7, pc}
 8001890:	200000c0 	.word	0x200000c0
 8001894:	40012400 	.word	0x40012400

08001898 <MX_ADC2_Init>:

/**
  * @brief ADC2 Initialization Function
  */
static void MX_ADC2_Init(void)
{
 8001898:	b580      	push	{r7, lr}
 800189a:	b084      	sub	sp, #16
 800189c:	af00      	add	r7, sp, #0
    ADC_ChannelConfTypeDef sConfig = {0};
 800189e:	1d3b      	adds	r3, r7, #4
 80018a0:	2200      	movs	r2, #0
 80018a2:	601a      	str	r2, [r3, #0]
 80018a4:	605a      	str	r2, [r3, #4]
 80018a6:	609a      	str	r2, [r3, #8]

    hadc2.Instance = ADC2;
 80018a8:	4b18      	ldr	r3, [pc, #96]	; (800190c <MX_ADC2_Init+0x74>)
 80018aa:	4a19      	ldr	r2, [pc, #100]	; (8001910 <MX_ADC2_Init+0x78>)
 80018ac:	601a      	str	r2, [r3, #0]
    hadc2.Init.ScanConvMode = ADC_SCAN_DISABLE;
 80018ae:	4b17      	ldr	r3, [pc, #92]	; (800190c <MX_ADC2_Init+0x74>)
 80018b0:	2200      	movs	r2, #0
 80018b2:	609a      	str	r2, [r3, #8]
    hadc2.Init.ContinuousConvMode = DISABLE;
 80018b4:	4b15      	ldr	r3, [pc, #84]	; (800190c <MX_ADC2_Init+0x74>)
 80018b6:	2200      	movs	r2, #0
 80018b8:	731a      	strb	r2, [r3, #12]
    hadc2.Init.DiscontinuousConvMode = DISABLE;
 80018ba:	4b14      	ldr	r3, [pc, #80]	; (800190c <MX_ADC2_Init+0x74>)
 80018bc:	2200      	movs	r2, #0
 80018be:	751a      	strb	r2, [r3, #20]
    hadc2.Init.ExternalTrigConv = ADC_SOFTWARE_START;
 80018c0:	4b12      	ldr	r3, [pc, #72]	; (800190c <MX_ADC2_Init+0x74>)
 80018c2:	f44f 2260 	mov.w	r2, #917504	; 0xe0000
 80018c6:	61da      	str	r2, [r3, #28]
    hadc2.Init.DataAlign = ADC_DATAALIGN_RIGHT;
 80018c8:	4b10      	ldr	r3, [pc, #64]	; (800190c <MX_ADC2_Init+0x74>)
 80018ca:	2200      	movs	r2, #0
 80018cc:	605a      	str	r2, [r3, #4]
    hadc2.Init.NbrOfConversion = 1;
 80018ce:	4b0f      	ldr	r3, [pc, #60]	; (800190c <MX_ADC2_Init+0x74>)
 80018d0:	2201      	movs	r2, #1
 80018d2:	611a      	str	r2, [r3, #16]
    if (HAL_ADC_Init(&hadc2) != HAL_OK)
 80018d4:	480d      	ldr	r0, [pc, #52]	; (800190c <MX_ADC2_Init+0x74>)
 80018d6:	f001 ff2b 	bl	8003730 <HAL_ADC_Init>
 80018da:	4603      	mov	r3, r0
 80018dc:	2b00      	cmp	r3, #0
 80018de:	d001      	beq.n	80018e4 <MX_ADC2_Init+0x4c>
    {
        Error_Handler();
 80018e0:	f000 f872 	bl	80019c8 <Error_Handler>
    }

    sConfig.Channel = ADC_CHANNEL_1;
 80018e4:	2301      	movs	r3, #1
 80018e6:	607b      	str	r3, [r7, #4]
    sConfig.Rank = ADC_REGULAR_RANK_1;
 80018e8:	2301      	movs	r3, #1
 80018ea:	60bb      	str	r3, [r7, #8]
    sConfig.SamplingTime = ADC_SAMPLETIME_239CYCLES_5;
 80018ec:	2307      	movs	r3, #7
 80018ee:	60fb      	str	r3, [r7, #12]
    if (HAL_ADC_ConfigChannel(&hadc2, &sConfig) != HAL_OK)
 80018f0:	1d3b      	adds	r3, r7, #4
 80018f2:	4619      	mov	r1, r3
 80018f4:	4805      	ldr	r0, [pc, #20]	; (800190c <MX_ADC2_Init+0x74>)
 80018f6:	f002 fab5 	bl	8003e64 <HAL_ADC_ConfigChannel>
 80018fa:	4603      	mov	r3, r0
 80018fc:	2b00      	cmp	r3, #0
 80018fe:	d001      	beq.n	8001904 <MX_ADC2_Init+0x6c>
    {
        Error_Handler();
 8001900:	f000 f862 	bl	80019c8 <Error_Handler>
    }
}
 8001904:	bf00      	nop
 8001906:	3710      	adds	r7, #16
 8001908:	46bd      	mov	sp, r7
 800190a:	bd80      	pop	{r7, pc}
 800190c:	200000f0 	.word	0x200000f0
 8001910:	40012800 	.word	0x40012800

08001914 <MX_TIM4_Init>:

/**
  * @brief TIM4 Initialization Function (генерация импульсов)
  */
static void MX_TIM4_Init(void)
{
 8001914:	b580      	push	{r7, lr}
 8001916:	b088      	sub	sp, #32
 8001918:	af00      	add	r7, sp, #0
    /* Включаем тактирование TIM4 */
    __HAL_RCC_TIM4_CLK_ENABLE();
 800191a:	4b27      	ldr	r3, [pc, #156]	; (80019b8 <MX_TIM4_Init+0xa4>)
 800191c:	69db      	ldr	r3, [r3, #28]
 800191e:	4a26      	ldr	r2, [pc, #152]	; (80019b8 <MX_TIM4_Init+0xa4>)
 8001920:	f043 0304 	orr.w	r3, r3, #4
 8001924:	61d3      	str	r3, [r2, #28]
 8001926:	4b24      	ldr	r3, [pc, #144]	; (80019b8 <MX_TIM4_Init+0xa4>)
 8001928:	69db      	ldr	r3, [r3, #28]
 800192a:	f003 0304 	and.w	r3, r3, #4
 800192e:	603b      	str	r3, [r7, #0]
 8001930:	683b      	ldr	r3, [r7, #0]

    /* Базовая инициализация таймера */
    htim4.Instance = TIM4;
 8001932:	4b22      	ldr	r3, [pc, #136]	; (80019bc <MX_TIM4_Init+0xa8>)
 8001934:	4a22      	ldr	r2, [pc, #136]	; (80019c0 <MX_TIM4_Init+0xac>)
 8001936:	601a      	str	r2, [r3, #0]
    htim4.Init.Prescaler = 72 - 1;  // 72 МГц / 72 = 1 МГц (1 тик = 1 мкс)
 8001938:	4b20      	ldr	r3, [pc, #128]	; (80019bc <MX_TIM4_Init+0xa8>)
 800193a:	2247      	movs	r2, #71	; 0x47
 800193c:	605a      	str	r2, [r3, #4]
    htim4.Init.CounterMode = TIM_COUNTERMODE_UP;
 800193e:	4b1f      	ldr	r3, [pc, #124]	; (80019bc <MX_TIM4_Init+0xa8>)
 8001940:	2200      	movs	r2, #0
 8001942:	609a      	str	r2, [r3, #8]
    htim4.Init.Period = 100000 - 1;  // 100000 мкс = 100 мс (10 Гц)
 8001944:	4b1d      	ldr	r3, [pc, #116]	; (80019bc <MX_TIM4_Init+0xa8>)
 8001946:	4a1f      	ldr	r2, [pc, #124]	; (80019c4 <MX_TIM4_Init+0xb0>)
 8001948:	60da      	str	r2, [r3, #12]
    htim4.Init.ClockDivision = TIM_CLOCKDIVISION_DIV1;
 800194a:	4b1c      	ldr	r3, [pc, #112]	; (80019bc <MX_TIM4_Init+0xa8>)
 800194c:	2200      	movs	r2, #0
 800194e:	611a      	str	r2, [r3, #16]
    htim4.Init.AutoReloadPreload = TIM_AUTORELOAD_PRELOAD_ENABLE;
 8001950:	4b1a      	ldr	r3, [pc, #104]	; (80019bc <MX_TIM4_Init+0xa8>)
 8001952:	2280      	movs	r2, #128	; 0x80
 8001954:	619a      	str	r2, [r3, #24]

    if (HAL_TIM_Base_Init(&htim4) != HAL_OK)
 8001956:	4819      	ldr	r0, [pc, #100]	; (80019bc <MX_TIM4_Init+0xa8>)
 8001958:	f003 fdf4 	bl	8005544 <HAL_TIM_Base_Init>
 800195c:	4603      	mov	r3, r0
 800195e:	2b00      	cmp	r3, #0
 8001960:	d001      	beq.n	8001966 <MX_TIM4_Init+0x52>
    {
        Error_Handler();
 8001962:	f000 f831 	bl	80019c8 <Error_Handler>
    }

    /* Инициализация канала 1 в режиме PWM */
    TIM_OC_InitTypeDef sConfigOC = {0};
 8001966:	1d3b      	adds	r3, r7, #4
 8001968:	2200      	movs	r2, #0
 800196a:	601a      	str	r2, [r3, #0]
 800196c:	605a      	str	r2, [r3, #4]
 800196e:	609a      	str	r2, [r3, #8]
 8001970:	60da      	str	r2, [r3, #12]
 8001972:	611a      	str	r2, [r3, #16]
 8001974:	615a      	str	r2, [r3, #20]
 8001976:	619a      	str	r2, [r3, #24]
    sConfigOC.OCMode = TIM_OCMODE_PWM1;
 8001978:	2360      	movs	r3, #96	; 0x60
 800197a:	607b      	str	r3, [r7, #4]
    sConfigOC.Pulse = 10 - 1;  // Ширина импульса 10 мкс
 800197c:	2309      	movs	r3, #9
 800197e:	60bb      	str	r3, [r7, #8]
    sConfigOC.OCPolarity = TIM_OCPOLARITY_HIGH;
 8001980:	2300      	movs	r3, #0
 8001982:	60fb      	str	r3, [r7, #12]
    sConfigOC.OCFastMode = TIM_OCFAST_DISABLE;
 8001984:	2300      	movs	r3, #0
 8001986:	617b      	str	r3, [r7, #20]

    if (HAL_TIM_PWM_Init(&htim4) != HAL_OK)
 8001988:	480c      	ldr	r0, [pc, #48]	; (80019bc <MX_TIM4_Init+0xa8>)
 800198a:	f003 fe33 	bl	80055f4 <HAL_TIM_PWM_Init>
 800198e:	4603      	mov	r3, r0
 8001990:	2b00      	cmp	r3, #0
 8001992:	d001      	beq.n	8001998 <MX_TIM4_Init+0x84>
    {
        Error_Handler();
 8001994:	f000 f818 	bl	80019c8 <Error_Handler>
    }

    if (HAL_TIM_PWM_ConfigChannel(&htim4, &sConfigOC, TIM_CHANNEL_1) != HAL_OK)
 8001998:	1d3b      	adds	r3, r7, #4
 800199a:	2200      	movs	r2, #0
 800199c:	4619      	mov	r1, r3
 800199e:	4807      	ldr	r0, [pc, #28]	; (80019bc <MX_TIM4_Init+0xa8>)
 80019a0:	f003 ff88 	bl	80058b4 <HAL_TIM_PWM_ConfigChannel>
 80019a4:	4603      	mov	r3, r0
 80019a6:	2b00      	cmp	r3, #0
 80019a8:	d001      	beq.n	80019ae <MX_TIM4_Init+0x9a>
    {
        Error_Handler();
 80019aa:	f000 f80d 	bl	80019c8 <Error_Handler>
    }
}
 80019ae:	bf00      	nop
 80019b0:	3720      	adds	r7, #32
 80019b2:	46bd      	mov	sp, r7
 80019b4:	bd80      	pop	{r7, pc}
 80019b6:	bf00      	nop
 80019b8:	40021000 	.word	0x40021000
 80019bc:	20000120 	.word	0x20000120
 80019c0:	40000800 	.word	0x40000800
 80019c4:	0001869f 	.word	0x0001869f

080019c8 <Error_Handler>:

/**
  * @brief  This function is executed in case of error occurrence.
  */
void Error_Handler(void)
{
 80019c8:	b580      	push	{r7, lr}
 80019ca:	af00      	add	r7, sp, #0
  \details Disables IRQ interrupts by setting the I-bit in the CPSR.
           Can only be executed in Privileged modes.
 */
__STATIC_FORCEINLINE void __disable_irq(void)
{
  __ASM volatile ("cpsid i" : : : "memory");
 80019cc:	b672      	cpsid	i
}
 80019ce:	bf00      	nop
    __disable_irq();
    while (1)
    {
        HAL_GPIO_TogglePin(GPIOC, GPIO_PIN_13);
 80019d0:	f44f 5100 	mov.w	r1, #8192	; 0x2000
 80019d4:	4803      	ldr	r0, [pc, #12]	; (80019e4 <Error_Handler+0x1c>)
 80019d6:	f002 ffe9 	bl	80049ac <HAL_GPIO_TogglePin>
        HAL_Delay(100);
 80019da:	2064      	movs	r0, #100	; 0x64
 80019dc:	f001 fe84 	bl	80036e8 <HAL_Delay>
        HAL_GPIO_TogglePin(GPIOC, GPIO_PIN_13);
 80019e0:	e7f6      	b.n	80019d0 <Error_Handler+0x8>
 80019e2:	bf00      	nop
 80019e4:	40011000 	.word	0x40011000

080019e8 <modbus_uint32_to_str>:
/* Внешние переменные -----------------------------------------------------*/
extern UART_HandleTypeDef huart1;

/* Вспомогательная функция для преобразования числа в строку в modbus.c */
static void modbus_uint32_to_str(uint32_t value, char* buffer)
{
 80019e8:	b480      	push	{r7}
 80019ea:	b089      	sub	sp, #36	; 0x24
 80019ec:	af00      	add	r7, sp, #0
 80019ee:	6078      	str	r0, [r7, #4]
 80019f0:	6039      	str	r1, [r7, #0]
    if (value == 0) {
 80019f2:	687b      	ldr	r3, [r7, #4]
 80019f4:	2b00      	cmp	r3, #0
 80019f6:	d107      	bne.n	8001a08 <modbus_uint32_to_str+0x20>
        buffer[0] = '0';
 80019f8:	683b      	ldr	r3, [r7, #0]
 80019fa:	2230      	movs	r2, #48	; 0x30
 80019fc:	701a      	strb	r2, [r3, #0]
        buffer[1] = '\0';
 80019fe:	683b      	ldr	r3, [r7, #0]
 8001a00:	3301      	adds	r3, #1
 8001a02:	2200      	movs	r2, #0
 8001a04:	701a      	strb	r2, [r3, #0]
 8001a06:	e03d      	b.n	8001a84 <modbus_uint32_to_str+0x9c>
        return;
    }

    char temp[16];
    int i = 0;
 8001a08:	2300      	movs	r3, #0
 8001a0a:	61fb      	str	r3, [r7, #28]

    while (value > 0 && i < 15) {
 8001a0c:	e019      	b.n	8001a42 <modbus_uint32_to_str+0x5a>
        temp[i++] = (value % 10) + '0';
 8001a0e:	6879      	ldr	r1, [r7, #4]
 8001a10:	4b1e      	ldr	r3, [pc, #120]	; (8001a8c <modbus_uint32_to_str+0xa4>)
 8001a12:	fba3 2301 	umull	r2, r3, r3, r1
 8001a16:	08da      	lsrs	r2, r3, #3
 8001a18:	4613      	mov	r3, r2
 8001a1a:	009b      	lsls	r3, r3, #2
 8001a1c:	4413      	add	r3, r2
 8001a1e:	005b      	lsls	r3, r3, #1
 8001a20:	1aca      	subs	r2, r1, r3
 8001a22:	b2d2      	uxtb	r2, r2
 8001a24:	69fb      	ldr	r3, [r7, #28]
 8001a26:	1c59      	adds	r1, r3, #1
 8001a28:	61f9      	str	r1, [r7, #28]
 8001a2a:	3230      	adds	r2, #48	; 0x30
 8001a2c:	b2d2      	uxtb	r2, r2
 8001a2e:	3320      	adds	r3, #32
 8001a30:	443b      	add	r3, r7
 8001a32:	f803 2c18 	strb.w	r2, [r3, #-24]
        value /= 10;
 8001a36:	687b      	ldr	r3, [r7, #4]
 8001a38:	4a14      	ldr	r2, [pc, #80]	; (8001a8c <modbus_uint32_to_str+0xa4>)
 8001a3a:	fba2 2303 	umull	r2, r3, r2, r3
 8001a3e:	08db      	lsrs	r3, r3, #3
 8001a40:	607b      	str	r3, [r7, #4]
    while (value > 0 && i < 15) {
 8001a42:	687b      	ldr	r3, [r7, #4]
 8001a44:	2b00      	cmp	r3, #0
 8001a46:	d002      	beq.n	8001a4e <modbus_uint32_to_str+0x66>
 8001a48:	69fb      	ldr	r3, [r7, #28]
 8001a4a:	2b0e      	cmp	r3, #14
 8001a4c:	dddf      	ble.n	8001a0e <modbus_uint32_to_str+0x26>
    }

    for (int j = 0; j < i; j++) {
 8001a4e:	2300      	movs	r3, #0
 8001a50:	61bb      	str	r3, [r7, #24]
 8001a52:	e00e      	b.n	8001a72 <modbus_uint32_to_str+0x8a>
        buffer[j] = temp[i - j - 1];
 8001a54:	69fa      	ldr	r2, [r7, #28]
 8001a56:	69bb      	ldr	r3, [r7, #24]
 8001a58:	1ad3      	subs	r3, r2, r3
 8001a5a:	1e5a      	subs	r2, r3, #1
 8001a5c:	69bb      	ldr	r3, [r7, #24]
 8001a5e:	6839      	ldr	r1, [r7, #0]
 8001a60:	440b      	add	r3, r1
 8001a62:	3220      	adds	r2, #32
 8001a64:	443a      	add	r2, r7
 8001a66:	f812 2c18 	ldrb.w	r2, [r2, #-24]
 8001a6a:	701a      	strb	r2, [r3, #0]
    for (int j = 0; j < i; j++) {
 8001a6c:	69bb      	ldr	r3, [r7, #24]
 8001a6e:	3301      	adds	r3, #1
 8001a70:	61bb      	str	r3, [r7, #24]
 8001a72:	69ba      	ldr	r2, [r7, #24]
 8001a74:	69fb      	ldr	r3, [r7, #28]
 8001a76:	429a      	cmp	r2, r3
 8001a78:	dbec      	blt.n	8001a54 <modbus_uint32_to_str+0x6c>
    }
    buffer[i] = '\0';
 8001a7a:	69fb      	ldr	r3, [r7, #28]
 8001a7c:	683a      	ldr	r2, [r7, #0]
 8001a7e:	4413      	add	r3, r2
 8001a80:	2200      	movs	r2, #0
 8001a82:	701a      	strb	r2, [r3, #0]
}
 8001a84:	3724      	adds	r7, #36	; 0x24
 8001a86:	46bd      	mov	sp, r7
 8001a88:	bc80      	pop	{r7}
 8001a8a:	4770      	bx	lr
 8001a8c:	cccccccd 	.word	0xcccccccd

08001a90 <ModBus_CRC16>:

/* Функции для работы с CRC16 ---------------------------------------------*/
uint16_t ModBus_CRC16(const uint8_t *data, uint16_t length)
{
 8001a90:	b480      	push	{r7}
 8001a92:	b085      	sub	sp, #20
 8001a94:	af00      	add	r7, sp, #0
 8001a96:	6078      	str	r0, [r7, #4]
 8001a98:	460b      	mov	r3, r1
 8001a9a:	807b      	strh	r3, [r7, #2]
    uint16_t crc = MODBUS_CRC_INIT;
 8001a9c:	f64f 73ff 	movw	r3, #65535	; 0xffff
 8001aa0:	81fb      	strh	r3, [r7, #14]
    uint8_t bit;

    while(length--) {
 8001aa2:	e01f      	b.n	8001ae4 <ModBus_CRC16+0x54>
        crc ^= *data++;
 8001aa4:	687b      	ldr	r3, [r7, #4]
 8001aa6:	1c5a      	adds	r2, r3, #1
 8001aa8:	607a      	str	r2, [r7, #4]
 8001aaa:	781b      	ldrb	r3, [r3, #0]
 8001aac:	b29a      	uxth	r2, r3
 8001aae:	89fb      	ldrh	r3, [r7, #14]
 8001ab0:	4053      	eors	r3, r2
 8001ab2:	81fb      	strh	r3, [r7, #14]

        for(bit = 0; bit < 8; bit++) {
 8001ab4:	2300      	movs	r3, #0
 8001ab6:	737b      	strb	r3, [r7, #13]
 8001ab8:	e011      	b.n	8001ade <ModBus_CRC16+0x4e>
            if(crc & 0x0001) {
 8001aba:	89fb      	ldrh	r3, [r7, #14]
 8001abc:	f003 0301 	and.w	r3, r3, #1
 8001ac0:	2b00      	cmp	r3, #0
 8001ac2:	d006      	beq.n	8001ad2 <ModBus_CRC16+0x42>
                crc = (crc >> 1) ^ 0xA001;
 8001ac4:	89fb      	ldrh	r3, [r7, #14]
 8001ac6:	085b      	lsrs	r3, r3, #1
 8001ac8:	b29a      	uxth	r2, r3
 8001aca:	4b0c      	ldr	r3, [pc, #48]	; (8001afc <ModBus_CRC16+0x6c>)
 8001acc:	4053      	eors	r3, r2
 8001ace:	81fb      	strh	r3, [r7, #14]
 8001ad0:	e002      	b.n	8001ad8 <ModBus_CRC16+0x48>
            } else {
                crc >>= 1;
 8001ad2:	89fb      	ldrh	r3, [r7, #14]
 8001ad4:	085b      	lsrs	r3, r3, #1
 8001ad6:	81fb      	strh	r3, [r7, #14]
        for(bit = 0; bit < 8; bit++) {
 8001ad8:	7b7b      	ldrb	r3, [r7, #13]
 8001ada:	3301      	adds	r3, #1
 8001adc:	737b      	strb	r3, [r7, #13]
 8001ade:	7b7b      	ldrb	r3, [r7, #13]
 8001ae0:	2b07      	cmp	r3, #7
 8001ae2:	d9ea      	bls.n	8001aba <ModBus_CRC16+0x2a>
    while(length--) {
 8001ae4:	887b      	ldrh	r3, [r7, #2]
 8001ae6:	1e5a      	subs	r2, r3, #1
 8001ae8:	807a      	strh	r2, [r7, #2]
 8001aea:	2b00      	cmp	r3, #0
 8001aec:	d1da      	bne.n	8001aa4 <ModBus_CRC16+0x14>
            }
        }
    }

    return crc;
 8001aee:	89fb      	ldrh	r3, [r7, #14]
}
 8001af0:	4618      	mov	r0, r3
 8001af2:	3714      	adds	r7, #20
 8001af4:	46bd      	mov	sp, r7
 8001af6:	bc80      	pop	{r7}
 8001af8:	4770      	bx	lr
 8001afa:	bf00      	nop
 8001afc:	ffffa001 	.word	0xffffa001

08001b00 <ModBus_SendException>:

/* Отправка исключения ----------------------------------------------------*/
static void ModBus_SendException(uint8_t function, uint8_t exception_code)
{
 8001b00:	b580      	push	{r7, lr}
 8001b02:	b084      	sub	sp, #16
 8001b04:	af00      	add	r7, sp, #0
 8001b06:	4603      	mov	r3, r0
 8001b08:	460a      	mov	r2, r1
 8001b0a:	71fb      	strb	r3, [r7, #7]
 8001b0c:	4613      	mov	r3, r2
 8001b0e:	71bb      	strb	r3, [r7, #6]
    uint8_t response[5];
    uint16_t crc;

    response[0] = modbus.device_address;
 8001b10:	4b15      	ldr	r3, [pc, #84]	; (8001b68 <ModBus_SendException+0x68>)
 8001b12:	f893 3064 	ldrb.w	r3, [r3, #100]	; 0x64
 8001b16:	723b      	strb	r3, [r7, #8]
    response[1] = function | 0x80;
 8001b18:	79fb      	ldrb	r3, [r7, #7]
 8001b1a:	f063 037f 	orn	r3, r3, #127	; 0x7f
 8001b1e:	b2db      	uxtb	r3, r3
 8001b20:	727b      	strb	r3, [r7, #9]
    response[2] = exception_code;
 8001b22:	79bb      	ldrb	r3, [r7, #6]
 8001b24:	72bb      	strb	r3, [r7, #10]

    crc = ModBus_CRC16(response, 3);
 8001b26:	f107 0308 	add.w	r3, r7, #8
 8001b2a:	2103      	movs	r1, #3
 8001b2c:	4618      	mov	r0, r3
 8001b2e:	f7ff ffaf 	bl	8001a90 <ModBus_CRC16>
 8001b32:	4603      	mov	r3, r0
 8001b34:	81fb      	strh	r3, [r7, #14]
    response[3] = crc & 0xFF;
 8001b36:	89fb      	ldrh	r3, [r7, #14]
 8001b38:	b2db      	uxtb	r3, r3
 8001b3a:	72fb      	strb	r3, [r7, #11]
    response[4] = (crc >> 8) & 0xFF;
 8001b3c:	89fb      	ldrh	r3, [r7, #14]
 8001b3e:	0a1b      	lsrs	r3, r3, #8
 8001b40:	b29b      	uxth	r3, r3
 8001b42:	b2db      	uxtb	r3, r3
 8001b44:	733b      	strb	r3, [r7, #12]

    // Вывод ответа в формате QModMaster
    USART2_PrintModBusResponse(response, 5);
 8001b46:	f107 0308 	add.w	r3, r7, #8
 8001b4a:	2105      	movs	r1, #5
 8001b4c:	4618      	mov	r0, r3
 8001b4e:	f001 f9d9 	bl	8002f04 <USART2_PrintModBusResponse>

    HAL_UART_Transmit(&huart1, response, 5, 200);
 8001b52:	f107 0108 	add.w	r1, r7, #8
 8001b56:	23c8      	movs	r3, #200	; 0xc8
 8001b58:	2205      	movs	r2, #5
 8001b5a:	4804      	ldr	r0, [pc, #16]	; (8001b6c <ModBus_SendException+0x6c>)
 8001b5c:	f004 f9df 	bl	8005f1e <HAL_UART_Transmit>
}
 8001b60:	bf00      	nop
 8001b62:	3710      	adds	r7, #16
 8001b64:	46bd      	mov	sp, r7
 8001b66:	bd80      	pop	{r7, pc}
 8001b68:	2000018c 	.word	0x2000018c
 8001b6c:	20000038 	.word	0x20000038

08001b70 <FloatToRegisters>:

/* Преобразование float в два регистра ------------------------------------*/
static void FloatToRegisters(float value, uint16_t *reg_high, uint16_t *reg_low)
{
 8001b70:	b480      	push	{r7}
 8001b72:	b087      	sub	sp, #28
 8001b74:	af00      	add	r7, sp, #0
 8001b76:	60f8      	str	r0, [r7, #12]
 8001b78:	60b9      	str	r1, [r7, #8]
 8001b7a:	607a      	str	r2, [r7, #4]
    union {
        float f;
        uint32_t u32;
    } converter;

    converter.f = value;
 8001b7c:	68fb      	ldr	r3, [r7, #12]
 8001b7e:	617b      	str	r3, [r7, #20]
    *reg_high = (converter.u32 >> 16) & 0xFFFF;
 8001b80:	697b      	ldr	r3, [r7, #20]
 8001b82:	0c1b      	lsrs	r3, r3, #16
 8001b84:	b29a      	uxth	r2, r3
 8001b86:	68bb      	ldr	r3, [r7, #8]
 8001b88:	801a      	strh	r2, [r3, #0]
    *reg_low = converter.u32 & 0xFFFF;
 8001b8a:	697b      	ldr	r3, [r7, #20]
 8001b8c:	b29a      	uxth	r2, r3
 8001b8e:	687b      	ldr	r3, [r7, #4]
 8001b90:	801a      	strh	r2, [r3, #0]
}
 8001b92:	bf00      	nop
 8001b94:	371c      	adds	r7, #28
 8001b96:	46bd      	mov	sp, r7
 8001b98:	bc80      	pop	{r7}
 8001b9a:	4770      	bx	lr

08001b9c <ModBus_ReadHoldingRegisters>:

/* Чтение holding регистров (функция 0x03) --------------------------------*/
static void ModBus_ReadHoldingRegisters(uint16_t start_addr, uint16_t reg_count)
{
 8001b9c:	b580      	push	{r7, lr}
 8001b9e:	b0c6      	sub	sp, #280	; 0x118
 8001ba0:	af00      	add	r7, sp, #0
 8001ba2:	4602      	mov	r2, r0
 8001ba4:	f507 738c 	add.w	r3, r7, #280	; 0x118
 8001ba8:	f5a3 7389 	sub.w	r3, r3, #274	; 0x112
 8001bac:	801a      	strh	r2, [r3, #0]
 8001bae:	f507 738c 	add.w	r3, r7, #280	; 0x118
 8001bb2:	f5a3 738a 	sub.w	r3, r3, #276	; 0x114
 8001bb6:	460a      	mov	r2, r1
 8001bb8:	801a      	strh	r2, [r3, #0]
    if (start_addr >= HOLD_HOLDING_REG_COUNT) {
 8001bba:	f507 738c 	add.w	r3, r7, #280	; 0x118
 8001bbe:	f5a3 7389 	sub.w	r3, r3, #274	; 0x112
 8001bc2:	881b      	ldrh	r3, [r3, #0]
 8001bc4:	2b1f      	cmp	r3, #31
 8001bc6:	d904      	bls.n	8001bd2 <ModBus_ReadHoldingRegisters+0x36>
        ModBus_SendException(0x03, MODBUS_EXCEPTION_ILLEGAL_DATA_ADDRESS);
 8001bc8:	2102      	movs	r1, #2
 8001bca:	2003      	movs	r0, #3
 8001bcc:	f7ff ff98 	bl	8001b00 <ModBus_SendException>
        return;
 8001bd0:	e0cd      	b.n	8001d6e <ModBus_ReadHoldingRegisters+0x1d2>
    }

    if (reg_count == 0 || reg_count > 125) {
 8001bd2:	f507 738c 	add.w	r3, r7, #280	; 0x118
 8001bd6:	f5a3 738a 	sub.w	r3, r3, #276	; 0x114
 8001bda:	881b      	ldrh	r3, [r3, #0]
 8001bdc:	2b00      	cmp	r3, #0
 8001bde:	d006      	beq.n	8001bee <ModBus_ReadHoldingRegisters+0x52>
 8001be0:	f507 738c 	add.w	r3, r7, #280	; 0x118
 8001be4:	f5a3 738a 	sub.w	r3, r3, #276	; 0x114
 8001be8:	881b      	ldrh	r3, [r3, #0]
 8001bea:	2b7d      	cmp	r3, #125	; 0x7d
 8001bec:	d904      	bls.n	8001bf8 <ModBus_ReadHoldingRegisters+0x5c>
        ModBus_SendException(0x03, MODBUS_EXCEPTION_ILLEGAL_DATA_VALUE);
 8001bee:	2103      	movs	r1, #3
 8001bf0:	2003      	movs	r0, #3
 8001bf2:	f7ff ff85 	bl	8001b00 <ModBus_SendException>
        return;
 8001bf6:	e0ba      	b.n	8001d6e <ModBus_ReadHoldingRegisters+0x1d2>
    }

    if (start_addr + reg_count > HOLD_HOLDING_REG_COUNT) {
 8001bf8:	f507 738c 	add.w	r3, r7, #280	; 0x118
 8001bfc:	f5a3 7389 	sub.w	r3, r3, #274	; 0x112
 8001c00:	881a      	ldrh	r2, [r3, #0]
 8001c02:	f507 738c 	add.w	r3, r7, #280	; 0x118
 8001c06:	f5a3 738a 	sub.w	r3, r3, #276	; 0x114
 8001c0a:	881b      	ldrh	r3, [r3, #0]
 8001c0c:	4413      	add	r3, r2
 8001c0e:	2b20      	cmp	r3, #32
 8001c10:	dd04      	ble.n	8001c1c <ModBus_ReadHoldingRegisters+0x80>
        ModBus_SendException(0x03, MODBUS_EXCEPTION_ILLEGAL_DATA_ADDRESS);
 8001c12:	2102      	movs	r1, #2
 8001c14:	2003      	movs	r0, #3
 8001c16:	f7ff ff73 	bl	8001b00 <ModBus_SendException>
        return;
 8001c1a:	e0a8      	b.n	8001d6e <ModBus_ReadHoldingRegisters+0x1d2>
    }

    uint8_t response[256];
    uint16_t index = 0;
 8001c1c:	2300      	movs	r3, #0
 8001c1e:	f8a7 3116 	strh.w	r3, [r7, #278]	; 0x116
    uint16_t bytes_to_send = reg_count * 2;
 8001c22:	f507 738c 	add.w	r3, r7, #280	; 0x118
 8001c26:	f5a3 738a 	sub.w	r3, r3, #276	; 0x114
 8001c2a:	881b      	ldrh	r3, [r3, #0]
 8001c2c:	005b      	lsls	r3, r3, #1
 8001c2e:	f8a7 3112 	strh.w	r3, [r7, #274]	; 0x112

    response[index++] = modbus.device_address;
 8001c32:	f8b7 3116 	ldrh.w	r3, [r7, #278]	; 0x116
 8001c36:	1c5a      	adds	r2, r3, #1
 8001c38:	f8a7 2116 	strh.w	r2, [r7, #278]	; 0x116
 8001c3c:	461a      	mov	r2, r3
 8001c3e:	4b4e      	ldr	r3, [pc, #312]	; (8001d78 <ModBus_ReadHoldingRegisters+0x1dc>)
 8001c40:	f893 1064 	ldrb.w	r1, [r3, #100]	; 0x64
 8001c44:	f507 738c 	add.w	r3, r7, #280	; 0x118
 8001c48:	f5a3 7386 	sub.w	r3, r3, #268	; 0x10c
 8001c4c:	5499      	strb	r1, [r3, r2]
    response[index++] = MODBUS_READ_HOLDING_REGISTERS;
 8001c4e:	f8b7 3116 	ldrh.w	r3, [r7, #278]	; 0x116
 8001c52:	1c5a      	adds	r2, r3, #1
 8001c54:	f8a7 2116 	strh.w	r2, [r7, #278]	; 0x116
 8001c58:	461a      	mov	r2, r3
 8001c5a:	f507 738c 	add.w	r3, r7, #280	; 0x118
 8001c5e:	f5a3 7386 	sub.w	r3, r3, #268	; 0x10c
 8001c62:	2103      	movs	r1, #3
 8001c64:	5499      	strb	r1, [r3, r2]
    response[index++] = bytes_to_send;
 8001c66:	f8b7 3116 	ldrh.w	r3, [r7, #278]	; 0x116
 8001c6a:	1c5a      	adds	r2, r3, #1
 8001c6c:	f8a7 2116 	strh.w	r2, [r7, #278]	; 0x116
 8001c70:	461a      	mov	r2, r3
 8001c72:	f8b7 3112 	ldrh.w	r3, [r7, #274]	; 0x112
 8001c76:	b2d9      	uxtb	r1, r3
 8001c78:	f507 738c 	add.w	r3, r7, #280	; 0x118
 8001c7c:	f5a3 7386 	sub.w	r3, r3, #268	; 0x10c
 8001c80:	5499      	strb	r1, [r3, r2]

    for(uint16_t i = 0; i < reg_count; i++) {
 8001c82:	2300      	movs	r3, #0
 8001c84:	f8a7 3114 	strh.w	r3, [r7, #276]	; 0x114
 8001c88:	e02f      	b.n	8001cea <ModBus_ReadHoldingRegisters+0x14e>
        uint16_t reg_value = modbus.holding_regs[start_addr + i];
 8001c8a:	f507 738c 	add.w	r3, r7, #280	; 0x118
 8001c8e:	f5a3 7389 	sub.w	r3, r3, #274	; 0x112
 8001c92:	881a      	ldrh	r2, [r3, #0]
 8001c94:	f8b7 3114 	ldrh.w	r3, [r7, #276]	; 0x114
 8001c98:	4413      	add	r3, r2
 8001c9a:	4a37      	ldr	r2, [pc, #220]	; (8001d78 <ModBus_ReadHoldingRegisters+0x1dc>)
 8001c9c:	f832 3013 	ldrh.w	r3, [r2, r3, lsl #1]
 8001ca0:	f8a7 310e 	strh.w	r3, [r7, #270]	; 0x10e
        response[index++] = (reg_value >> 8) & 0xFF;
 8001ca4:	f8b7 310e 	ldrh.w	r3, [r7, #270]	; 0x10e
 8001ca8:	0a1b      	lsrs	r3, r3, #8
 8001caa:	b299      	uxth	r1, r3
 8001cac:	f8b7 3116 	ldrh.w	r3, [r7, #278]	; 0x116
 8001cb0:	1c5a      	adds	r2, r3, #1
 8001cb2:	f8a7 2116 	strh.w	r2, [r7, #278]	; 0x116
 8001cb6:	461a      	mov	r2, r3
 8001cb8:	b2c9      	uxtb	r1, r1
 8001cba:	f507 738c 	add.w	r3, r7, #280	; 0x118
 8001cbe:	f5a3 7386 	sub.w	r3, r3, #268	; 0x10c
 8001cc2:	5499      	strb	r1, [r3, r2]
        response[index++] = reg_value & 0xFF;
 8001cc4:	f8b7 3116 	ldrh.w	r3, [r7, #278]	; 0x116
 8001cc8:	1c5a      	adds	r2, r3, #1
 8001cca:	f8a7 2116 	strh.w	r2, [r7, #278]	; 0x116
 8001cce:	461a      	mov	r2, r3
 8001cd0:	f8b7 310e 	ldrh.w	r3, [r7, #270]	; 0x10e
 8001cd4:	b2d9      	uxtb	r1, r3
 8001cd6:	f507 738c 	add.w	r3, r7, #280	; 0x118
 8001cda:	f5a3 7386 	sub.w	r3, r3, #268	; 0x10c
 8001cde:	5499      	strb	r1, [r3, r2]
    for(uint16_t i = 0; i < reg_count; i++) {
 8001ce0:	f8b7 3114 	ldrh.w	r3, [r7, #276]	; 0x114
 8001ce4:	3301      	adds	r3, #1
 8001ce6:	f8a7 3114 	strh.w	r3, [r7, #276]	; 0x114
 8001cea:	f507 738c 	add.w	r3, r7, #280	; 0x118
 8001cee:	f5a3 738a 	sub.w	r3, r3, #276	; 0x114
 8001cf2:	f8b7 2114 	ldrh.w	r2, [r7, #276]	; 0x114
 8001cf6:	881b      	ldrh	r3, [r3, #0]
 8001cf8:	429a      	cmp	r2, r3
 8001cfa:	d3c6      	bcc.n	8001c8a <ModBus_ReadHoldingRegisters+0xee>
    }

    uint16_t crc = ModBus_CRC16(response, index);
 8001cfc:	f8b7 2116 	ldrh.w	r2, [r7, #278]	; 0x116
 8001d00:	f107 030c 	add.w	r3, r7, #12
 8001d04:	4611      	mov	r1, r2
 8001d06:	4618      	mov	r0, r3
 8001d08:	f7ff fec2 	bl	8001a90 <ModBus_CRC16>
 8001d0c:	4603      	mov	r3, r0
 8001d0e:	f8a7 3110 	strh.w	r3, [r7, #272]	; 0x110
    response[index++] = crc & 0xFF;
 8001d12:	f8b7 3116 	ldrh.w	r3, [r7, #278]	; 0x116
 8001d16:	1c5a      	adds	r2, r3, #1
 8001d18:	f8a7 2116 	strh.w	r2, [r7, #278]	; 0x116
 8001d1c:	461a      	mov	r2, r3
 8001d1e:	f8b7 3110 	ldrh.w	r3, [r7, #272]	; 0x110
 8001d22:	b2d9      	uxtb	r1, r3
 8001d24:	f507 738c 	add.w	r3, r7, #280	; 0x118
 8001d28:	f5a3 7386 	sub.w	r3, r3, #268	; 0x10c
 8001d2c:	5499      	strb	r1, [r3, r2]
    response[index++] = (crc >> 8) & 0xFF;
 8001d2e:	f8b7 3110 	ldrh.w	r3, [r7, #272]	; 0x110
 8001d32:	0a1b      	lsrs	r3, r3, #8
 8001d34:	b299      	uxth	r1, r3
 8001d36:	f8b7 3116 	ldrh.w	r3, [r7, #278]	; 0x116
 8001d3a:	1c5a      	adds	r2, r3, #1
 8001d3c:	f8a7 2116 	strh.w	r2, [r7, #278]	; 0x116
 8001d40:	461a      	mov	r2, r3
 8001d42:	b2c9      	uxtb	r1, r1
 8001d44:	f507 738c 	add.w	r3, r7, #280	; 0x118
 8001d48:	f5a3 7386 	sub.w	r3, r3, #268	; 0x10c
 8001d4c:	5499      	strb	r1, [r3, r2]

    // Вывод ответа в формате QModMaster
    USART2_PrintModBusResponse(response, index);
 8001d4e:	f8b7 2116 	ldrh.w	r2, [r7, #278]	; 0x116
 8001d52:	f107 030c 	add.w	r3, r7, #12
 8001d56:	4611      	mov	r1, r2
 8001d58:	4618      	mov	r0, r3
 8001d5a:	f001 f8d3 	bl	8002f04 <USART2_PrintModBusResponse>

    HAL_UART_Transmit(&huart1, response, index, 200);
 8001d5e:	f8b7 2116 	ldrh.w	r2, [r7, #278]	; 0x116
 8001d62:	f107 010c 	add.w	r1, r7, #12
 8001d66:	23c8      	movs	r3, #200	; 0xc8
 8001d68:	4804      	ldr	r0, [pc, #16]	; (8001d7c <ModBus_ReadHoldingRegisters+0x1e0>)
 8001d6a:	f004 f8d8 	bl	8005f1e <HAL_UART_Transmit>
}
 8001d6e:	f507 778c 	add.w	r7, r7, #280	; 0x118
 8001d72:	46bd      	mov	sp, r7
 8001d74:	bd80      	pop	{r7, pc}
 8001d76:	bf00      	nop
 8001d78:	2000018c 	.word	0x2000018c
 8001d7c:	20000038 	.word	0x20000038

08001d80 <ModBus_ReadInputRegisters>:

/* Чтение input регистров (функция 0x04) ---------------------------------*/
static void ModBus_ReadInputRegisters(uint16_t start_addr, uint16_t reg_count)
{
 8001d80:	b580      	push	{r7, lr}
 8001d82:	b0c6      	sub	sp, #280	; 0x118
 8001d84:	af00      	add	r7, sp, #0
 8001d86:	4602      	mov	r2, r0
 8001d88:	f507 738c 	add.w	r3, r7, #280	; 0x118
 8001d8c:	f5a3 7389 	sub.w	r3, r3, #274	; 0x112
 8001d90:	801a      	strh	r2, [r3, #0]
 8001d92:	f507 738c 	add.w	r3, r7, #280	; 0x118
 8001d96:	f5a3 738a 	sub.w	r3, r3, #276	; 0x114
 8001d9a:	460a      	mov	r2, r1
 8001d9c:	801a      	strh	r2, [r3, #0]
    if (start_addr >= REG_INPUT_REG_COUNT) {
 8001d9e:	f507 738c 	add.w	r3, r7, #280	; 0x118
 8001da2:	f5a3 7389 	sub.w	r3, r3, #274	; 0x112
 8001da6:	881b      	ldrh	r3, [r3, #0]
 8001da8:	2b11      	cmp	r3, #17
 8001daa:	d904      	bls.n	8001db6 <ModBus_ReadInputRegisters+0x36>
        ModBus_SendException(0x04, MODBUS_EXCEPTION_ILLEGAL_DATA_ADDRESS);
 8001dac:	2102      	movs	r1, #2
 8001dae:	2004      	movs	r0, #4
 8001db0:	f7ff fea6 	bl	8001b00 <ModBus_SendException>
        return;
 8001db4:	e0ce      	b.n	8001f54 <ModBus_ReadInputRegisters+0x1d4>
    }

    if (reg_count == 0 || reg_count > 125) {
 8001db6:	f507 738c 	add.w	r3, r7, #280	; 0x118
 8001dba:	f5a3 738a 	sub.w	r3, r3, #276	; 0x114
 8001dbe:	881b      	ldrh	r3, [r3, #0]
 8001dc0:	2b00      	cmp	r3, #0
 8001dc2:	d006      	beq.n	8001dd2 <ModBus_ReadInputRegisters+0x52>
 8001dc4:	f507 738c 	add.w	r3, r7, #280	; 0x118
 8001dc8:	f5a3 738a 	sub.w	r3, r3, #276	; 0x114
 8001dcc:	881b      	ldrh	r3, [r3, #0]
 8001dce:	2b7d      	cmp	r3, #125	; 0x7d
 8001dd0:	d904      	bls.n	8001ddc <ModBus_ReadInputRegisters+0x5c>
        ModBus_SendException(0x04, MODBUS_EXCEPTION_ILLEGAL_DATA_VALUE);
 8001dd2:	2103      	movs	r1, #3
 8001dd4:	2004      	movs	r0, #4
 8001dd6:	f7ff fe93 	bl	8001b00 <ModBus_SendException>
        return;
 8001dda:	e0bb      	b.n	8001f54 <ModBus_ReadInputRegisters+0x1d4>
    }

    if (start_addr + reg_count > REG_INPUT_REG_COUNT) {
 8001ddc:	f507 738c 	add.w	r3, r7, #280	; 0x118
 8001de0:	f5a3 7389 	sub.w	r3, r3, #274	; 0x112
 8001de4:	881a      	ldrh	r2, [r3, #0]
 8001de6:	f507 738c 	add.w	r3, r7, #280	; 0x118
 8001dea:	f5a3 738a 	sub.w	r3, r3, #276	; 0x114
 8001dee:	881b      	ldrh	r3, [r3, #0]
 8001df0:	4413      	add	r3, r2
 8001df2:	2b12      	cmp	r3, #18
 8001df4:	dd04      	ble.n	8001e00 <ModBus_ReadInputRegisters+0x80>
        ModBus_SendException(0x04, MODBUS_EXCEPTION_ILLEGAL_DATA_ADDRESS);
 8001df6:	2102      	movs	r1, #2
 8001df8:	2004      	movs	r0, #4
 8001dfa:	f7ff fe81 	bl	8001b00 <ModBus_SendException>
        return;
 8001dfe:	e0a9      	b.n	8001f54 <ModBus_ReadInputRegisters+0x1d4>
    }

    uint8_t response[256];
    uint16_t index = 0;
 8001e00:	2300      	movs	r3, #0
 8001e02:	f8a7 3116 	strh.w	r3, [r7, #278]	; 0x116
    uint16_t bytes_to_send = reg_count * 2;
 8001e06:	f507 738c 	add.w	r3, r7, #280	; 0x118
 8001e0a:	f5a3 738a 	sub.w	r3, r3, #276	; 0x114
 8001e0e:	881b      	ldrh	r3, [r3, #0]
 8001e10:	005b      	lsls	r3, r3, #1
 8001e12:	f8a7 3112 	strh.w	r3, [r7, #274]	; 0x112

    response[index++] = modbus.device_address;
 8001e16:	f8b7 3116 	ldrh.w	r3, [r7, #278]	; 0x116
 8001e1a:	1c5a      	adds	r2, r3, #1
 8001e1c:	f8a7 2116 	strh.w	r2, [r7, #278]	; 0x116
 8001e20:	461a      	mov	r2, r3
 8001e22:	4b4e      	ldr	r3, [pc, #312]	; (8001f5c <ModBus_ReadInputRegisters+0x1dc>)
 8001e24:	f893 1064 	ldrb.w	r1, [r3, #100]	; 0x64
 8001e28:	f507 738c 	add.w	r3, r7, #280	; 0x118
 8001e2c:	f5a3 7386 	sub.w	r3, r3, #268	; 0x10c
 8001e30:	5499      	strb	r1, [r3, r2]
    response[index++] = MODBUS_READ_INPUT_REGISTERS;
 8001e32:	f8b7 3116 	ldrh.w	r3, [r7, #278]	; 0x116
 8001e36:	1c5a      	adds	r2, r3, #1
 8001e38:	f8a7 2116 	strh.w	r2, [r7, #278]	; 0x116
 8001e3c:	461a      	mov	r2, r3
 8001e3e:	f507 738c 	add.w	r3, r7, #280	; 0x118
 8001e42:	f5a3 7386 	sub.w	r3, r3, #268	; 0x10c
 8001e46:	2104      	movs	r1, #4
 8001e48:	5499      	strb	r1, [r3, r2]
    response[index++] = bytes_to_send;
 8001e4a:	f8b7 3116 	ldrh.w	r3, [r7, #278]	; 0x116
 8001e4e:	1c5a      	adds	r2, r3, #1
 8001e50:	f8a7 2116 	strh.w	r2, [r7, #278]	; 0x116
 8001e54:	461a      	mov	r2, r3
 8001e56:	f8b7 3112 	ldrh.w	r3, [r7, #274]	; 0x112
 8001e5a:	b2d9      	uxtb	r1, r3
 8001e5c:	f507 738c 	add.w	r3, r7, #280	; 0x118
 8001e60:	f5a3 7386 	sub.w	r3, r3, #268	; 0x10c
 8001e64:	5499      	strb	r1, [r3, r2]

    for(uint16_t i = 0; i < reg_count; i++) {
 8001e66:	2300      	movs	r3, #0
 8001e68:	f8a7 3114 	strh.w	r3, [r7, #276]	; 0x114
 8001e6c:	e030      	b.n	8001ed0 <ModBus_ReadInputRegisters+0x150>
        uint16_t reg_value = modbus.input_regs[start_addr + i];
 8001e6e:	f507 738c 	add.w	r3, r7, #280	; 0x118
 8001e72:	f5a3 7389 	sub.w	r3, r3, #274	; 0x112
 8001e76:	881a      	ldrh	r2, [r3, #0]
 8001e78:	f8b7 3114 	ldrh.w	r3, [r7, #276]	; 0x114
 8001e7c:	4413      	add	r3, r2
 8001e7e:	4a37      	ldr	r2, [pc, #220]	; (8001f5c <ModBus_ReadInputRegisters+0x1dc>)
 8001e80:	3320      	adds	r3, #32
 8001e82:	f832 3013 	ldrh.w	r3, [r2, r3, lsl #1]
 8001e86:	f8a7 310e 	strh.w	r3, [r7, #270]	; 0x10e
        response[index++] = (reg_value >> 8) & 0xFF;
 8001e8a:	f8b7 310e 	ldrh.w	r3, [r7, #270]	; 0x10e
 8001e8e:	0a1b      	lsrs	r3, r3, #8
 8001e90:	b299      	uxth	r1, r3
 8001e92:	f8b7 3116 	ldrh.w	r3, [r7, #278]	; 0x116
 8001e96:	1c5a      	adds	r2, r3, #1
 8001e98:	f8a7 2116 	strh.w	r2, [r7, #278]	; 0x116
 8001e9c:	461a      	mov	r2, r3
 8001e9e:	b2c9      	uxtb	r1, r1
 8001ea0:	f507 738c 	add.w	r3, r7, #280	; 0x118
 8001ea4:	f5a3 7386 	sub.w	r3, r3, #268	; 0x10c
 8001ea8:	5499      	strb	r1, [r3, r2]
        response[index++] = reg_value & 0xFF;
 8001eaa:	f8b7 3116 	ldrh.w	r3, [r7, #278]	; 0x116
 8001eae:	1c5a      	adds	r2, r3, #1
 8001eb0:	f8a7 2116 	strh.w	r2, [r7, #278]	; 0x116
 8001eb4:	461a      	mov	r2, r3
 8001eb6:	f8b7 310e 	ldrh.w	r3, [r7, #270]	; 0x10e
 8001eba:	b2d9      	uxtb	r1, r3
 8001ebc:	f507 738c 	add.w	r3, r7, #280	; 0x118
 8001ec0:	f5a3 7386 	sub.w	r3, r3, #268	; 0x10c
 8001ec4:	5499      	strb	r1, [r3, r2]
    for(uint16_t i = 0; i < reg_count; i++) {
 8001ec6:	f8b7 3114 	ldrh.w	r3, [r7, #276]	; 0x114
 8001eca:	3301      	adds	r3, #1
 8001ecc:	f8a7 3114 	strh.w	r3, [r7, #276]	; 0x114
 8001ed0:	f507 738c 	add.w	r3, r7, #280	; 0x118
 8001ed4:	f5a3 738a 	sub.w	r3, r3, #276	; 0x114
 8001ed8:	f8b7 2114 	ldrh.w	r2, [r7, #276]	; 0x114
 8001edc:	881b      	ldrh	r3, [r3, #0]
 8001ede:	429a      	cmp	r2, r3
 8001ee0:	d3c5      	bcc.n	8001e6e <ModBus_ReadInputRegisters+0xee>
    }

    uint16_t crc = ModBus_CRC16(response, index);
 8001ee2:	f8b7 2116 	ldrh.w	r2, [r7, #278]	; 0x116
 8001ee6:	f107 030c 	add.w	r3, r7, #12
 8001eea:	4611      	mov	r1, r2
 8001eec:	4618      	mov	r0, r3
 8001eee:	f7ff fdcf 	bl	8001a90 <ModBus_CRC16>
 8001ef2:	4603      	mov	r3, r0
 8001ef4:	f8a7 3110 	strh.w	r3, [r7, #272]	; 0x110
    response[index++] = crc & 0xFF;
 8001ef8:	f8b7 3116 	ldrh.w	r3, [r7, #278]	; 0x116
 8001efc:	1c5a      	adds	r2, r3, #1
 8001efe:	f8a7 2116 	strh.w	r2, [r7, #278]	; 0x116
 8001f02:	461a      	mov	r2, r3
 8001f04:	f8b7 3110 	ldrh.w	r3, [r7, #272]	; 0x110
 8001f08:	b2d9      	uxtb	r1, r3
 8001f0a:	f507 738c 	add.w	r3, r7, #280	; 0x118
 8001f0e:	f5a3 7386 	sub.w	r3, r3, #268	; 0x10c
 8001f12:	5499      	strb	r1, [r3, r2]
    response[index++] = (crc >> 8) & 0xFF;
 8001f14:	f8b7 3110 	ldrh.w	r3, [r7, #272]	; 0x110
 8001f18:	0a1b      	lsrs	r3, r3, #8
 8001f1a:	b299      	uxth	r1, r3
 8001f1c:	f8b7 3116 	ldrh.w	r3, [r7, #278]	; 0x116
 8001f20:	1c5a      	adds	r2, r3, #1
 8001f22:	f8a7 2116 	strh.w	r2, [r7, #278]	; 0x116
 8001f26:	461a      	mov	r2, r3
 8001f28:	b2c9      	uxtb	r1, r1
 8001f2a:	f507 738c 	add.w	r3, r7, #280	; 0x118
 8001f2e:	f5a3 7386 	sub.w	r3, r3, #268	; 0x10c
 8001f32:	5499      	strb	r1, [r3, r2]

    // Вывод ответа в формате QModMaster
    USART2_PrintModBusResponse(response, index);
 8001f34:	f8b7 2116 	ldrh.w	r2, [r7, #278]	; 0x116
 8001f38:	f107 030c 	add.w	r3, r7, #12
 8001f3c:	4611      	mov	r1, r2
 8001f3e:	4618      	mov	r0, r3
 8001f40:	f000 ffe0 	bl	8002f04 <USART2_PrintModBusResponse>

    HAL_UART_Transmit(&huart1, response, index, 200);
 8001f44:	f8b7 2116 	ldrh.w	r2, [r7, #278]	; 0x116
 8001f48:	f107 010c 	add.w	r1, r7, #12
 8001f4c:	23c8      	movs	r3, #200	; 0xc8
 8001f4e:	4804      	ldr	r0, [pc, #16]	; (8001f60 <ModBus_ReadInputRegisters+0x1e0>)
 8001f50:	f003 ffe5 	bl	8005f1e <HAL_UART_Transmit>
}
 8001f54:	f507 778c 	add.w	r7, r7, #280	; 0x118
 8001f58:	46bd      	mov	sp, r7
 8001f5a:	bd80      	pop	{r7, pc}
 8001f5c:	2000018c 	.word	0x2000018c
 8001f60:	20000038 	.word	0x20000038

08001f64 <ModBus_WriteSingleRegister>:

/* Запись одного регистра (функция 0x06) ----------------------------------*/
static void ModBus_WriteSingleRegister(uint16_t reg_addr, uint16_t value)
{
 8001f64:	b580      	push	{r7, lr}
 8001f66:	b08a      	sub	sp, #40	; 0x28
 8001f68:	af00      	add	r7, sp, #0
 8001f6a:	4603      	mov	r3, r0
 8001f6c:	460a      	mov	r2, r1
 8001f6e:	80fb      	strh	r3, [r7, #6]
 8001f70:	4613      	mov	r3, r2
 8001f72:	80bb      	strh	r3, [r7, #4]
    if (reg_addr >= HOLD_HOLDING_REG_COUNT) {
 8001f74:	88fb      	ldrh	r3, [r7, #6]
 8001f76:	2b1f      	cmp	r3, #31
 8001f78:	d904      	bls.n	8001f84 <ModBus_WriteSingleRegister+0x20>
        ModBus_SendException(0x06, MODBUS_EXCEPTION_ILLEGAL_DATA_ADDRESS);
 8001f7a:	2102      	movs	r1, #2
 8001f7c:	2006      	movs	r0, #6
 8001f7e:	f7ff fdbf 	bl	8001b00 <ModBus_SendException>
 8001f82:	e093      	b.n	80020ac <ModBus_WriteSingleRegister+0x148>
        return;
    }

    // Записываем значение в регистр
    modbus.holding_regs[reg_addr] = value;
 8001f84:	88fb      	ldrh	r3, [r7, #6]
 8001f86:	494b      	ldr	r1, [pc, #300]	; (80020b4 <ModBus_WriteSingleRegister+0x150>)
 8001f88:	88ba      	ldrh	r2, [r7, #4]
 8001f8a:	f821 2013 	strh.w	r2, [r1, r3, lsl #1]

    // Если изменился адрес устройства, обновляем его
    if (reg_addr == HOLD_DEVICE_ADDR) {
 8001f8e:	88fb      	ldrh	r3, [r7, #6]
 8001f90:	2b00      	cmp	r3, #0
 8001f92:	d122      	bne.n	8001fda <ModBus_WriteSingleRegister+0x76>
        uint8_t new_addr = (uint8_t)(value & 0xFF);
 8001f94:	88bb      	ldrh	r3, [r7, #4]
 8001f96:	f887 3027 	strb.w	r3, [r7, #39]	; 0x27
        if (new_addr >= 1 && new_addr <= 247) {
 8001f9a:	f897 3027 	ldrb.w	r3, [r7, #39]	; 0x27
 8001f9e:	2b00      	cmp	r3, #0
 8001fa0:	d01b      	beq.n	8001fda <ModBus_WriteSingleRegister+0x76>
 8001fa2:	f897 3027 	ldrb.w	r3, [r7, #39]	; 0x27
 8001fa6:	2bf7      	cmp	r3, #247	; 0xf7
 8001fa8:	d817      	bhi.n	8001fda <ModBus_WriteSingleRegister+0x76>
            modbus.device_address = new_addr;
 8001faa:	4a42      	ldr	r2, [pc, #264]	; (80020b4 <ModBus_WriteSingleRegister+0x150>)
 8001fac:	f897 3027 	ldrb.w	r3, [r7, #39]	; 0x27
 8001fb0:	f882 3064 	strb.w	r3, [r2, #100]	; 0x64
            char num_str[10];
            USART2_Print("[MODBUS] Device address changed to ");
 8001fb4:	4840      	ldr	r0, [pc, #256]	; (80020b8 <ModBus_WriteSingleRegister+0x154>)
 8001fb6:	f000 fe5b 	bl	8002c70 <USART2_Print>
            modbus_uint32_to_str(new_addr, num_str);
 8001fba:	f897 3027 	ldrb.w	r3, [r7, #39]	; 0x27
 8001fbe:	f107 020c 	add.w	r2, r7, #12
 8001fc2:	4611      	mov	r1, r2
 8001fc4:	4618      	mov	r0, r3
 8001fc6:	f7ff fd0f 	bl	80019e8 <modbus_uint32_to_str>
            USART2_Print(num_str);
 8001fca:	f107 030c 	add.w	r3, r7, #12
 8001fce:	4618      	mov	r0, r3
 8001fd0:	f000 fe4e 	bl	8002c70 <USART2_Print>
            USART2_Print("\r\n");
 8001fd4:	4839      	ldr	r0, [pc, #228]	; (80020bc <ModBus_WriteSingleRegister+0x158>)
 8001fd6:	f000 fe4b 	bl	8002c70 <USART2_Print>
        }
    }
    
    // Отправляем ответ (эхо запроса)
    uint8_t response[8];
    uint16_t index = 0;
 8001fda:	2300      	movs	r3, #0
 8001fdc:	84bb      	strh	r3, [r7, #36]	; 0x24

    response[index++] = modbus.device_address;
 8001fde:	8cbb      	ldrh	r3, [r7, #36]	; 0x24
 8001fe0:	1c5a      	adds	r2, r3, #1
 8001fe2:	84ba      	strh	r2, [r7, #36]	; 0x24
 8001fe4:	4619      	mov	r1, r3
 8001fe6:	4b33      	ldr	r3, [pc, #204]	; (80020b4 <ModBus_WriteSingleRegister+0x150>)
 8001fe8:	f893 2064 	ldrb.w	r2, [r3, #100]	; 0x64
 8001fec:	f101 0328 	add.w	r3, r1, #40	; 0x28
 8001ff0:	443b      	add	r3, r7
 8001ff2:	f803 2c10 	strb.w	r2, [r3, #-16]
    response[index++] = MODBUS_WRITE_SINGLE_REGISTER;
 8001ff6:	8cbb      	ldrh	r3, [r7, #36]	; 0x24
 8001ff8:	1c5a      	adds	r2, r3, #1
 8001ffa:	84ba      	strh	r2, [r7, #36]	; 0x24
 8001ffc:	3328      	adds	r3, #40	; 0x28
 8001ffe:	443b      	add	r3, r7
 8002000:	2206      	movs	r2, #6
 8002002:	f803 2c10 	strb.w	r2, [r3, #-16]
    response[index++] = (reg_addr >> 8) & 0xFF;
 8002006:	88fb      	ldrh	r3, [r7, #6]
 8002008:	0a1b      	lsrs	r3, r3, #8
 800200a:	b29a      	uxth	r2, r3
 800200c:	8cbb      	ldrh	r3, [r7, #36]	; 0x24
 800200e:	1c59      	adds	r1, r3, #1
 8002010:	84b9      	strh	r1, [r7, #36]	; 0x24
 8002012:	b2d2      	uxtb	r2, r2
 8002014:	3328      	adds	r3, #40	; 0x28
 8002016:	443b      	add	r3, r7
 8002018:	f803 2c10 	strb.w	r2, [r3, #-16]
    response[index++] = reg_addr & 0xFF;
 800201c:	8cbb      	ldrh	r3, [r7, #36]	; 0x24
 800201e:	1c5a      	adds	r2, r3, #1
 8002020:	84ba      	strh	r2, [r7, #36]	; 0x24
 8002022:	88fa      	ldrh	r2, [r7, #6]
 8002024:	b2d2      	uxtb	r2, r2
 8002026:	3328      	adds	r3, #40	; 0x28
 8002028:	443b      	add	r3, r7
 800202a:	f803 2c10 	strb.w	r2, [r3, #-16]
    response[index++] = (value >> 8) & 0xFF;
 800202e:	88bb      	ldrh	r3, [r7, #4]
 8002030:	0a1b      	lsrs	r3, r3, #8
 8002032:	b29a      	uxth	r2, r3
 8002034:	8cbb      	ldrh	r3, [r7, #36]	; 0x24
 8002036:	1c59      	adds	r1, r3, #1
 8002038:	84b9      	strh	r1, [r7, #36]	; 0x24
 800203a:	b2d2      	uxtb	r2, r2
 800203c:	3328      	adds	r3, #40	; 0x28
 800203e:	443b      	add	r3, r7
 8002040:	f803 2c10 	strb.w	r2, [r3, #-16]
    response[index++] = value & 0xFF;
 8002044:	8cbb      	ldrh	r3, [r7, #36]	; 0x24
 8002046:	1c5a      	adds	r2, r3, #1
 8002048:	84ba      	strh	r2, [r7, #36]	; 0x24
 800204a:	88ba      	ldrh	r2, [r7, #4]
 800204c:	b2d2      	uxtb	r2, r2
 800204e:	3328      	adds	r3, #40	; 0x28
 8002050:	443b      	add	r3, r7
 8002052:	f803 2c10 	strb.w	r2, [r3, #-16]

    uint16_t crc = ModBus_CRC16(response, index);
 8002056:	8cba      	ldrh	r2, [r7, #36]	; 0x24
 8002058:	f107 0318 	add.w	r3, r7, #24
 800205c:	4611      	mov	r1, r2
 800205e:	4618      	mov	r0, r3
 8002060:	f7ff fd16 	bl	8001a90 <ModBus_CRC16>
 8002064:	4603      	mov	r3, r0
 8002066:	847b      	strh	r3, [r7, #34]	; 0x22
    response[index++] = crc & 0xFF;
 8002068:	8cbb      	ldrh	r3, [r7, #36]	; 0x24
 800206a:	1c5a      	adds	r2, r3, #1
 800206c:	84ba      	strh	r2, [r7, #36]	; 0x24
 800206e:	8c7a      	ldrh	r2, [r7, #34]	; 0x22
 8002070:	b2d2      	uxtb	r2, r2
 8002072:	3328      	adds	r3, #40	; 0x28
 8002074:	443b      	add	r3, r7
 8002076:	f803 2c10 	strb.w	r2, [r3, #-16]
    response[index++] = (crc >> 8) & 0xFF;
 800207a:	8c7b      	ldrh	r3, [r7, #34]	; 0x22
 800207c:	0a1b      	lsrs	r3, r3, #8
 800207e:	b29a      	uxth	r2, r3
 8002080:	8cbb      	ldrh	r3, [r7, #36]	; 0x24
 8002082:	1c59      	adds	r1, r3, #1
 8002084:	84b9      	strh	r1, [r7, #36]	; 0x24
 8002086:	b2d2      	uxtb	r2, r2
 8002088:	3328      	adds	r3, #40	; 0x28
 800208a:	443b      	add	r3, r7
 800208c:	f803 2c10 	strb.w	r2, [r3, #-16]

    // Вывод ответа в формате QModMaster
    USART2_PrintModBusResponse(response, index);
 8002090:	8cba      	ldrh	r2, [r7, #36]	; 0x24
 8002092:	f107 0318 	add.w	r3, r7, #24
 8002096:	4611      	mov	r1, r2
 8002098:	4618      	mov	r0, r3
 800209a:	f000 ff33 	bl	8002f04 <USART2_PrintModBusResponse>

    HAL_UART_Transmit(&huart1, response, index, 200);
 800209e:	8cba      	ldrh	r2, [r7, #36]	; 0x24
 80020a0:	f107 0118 	add.w	r1, r7, #24
 80020a4:	23c8      	movs	r3, #200	; 0xc8
 80020a6:	4806      	ldr	r0, [pc, #24]	; (80020c0 <ModBus_WriteSingleRegister+0x15c>)
 80020a8:	f003 ff39 	bl	8005f1e <HAL_UART_Transmit>
}
 80020ac:	3728      	adds	r7, #40	; 0x28
 80020ae:	46bd      	mov	sp, r7
 80020b0:	bd80      	pop	{r7, pc}
 80020b2:	bf00      	nop
 80020b4:	2000018c 	.word	0x2000018c
 80020b8:	08006ffc 	.word	0x08006ffc
 80020bc:	08007020 	.word	0x08007020
 80020c0:	20000038 	.word	0x20000038

080020c4 <ModBus_WriteMultipleRegisters>:

/* Запись нескольких регистров (функция 0x10) -----------------------------*/
static void ModBus_WriteMultipleRegisters(uint16_t start_addr, uint16_t reg_count, uint8_t *data)
{
 80020c4:	b580      	push	{r7, lr}
 80020c6:	b08a      	sub	sp, #40	; 0x28
 80020c8:	af00      	add	r7, sp, #0
 80020ca:	4603      	mov	r3, r0
 80020cc:	603a      	str	r2, [r7, #0]
 80020ce:	80fb      	strh	r3, [r7, #6]
 80020d0:	460b      	mov	r3, r1
 80020d2:	80bb      	strh	r3, [r7, #4]
    if (start_addr >= HOLD_HOLDING_REG_COUNT) {
 80020d4:	88fb      	ldrh	r3, [r7, #6]
 80020d6:	2b1f      	cmp	r3, #31
 80020d8:	d904      	bls.n	80020e4 <ModBus_WriteMultipleRegisters+0x20>
        ModBus_SendException(0x10, MODBUS_EXCEPTION_ILLEGAL_DATA_ADDRESS);
 80020da:	2102      	movs	r1, #2
 80020dc:	2010      	movs	r0, #16
 80020de:	f7ff fd0f 	bl	8001b00 <ModBus_SendException>
        return;
 80020e2:	e0c3      	b.n	800226c <ModBus_WriteMultipleRegisters+0x1a8>
    }

    if (reg_count == 0 || reg_count > 123) {
 80020e4:	88bb      	ldrh	r3, [r7, #4]
 80020e6:	2b00      	cmp	r3, #0
 80020e8:	d002      	beq.n	80020f0 <ModBus_WriteMultipleRegisters+0x2c>
 80020ea:	88bb      	ldrh	r3, [r7, #4]
 80020ec:	2b7b      	cmp	r3, #123	; 0x7b
 80020ee:	d904      	bls.n	80020fa <ModBus_WriteMultipleRegisters+0x36>
        ModBus_SendException(0x10, MODBUS_EXCEPTION_ILLEGAL_DATA_VALUE);
 80020f0:	2103      	movs	r1, #3
 80020f2:	2010      	movs	r0, #16
 80020f4:	f7ff fd04 	bl	8001b00 <ModBus_SendException>
        return;
 80020f8:	e0b8      	b.n	800226c <ModBus_WriteMultipleRegisters+0x1a8>
    }

    if (start_addr + reg_count > HOLD_HOLDING_REG_COUNT) {
 80020fa:	88fa      	ldrh	r2, [r7, #6]
 80020fc:	88bb      	ldrh	r3, [r7, #4]
 80020fe:	4413      	add	r3, r2
 8002100:	2b20      	cmp	r3, #32
 8002102:	dd04      	ble.n	800210e <ModBus_WriteMultipleRegisters+0x4a>
        ModBus_SendException(0x10, MODBUS_EXCEPTION_ILLEGAL_DATA_ADDRESS);
 8002104:	2102      	movs	r1, #2
 8002106:	2010      	movs	r0, #16
 8002108:	f7ff fcfa 	bl	8001b00 <ModBus_SendException>
        return;
 800210c:	e0ae      	b.n	800226c <ModBus_WriteMultipleRegisters+0x1a8>
    }

    // Записываем данные в регистры
    for(uint16_t i = 0; i < reg_count; i++) {
 800210e:	2300      	movs	r3, #0
 8002110:	84fb      	strh	r3, [r7, #38]	; 0x26
 8002112:	e03e      	b.n	8002192 <ModBus_WriteMultipleRegisters+0xce>
        uint16_t value = (data[i*2] << 8) | data[i*2 + 1];
 8002114:	8cfb      	ldrh	r3, [r7, #38]	; 0x26
 8002116:	005b      	lsls	r3, r3, #1
 8002118:	461a      	mov	r2, r3
 800211a:	683b      	ldr	r3, [r7, #0]
 800211c:	4413      	add	r3, r2
 800211e:	781b      	ldrb	r3, [r3, #0]
 8002120:	021b      	lsls	r3, r3, #8
 8002122:	b21a      	sxth	r2, r3
 8002124:	8cfb      	ldrh	r3, [r7, #38]	; 0x26
 8002126:	005b      	lsls	r3, r3, #1
 8002128:	3301      	adds	r3, #1
 800212a:	6839      	ldr	r1, [r7, #0]
 800212c:	440b      	add	r3, r1
 800212e:	781b      	ldrb	r3, [r3, #0]
 8002130:	b21b      	sxth	r3, r3
 8002132:	4313      	orrs	r3, r2
 8002134:	b21b      	sxth	r3, r3
 8002136:	843b      	strh	r3, [r7, #32]
        modbus.holding_regs[start_addr + i] = value;
 8002138:	88fa      	ldrh	r2, [r7, #6]
 800213a:	8cfb      	ldrh	r3, [r7, #38]	; 0x26
 800213c:	4413      	add	r3, r2
 800213e:	494d      	ldr	r1, [pc, #308]	; (8002274 <ModBus_WriteMultipleRegisters+0x1b0>)
 8002140:	8c3a      	ldrh	r2, [r7, #32]
 8002142:	f821 2013 	strh.w	r2, [r1, r3, lsl #1]

        // Если изменился адрес устройства (регистр 0), обновляем его
        if ((start_addr + i) == HOLD_DEVICE_ADDR) {
 8002146:	88fa      	ldrh	r2, [r7, #6]
 8002148:	8cfb      	ldrh	r3, [r7, #38]	; 0x26
 800214a:	4413      	add	r3, r2
 800214c:	2b00      	cmp	r3, #0
 800214e:	d11d      	bne.n	800218c <ModBus_WriteMultipleRegisters+0xc8>
            uint8_t new_addr = (uint8_t)(value & 0xFF);
 8002150:	8c3b      	ldrh	r3, [r7, #32]
 8002152:	77fb      	strb	r3, [r7, #31]
            if (new_addr >= 1 && new_addr <= 247) {
 8002154:	7ffb      	ldrb	r3, [r7, #31]
 8002156:	2b00      	cmp	r3, #0
 8002158:	d018      	beq.n	800218c <ModBus_WriteMultipleRegisters+0xc8>
 800215a:	7ffb      	ldrb	r3, [r7, #31]
 800215c:	2bf7      	cmp	r3, #247	; 0xf7
 800215e:	d815      	bhi.n	800218c <ModBus_WriteMultipleRegisters+0xc8>
                modbus.device_address = new_addr;
 8002160:	4a44      	ldr	r2, [pc, #272]	; (8002274 <ModBus_WriteMultipleRegisters+0x1b0>)
 8002162:	7ffb      	ldrb	r3, [r7, #31]
 8002164:	f882 3064 	strb.w	r3, [r2, #100]	; 0x64
                char num_str[10];
                USART2_Print("[MODBUS] Device address changed to ");
 8002168:	4843      	ldr	r0, [pc, #268]	; (8002278 <ModBus_WriteMultipleRegisters+0x1b4>)
 800216a:	f000 fd81 	bl	8002c70 <USART2_Print>
                modbus_uint32_to_str(new_addr, num_str);
 800216e:	7ffb      	ldrb	r3, [r7, #31]
 8002170:	f107 0208 	add.w	r2, r7, #8
 8002174:	4611      	mov	r1, r2
 8002176:	4618      	mov	r0, r3
 8002178:	f7ff fc36 	bl	80019e8 <modbus_uint32_to_str>
                USART2_Print(num_str);
 800217c:	f107 0308 	add.w	r3, r7, #8
 8002180:	4618      	mov	r0, r3
 8002182:	f000 fd75 	bl	8002c70 <USART2_Print>
                USART2_Print("\r\n");
 8002186:	483d      	ldr	r0, [pc, #244]	; (800227c <ModBus_WriteMultipleRegisters+0x1b8>)
 8002188:	f000 fd72 	bl	8002c70 <USART2_Print>
    for(uint16_t i = 0; i < reg_count; i++) {
 800218c:	8cfb      	ldrh	r3, [r7, #38]	; 0x26
 800218e:	3301      	adds	r3, #1
 8002190:	84fb      	strh	r3, [r7, #38]	; 0x26
 8002192:	8cfa      	ldrh	r2, [r7, #38]	; 0x26
 8002194:	88bb      	ldrh	r3, [r7, #4]
 8002196:	429a      	cmp	r2, r3
 8002198:	d3bc      	bcc.n	8002114 <ModBus_WriteMultipleRegisters+0x50>
        }
    }

    // Отправляем ответ
    uint8_t response[8];
    uint16_t index = 0;
 800219a:	2300      	movs	r3, #0
 800219c:	84bb      	strh	r3, [r7, #36]	; 0x24

    response[index++] = modbus.device_address;
 800219e:	8cbb      	ldrh	r3, [r7, #36]	; 0x24
 80021a0:	1c5a      	adds	r2, r3, #1
 80021a2:	84ba      	strh	r2, [r7, #36]	; 0x24
 80021a4:	4619      	mov	r1, r3
 80021a6:	4b33      	ldr	r3, [pc, #204]	; (8002274 <ModBus_WriteMultipleRegisters+0x1b0>)
 80021a8:	f893 2064 	ldrb.w	r2, [r3, #100]	; 0x64
 80021ac:	f101 0328 	add.w	r3, r1, #40	; 0x28
 80021b0:	443b      	add	r3, r7
 80021b2:	f803 2c14 	strb.w	r2, [r3, #-20]
    response[index++] = MODBUS_WRITE_MULTIPLE_REGISTERS;
 80021b6:	8cbb      	ldrh	r3, [r7, #36]	; 0x24
 80021b8:	1c5a      	adds	r2, r3, #1
 80021ba:	84ba      	strh	r2, [r7, #36]	; 0x24
 80021bc:	3328      	adds	r3, #40	; 0x28
 80021be:	443b      	add	r3, r7
 80021c0:	2210      	movs	r2, #16
 80021c2:	f803 2c14 	strb.w	r2, [r3, #-20]
    response[index++] = (start_addr >> 8) & 0xFF;
 80021c6:	88fb      	ldrh	r3, [r7, #6]
 80021c8:	0a1b      	lsrs	r3, r3, #8
 80021ca:	b29a      	uxth	r2, r3
 80021cc:	8cbb      	ldrh	r3, [r7, #36]	; 0x24
 80021ce:	1c59      	adds	r1, r3, #1
 80021d0:	84b9      	strh	r1, [r7, #36]	; 0x24
 80021d2:	b2d2      	uxtb	r2, r2
 80021d4:	3328      	adds	r3, #40	; 0x28
 80021d6:	443b      	add	r3, r7
 80021d8:	f803 2c14 	strb.w	r2, [r3, #-20]
    response[index++] = start_addr & 0xFF;
 80021dc:	8cbb      	ldrh	r3, [r7, #36]	; 0x24
 80021de:	1c5a      	adds	r2, r3, #1
 80021e0:	84ba      	strh	r2, [r7, #36]	; 0x24
 80021e2:	88fa      	ldrh	r2, [r7, #6]
 80021e4:	b2d2      	uxtb	r2, r2
 80021e6:	3328      	adds	r3, #40	; 0x28
 80021e8:	443b      	add	r3, r7
 80021ea:	f803 2c14 	strb.w	r2, [r3, #-20]
    response[index++] = (reg_count >> 8) & 0xFF;
 80021ee:	88bb      	ldrh	r3, [r7, #4]
 80021f0:	0a1b      	lsrs	r3, r3, #8
 80021f2:	b29a      	uxth	r2, r3
 80021f4:	8cbb      	ldrh	r3, [r7, #36]	; 0x24
 80021f6:	1c59      	adds	r1, r3, #1
 80021f8:	84b9      	strh	r1, [r7, #36]	; 0x24
 80021fa:	b2d2      	uxtb	r2, r2
 80021fc:	3328      	adds	r3, #40	; 0x28
 80021fe:	443b      	add	r3, r7
 8002200:	f803 2c14 	strb.w	r2, [r3, #-20]
    response[index++] = reg_count & 0xFF;
 8002204:	8cbb      	ldrh	r3, [r7, #36]	; 0x24
 8002206:	1c5a      	adds	r2, r3, #1
 8002208:	84ba      	strh	r2, [r7, #36]	; 0x24
 800220a:	88ba      	ldrh	r2, [r7, #4]
 800220c:	b2d2      	uxtb	r2, r2
 800220e:	3328      	adds	r3, #40	; 0x28
 8002210:	443b      	add	r3, r7
 8002212:	f803 2c14 	strb.w	r2, [r3, #-20]

    uint16_t crc = ModBus_CRC16(response, index);
 8002216:	8cba      	ldrh	r2, [r7, #36]	; 0x24
 8002218:	f107 0314 	add.w	r3, r7, #20
 800221c:	4611      	mov	r1, r2
 800221e:	4618      	mov	r0, r3
 8002220:	f7ff fc36 	bl	8001a90 <ModBus_CRC16>
 8002224:	4603      	mov	r3, r0
 8002226:	847b      	strh	r3, [r7, #34]	; 0x22
    response[index++] = crc & 0xFF;
 8002228:	8cbb      	ldrh	r3, [r7, #36]	; 0x24
 800222a:	1c5a      	adds	r2, r3, #1
 800222c:	84ba      	strh	r2, [r7, #36]	; 0x24
 800222e:	8c7a      	ldrh	r2, [r7, #34]	; 0x22
 8002230:	b2d2      	uxtb	r2, r2
 8002232:	3328      	adds	r3, #40	; 0x28
 8002234:	443b      	add	r3, r7
 8002236:	f803 2c14 	strb.w	r2, [r3, #-20]
    response[index++] = (crc >> 8) & 0xFF;
 800223a:	8c7b      	ldrh	r3, [r7, #34]	; 0x22
 800223c:	0a1b      	lsrs	r3, r3, #8
 800223e:	b29a      	uxth	r2, r3
 8002240:	8cbb      	ldrh	r3, [r7, #36]	; 0x24
 8002242:	1c59      	adds	r1, r3, #1
 8002244:	84b9      	strh	r1, [r7, #36]	; 0x24
 8002246:	b2d2      	uxtb	r2, r2
 8002248:	3328      	adds	r3, #40	; 0x28
 800224a:	443b      	add	r3, r7
 800224c:	f803 2c14 	strb.w	r2, [r3, #-20]

    // Вывод ответа в формате QModMaster
    USART2_PrintModBusResponse(response, index);
 8002250:	8cba      	ldrh	r2, [r7, #36]	; 0x24
 8002252:	f107 0314 	add.w	r3, r7, #20
 8002256:	4611      	mov	r1, r2
 8002258:	4618      	mov	r0, r3
 800225a:	f000 fe53 	bl	8002f04 <USART2_PrintModBusResponse>

    HAL_UART_Transmit(&huart1, response, index, 200);
 800225e:	8cba      	ldrh	r2, [r7, #36]	; 0x24
 8002260:	f107 0114 	add.w	r1, r7, #20
 8002264:	23c8      	movs	r3, #200	; 0xc8
 8002266:	4806      	ldr	r0, [pc, #24]	; (8002280 <ModBus_WriteMultipleRegisters+0x1bc>)
 8002268:	f003 fe59 	bl	8005f1e <HAL_UART_Transmit>
}
 800226c:	3728      	adds	r7, #40	; 0x28
 800226e:	46bd      	mov	sp, r7
 8002270:	bd80      	pop	{r7, pc}
 8002272:	bf00      	nop
 8002274:	2000018c 	.word	0x2000018c
 8002278:	08006ffc 	.word	0x08006ffc
 800227c:	08007020 	.word	0x08007020
 8002280:	20000038 	.word	0x20000038

08002284 <ModBus_ProcessFrame>:

/* Обработка принятого фрейма ---------------------------------------------*/
static void ModBus_ProcessFrame(void)
{
 8002284:	b580      	push	{r7, lr}
 8002286:	b086      	sub	sp, #24
 8002288:	af00      	add	r7, sp, #0
    if (modbus.rx_index < 4) {
 800228a:	4ba4      	ldr	r3, [pc, #656]	; (800251c <ModBus_ProcessFrame+0x298>)
 800228c:	f8b3 306c 	ldrh.w	r3, [r3, #108]	; 0x6c
 8002290:	2b03      	cmp	r3, #3
 8002292:	d807      	bhi.n	80022a4 <ModBus_ProcessFrame+0x20>
        USART2_Print("[MODBUS] Frame too short, ignoring\r\n");
 8002294:	48a2      	ldr	r0, [pc, #648]	; (8002520 <ModBus_ProcessFrame+0x29c>)
 8002296:	f000 fceb 	bl	8002c70 <USART2_Print>
        modbus.rx_index = 0;
 800229a:	4ba0      	ldr	r3, [pc, #640]	; (800251c <ModBus_ProcessFrame+0x298>)
 800229c:	2200      	movs	r2, #0
 800229e:	f8a3 206c 	strh.w	r2, [r3, #108]	; 0x6c
        return;
 80022a2:	e138      	b.n	8002516 <ModBus_ProcessFrame+0x292>
    }

    // Проверяем CRC
    uint16_t received_crc = (modbus.rx_buffer[modbus.rx_index - 1] << 8) |
 80022a4:	4b9d      	ldr	r3, [pc, #628]	; (800251c <ModBus_ProcessFrame+0x298>)
 80022a6:	f8b3 306c 	ldrh.w	r3, [r3, #108]	; 0x6c
 80022aa:	3b01      	subs	r3, #1
 80022ac:	4a9b      	ldr	r2, [pc, #620]	; (800251c <ModBus_ProcessFrame+0x298>)
 80022ae:	4413      	add	r3, r2
 80022b0:	f893 306e 	ldrb.w	r3, [r3, #110]	; 0x6e
 80022b4:	021b      	lsls	r3, r3, #8
 80022b6:	b21a      	sxth	r2, r3
                           modbus.rx_buffer[modbus.rx_index - 2];
 80022b8:	4b98      	ldr	r3, [pc, #608]	; (800251c <ModBus_ProcessFrame+0x298>)
 80022ba:	f8b3 306c 	ldrh.w	r3, [r3, #108]	; 0x6c
 80022be:	3b02      	subs	r3, #2
 80022c0:	4996      	ldr	r1, [pc, #600]	; (800251c <ModBus_ProcessFrame+0x298>)
 80022c2:	440b      	add	r3, r1
 80022c4:	f893 306e 	ldrb.w	r3, [r3, #110]	; 0x6e
 80022c8:	b21b      	sxth	r3, r3
    uint16_t received_crc = (modbus.rx_buffer[modbus.rx_index - 1] << 8) |
 80022ca:	4313      	orrs	r3, r2
 80022cc:	b21b      	sxth	r3, r3
 80022ce:	82fb      	strh	r3, [r7, #22]
    uint16_t calculated_crc = ModBus_CRC16(modbus.rx_buffer, modbus.rx_index - 2);
 80022d0:	4b92      	ldr	r3, [pc, #584]	; (800251c <ModBus_ProcessFrame+0x298>)
 80022d2:	f8b3 306c 	ldrh.w	r3, [r3, #108]	; 0x6c
 80022d6:	3b02      	subs	r3, #2
 80022d8:	b29b      	uxth	r3, r3
 80022da:	4619      	mov	r1, r3
 80022dc:	4891      	ldr	r0, [pc, #580]	; (8002524 <ModBus_ProcessFrame+0x2a0>)
 80022de:	f7ff fbd7 	bl	8001a90 <ModBus_CRC16>
 80022e2:	4603      	mov	r3, r0
 80022e4:	82bb      	strh	r3, [r7, #20]

    if (received_crc != calculated_crc) {
 80022e6:	8afa      	ldrh	r2, [r7, #22]
 80022e8:	8abb      	ldrh	r3, [r7, #20]
 80022ea:	429a      	cmp	r2, r3
 80022ec:	d010      	beq.n	8002310 <ModBus_ProcessFrame+0x8c>
        ModBus_DebugFrame(modbus.rx_buffer, modbus.rx_index, "RX CRC ERROR");
 80022ee:	4b8b      	ldr	r3, [pc, #556]	; (800251c <ModBus_ProcessFrame+0x298>)
 80022f0:	f8b3 306c 	ldrh.w	r3, [r3, #108]	; 0x6c
 80022f4:	4a8c      	ldr	r2, [pc, #560]	; (8002528 <ModBus_ProcessFrame+0x2a4>)
 80022f6:	4619      	mov	r1, r3
 80022f8:	488a      	ldr	r0, [pc, #552]	; (8002524 <ModBus_ProcessFrame+0x2a0>)
 80022fa:	f000 fe95 	bl	8003028 <ModBus_DebugFrame>
        modbus.rx_index = 0;
 80022fe:	4b87      	ldr	r3, [pc, #540]	; (800251c <ModBus_ProcessFrame+0x298>)
 8002300:	2200      	movs	r2, #0
 8002302:	f8a3 206c 	strh.w	r2, [r3, #108]	; 0x6c
        modbus.rx_error = 1;
 8002306:	4b85      	ldr	r3, [pc, #532]	; (800251c <ModBus_ProcessFrame+0x298>)
 8002308:	2201      	movs	r2, #1
 800230a:	f883 2171 	strb.w	r2, [r3, #369]	; 0x171
        return;
 800230e:	e102      	b.n	8002516 <ModBus_ProcessFrame+0x292>
    }

    // Проверяем адрес устройства
    uint8_t device_addr = modbus.rx_buffer[0];
 8002310:	4b82      	ldr	r3, [pc, #520]	; (800251c <ModBus_ProcessFrame+0x298>)
 8002312:	f893 306e 	ldrb.w	r3, [r3, #110]	; 0x6e
 8002316:	74fb      	strb	r3, [r7, #19]
    if (device_addr != modbus.device_address && device_addr != 0) {
 8002318:	4b80      	ldr	r3, [pc, #512]	; (800251c <ModBus_ProcessFrame+0x298>)
 800231a:	f893 3064 	ldrb.w	r3, [r3, #100]	; 0x64
 800231e:	7cfa      	ldrb	r2, [r7, #19]
 8002320:	429a      	cmp	r2, r3
 8002322:	d007      	beq.n	8002334 <ModBus_ProcessFrame+0xb0>
 8002324:	7cfb      	ldrb	r3, [r7, #19]
 8002326:	2b00      	cmp	r3, #0
 8002328:	d004      	beq.n	8002334 <ModBus_ProcessFrame+0xb0>
        modbus.rx_index = 0;
 800232a:	4b7c      	ldr	r3, [pc, #496]	; (800251c <ModBus_ProcessFrame+0x298>)
 800232c:	2200      	movs	r2, #0
 800232e:	f8a3 206c 	strh.w	r2, [r3, #108]	; 0x6c
        return;
 8002332:	e0f0      	b.n	8002516 <ModBus_ProcessFrame+0x292>
    }

    // Выводим принятую команду в формате как в QModMaster
    USART2_PrintModBusCommand(modbus.rx_buffer, modbus.rx_index);
 8002334:	4b79      	ldr	r3, [pc, #484]	; (800251c <ModBus_ProcessFrame+0x298>)
 8002336:	f8b3 306c 	ldrh.w	r3, [r3, #108]	; 0x6c
 800233a:	4619      	mov	r1, r3
 800233c:	4879      	ldr	r0, [pc, #484]	; (8002524 <ModBus_ProcessFrame+0x2a0>)
 800233e:	f000 fd4f 	bl	8002de0 <USART2_PrintModBusCommand>

    // Обработка в зависимости от функции
    switch(modbus.rx_buffer[1]) {
 8002342:	4b76      	ldr	r3, [pc, #472]	; (800251c <ModBus_ProcessFrame+0x298>)
 8002344:	f893 306f 	ldrb.w	r3, [r3, #111]	; 0x6f
 8002348:	3b03      	subs	r3, #3
 800234a:	2b0d      	cmp	r3, #13
 800234c:	f200 80c8 	bhi.w	80024e0 <ModBus_ProcessFrame+0x25c>
 8002350:	a201      	add	r2, pc, #4	; (adr r2, 8002358 <ModBus_ProcessFrame+0xd4>)
 8002352:	f852 f023 	ldr.w	pc, [r2, r3, lsl #2]
 8002356:	bf00      	nop
 8002358:	08002391 	.word	0x08002391
 800235c:	080023db 	.word	0x080023db
 8002360:	080024e1 	.word	0x080024e1
 8002364:	08002425 	.word	0x08002425
 8002368:	080024e1 	.word	0x080024e1
 800236c:	080024e1 	.word	0x080024e1
 8002370:	080024e1 	.word	0x080024e1
 8002374:	080024e1 	.word	0x080024e1
 8002378:	080024e1 	.word	0x080024e1
 800237c:	080024e1 	.word	0x080024e1
 8002380:	080024e1 	.word	0x080024e1
 8002384:	080024e1 	.word	0x080024e1
 8002388:	080024e1 	.word	0x080024e1
 800238c:	0800246d 	.word	0x0800246d
        case MODBUS_READ_HOLDING_REGISTERS:
            if (modbus.rx_index >= 8) {
 8002390:	4b62      	ldr	r3, [pc, #392]	; (800251c <ModBus_ProcessFrame+0x298>)
 8002392:	f8b3 306c 	ldrh.w	r3, [r3, #108]	; 0x6c
 8002396:	2b07      	cmp	r3, #7
 8002398:	f240 80aa 	bls.w	80024f0 <ModBus_ProcessFrame+0x26c>
                uint16_t start_addr = (modbus.rx_buffer[2] << 8) | modbus.rx_buffer[3];
 800239c:	4b5f      	ldr	r3, [pc, #380]	; (800251c <ModBus_ProcessFrame+0x298>)
 800239e:	f893 3070 	ldrb.w	r3, [r3, #112]	; 0x70
 80023a2:	021b      	lsls	r3, r3, #8
 80023a4:	b21a      	sxth	r2, r3
 80023a6:	4b5d      	ldr	r3, [pc, #372]	; (800251c <ModBus_ProcessFrame+0x298>)
 80023a8:	f893 3071 	ldrb.w	r3, [r3, #113]	; 0x71
 80023ac:	b21b      	sxth	r3, r3
 80023ae:	4313      	orrs	r3, r2
 80023b0:	b21b      	sxth	r3, r3
 80023b2:	807b      	strh	r3, [r7, #2]
                uint16_t reg_count = (modbus.rx_buffer[4] << 8) | modbus.rx_buffer[5];
 80023b4:	4b59      	ldr	r3, [pc, #356]	; (800251c <ModBus_ProcessFrame+0x298>)
 80023b6:	f893 3072 	ldrb.w	r3, [r3, #114]	; 0x72
 80023ba:	021b      	lsls	r3, r3, #8
 80023bc:	b21a      	sxth	r2, r3
 80023be:	4b57      	ldr	r3, [pc, #348]	; (800251c <ModBus_ProcessFrame+0x298>)
 80023c0:	f893 3073 	ldrb.w	r3, [r3, #115]	; 0x73
 80023c4:	b21b      	sxth	r3, r3
 80023c6:	4313      	orrs	r3, r2
 80023c8:	b21b      	sxth	r3, r3
 80023ca:	803b      	strh	r3, [r7, #0]
                ModBus_ReadHoldingRegisters(start_addr, reg_count);
 80023cc:	883a      	ldrh	r2, [r7, #0]
 80023ce:	887b      	ldrh	r3, [r7, #2]
 80023d0:	4611      	mov	r1, r2
 80023d2:	4618      	mov	r0, r3
 80023d4:	f7ff fbe2 	bl	8001b9c <ModBus_ReadHoldingRegisters>
            }
            break;
 80023d8:	e08a      	b.n	80024f0 <ModBus_ProcessFrame+0x26c>

        case MODBUS_READ_INPUT_REGISTERS:
            if (modbus.rx_index >= 8) {
 80023da:	4b50      	ldr	r3, [pc, #320]	; (800251c <ModBus_ProcessFrame+0x298>)
 80023dc:	f8b3 306c 	ldrh.w	r3, [r3, #108]	; 0x6c
 80023e0:	2b07      	cmp	r3, #7
 80023e2:	f240 8087 	bls.w	80024f4 <ModBus_ProcessFrame+0x270>
                uint16_t start_addr = (modbus.rx_buffer[2] << 8) | modbus.rx_buffer[3];
 80023e6:	4b4d      	ldr	r3, [pc, #308]	; (800251c <ModBus_ProcessFrame+0x298>)
 80023e8:	f893 3070 	ldrb.w	r3, [r3, #112]	; 0x70
 80023ec:	021b      	lsls	r3, r3, #8
 80023ee:	b21a      	sxth	r2, r3
 80023f0:	4b4a      	ldr	r3, [pc, #296]	; (800251c <ModBus_ProcessFrame+0x298>)
 80023f2:	f893 3071 	ldrb.w	r3, [r3, #113]	; 0x71
 80023f6:	b21b      	sxth	r3, r3
 80023f8:	4313      	orrs	r3, r2
 80023fa:	b21b      	sxth	r3, r3
 80023fc:	80fb      	strh	r3, [r7, #6]
                uint16_t reg_count = (modbus.rx_buffer[4] << 8) | modbus.rx_buffer[5];
 80023fe:	4b47      	ldr	r3, [pc, #284]	; (800251c <ModBus_ProcessFrame+0x298>)
 8002400:	f893 3072 	ldrb.w	r3, [r3, #114]	; 0x72
 8002404:	021b      	lsls	r3, r3, #8
 8002406:	b21a      	sxth	r2, r3
 8002408:	4b44      	ldr	r3, [pc, #272]	; (800251c <ModBus_ProcessFrame+0x298>)
 800240a:	f893 3073 	ldrb.w	r3, [r3, #115]	; 0x73
 800240e:	b21b      	sxth	r3, r3
 8002410:	4313      	orrs	r3, r2
 8002412:	b21b      	sxth	r3, r3
 8002414:	80bb      	strh	r3, [r7, #4]
                ModBus_ReadInputRegisters(start_addr, reg_count);
 8002416:	88ba      	ldrh	r2, [r7, #4]
 8002418:	88fb      	ldrh	r3, [r7, #6]
 800241a:	4611      	mov	r1, r2
 800241c:	4618      	mov	r0, r3
 800241e:	f7ff fcaf 	bl	8001d80 <ModBus_ReadInputRegisters>
            }
            break;
 8002422:	e067      	b.n	80024f4 <ModBus_ProcessFrame+0x270>

        case MODBUS_WRITE_SINGLE_REGISTER:
            if (modbus.rx_index >= 8) {
 8002424:	4b3d      	ldr	r3, [pc, #244]	; (800251c <ModBus_ProcessFrame+0x298>)
 8002426:	f8b3 306c 	ldrh.w	r3, [r3, #108]	; 0x6c
 800242a:	2b07      	cmp	r3, #7
 800242c:	d964      	bls.n	80024f8 <ModBus_ProcessFrame+0x274>
                uint16_t reg_addr = (modbus.rx_buffer[2] << 8) | modbus.rx_buffer[3];
 800242e:	4b3b      	ldr	r3, [pc, #236]	; (800251c <ModBus_ProcessFrame+0x298>)
 8002430:	f893 3070 	ldrb.w	r3, [r3, #112]	; 0x70
 8002434:	021b      	lsls	r3, r3, #8
 8002436:	b21a      	sxth	r2, r3
 8002438:	4b38      	ldr	r3, [pc, #224]	; (800251c <ModBus_ProcessFrame+0x298>)
 800243a:	f893 3071 	ldrb.w	r3, [r3, #113]	; 0x71
 800243e:	b21b      	sxth	r3, r3
 8002440:	4313      	orrs	r3, r2
 8002442:	b21b      	sxth	r3, r3
 8002444:	817b      	strh	r3, [r7, #10]
                uint16_t reg_value = (modbus.rx_buffer[4] << 8) | modbus.rx_buffer[5];
 8002446:	4b35      	ldr	r3, [pc, #212]	; (800251c <ModBus_ProcessFrame+0x298>)
 8002448:	f893 3072 	ldrb.w	r3, [r3, #114]	; 0x72
 800244c:	021b      	lsls	r3, r3, #8
 800244e:	b21a      	sxth	r2, r3
 8002450:	4b32      	ldr	r3, [pc, #200]	; (800251c <ModBus_ProcessFrame+0x298>)
 8002452:	f893 3073 	ldrb.w	r3, [r3, #115]	; 0x73
 8002456:	b21b      	sxth	r3, r3
 8002458:	4313      	orrs	r3, r2
 800245a:	b21b      	sxth	r3, r3
 800245c:	813b      	strh	r3, [r7, #8]
                ModBus_WriteSingleRegister(reg_addr, reg_value);
 800245e:	893a      	ldrh	r2, [r7, #8]
 8002460:	897b      	ldrh	r3, [r7, #10]
 8002462:	4611      	mov	r1, r2
 8002464:	4618      	mov	r0, r3
 8002466:	f7ff fd7d 	bl	8001f64 <ModBus_WriteSingleRegister>
            }
            break;
 800246a:	e045      	b.n	80024f8 <ModBus_ProcessFrame+0x274>

        case MODBUS_WRITE_MULTIPLE_REGISTERS:
            if (modbus.rx_index >= 9) {
 800246c:	4b2b      	ldr	r3, [pc, #172]	; (800251c <ModBus_ProcessFrame+0x298>)
 800246e:	f8b3 306c 	ldrh.w	r3, [r3, #108]	; 0x6c
 8002472:	2b08      	cmp	r3, #8
 8002474:	d942      	bls.n	80024fc <ModBus_ProcessFrame+0x278>
                uint16_t start_addr = (modbus.rx_buffer[2] << 8) | modbus.rx_buffer[3];
 8002476:	4b29      	ldr	r3, [pc, #164]	; (800251c <ModBus_ProcessFrame+0x298>)
 8002478:	f893 3070 	ldrb.w	r3, [r3, #112]	; 0x70
 800247c:	021b      	lsls	r3, r3, #8
 800247e:	b21a      	sxth	r2, r3
 8002480:	4b26      	ldr	r3, [pc, #152]	; (800251c <ModBus_ProcessFrame+0x298>)
 8002482:	f893 3071 	ldrb.w	r3, [r3, #113]	; 0x71
 8002486:	b21b      	sxth	r3, r3
 8002488:	4313      	orrs	r3, r2
 800248a:	b21b      	sxth	r3, r3
 800248c:	823b      	strh	r3, [r7, #16]
                uint16_t reg_count = (modbus.rx_buffer[4] << 8) | modbus.rx_buffer[5];
 800248e:	4b23      	ldr	r3, [pc, #140]	; (800251c <ModBus_ProcessFrame+0x298>)
 8002490:	f893 3072 	ldrb.w	r3, [r3, #114]	; 0x72
 8002494:	021b      	lsls	r3, r3, #8
 8002496:	b21a      	sxth	r2, r3
 8002498:	4b20      	ldr	r3, [pc, #128]	; (800251c <ModBus_ProcessFrame+0x298>)
 800249a:	f893 3073 	ldrb.w	r3, [r3, #115]	; 0x73
 800249e:	b21b      	sxth	r3, r3
 80024a0:	4313      	orrs	r3, r2
 80024a2:	b21b      	sxth	r3, r3
 80024a4:	81fb      	strh	r3, [r7, #14]
                uint8_t byte_count = modbus.rx_buffer[6];
 80024a6:	4b1d      	ldr	r3, [pc, #116]	; (800251c <ModBus_ProcessFrame+0x298>)
 80024a8:	f893 3074 	ldrb.w	r3, [r3, #116]	; 0x74
 80024ac:	737b      	strb	r3, [r7, #13]

                // Проверяем соответствие количества байт
                if (byte_count == reg_count * 2 &&
 80024ae:	7b7a      	ldrb	r2, [r7, #13]
 80024b0:	89fb      	ldrh	r3, [r7, #14]
 80024b2:	005b      	lsls	r3, r3, #1
 80024b4:	429a      	cmp	r2, r3
 80024b6:	d10e      	bne.n	80024d6 <ModBus_ProcessFrame+0x252>
                    modbus.rx_index == 7 + byte_count + 2) { // +2 для CRC
 80024b8:	4b18      	ldr	r3, [pc, #96]	; (800251c <ModBus_ProcessFrame+0x298>)
 80024ba:	f8b3 306c 	ldrh.w	r3, [r3, #108]	; 0x6c
 80024be:	461a      	mov	r2, r3
 80024c0:	7b7b      	ldrb	r3, [r7, #13]
 80024c2:	3309      	adds	r3, #9
                if (byte_count == reg_count * 2 &&
 80024c4:	429a      	cmp	r2, r3
 80024c6:	d106      	bne.n	80024d6 <ModBus_ProcessFrame+0x252>
                    ModBus_WriteMultipleRegisters(start_addr, reg_count,
 80024c8:	89f9      	ldrh	r1, [r7, #14]
 80024ca:	8a3b      	ldrh	r3, [r7, #16]
 80024cc:	4a17      	ldr	r2, [pc, #92]	; (800252c <ModBus_ProcessFrame+0x2a8>)
 80024ce:	4618      	mov	r0, r3
 80024d0:	f7ff fdf8 	bl	80020c4 <ModBus_WriteMultipleRegisters>
                                                 &modbus.rx_buffer[7]);
                } else {
                    ModBus_SendException(0x10, MODBUS_EXCEPTION_ILLEGAL_DATA_VALUE);
                }
            }
            break;
 80024d4:	e012      	b.n	80024fc <ModBus_ProcessFrame+0x278>
                    ModBus_SendException(0x10, MODBUS_EXCEPTION_ILLEGAL_DATA_VALUE);
 80024d6:	2103      	movs	r1, #3
 80024d8:	2010      	movs	r0, #16
 80024da:	f7ff fb11 	bl	8001b00 <ModBus_SendException>
            break;
 80024de:	e00d      	b.n	80024fc <ModBus_ProcessFrame+0x278>

        default:
            ModBus_SendException(modbus.rx_buffer[1], MODBUS_EXCEPTION_ILLEGAL_FUNCTION);
 80024e0:	4b0e      	ldr	r3, [pc, #56]	; (800251c <ModBus_ProcessFrame+0x298>)
 80024e2:	f893 306f 	ldrb.w	r3, [r3, #111]	; 0x6f
 80024e6:	2101      	movs	r1, #1
 80024e8:	4618      	mov	r0, r3
 80024ea:	f7ff fb09 	bl	8001b00 <ModBus_SendException>
            break;
 80024ee:	e006      	b.n	80024fe <ModBus_ProcessFrame+0x27a>
            break;
 80024f0:	bf00      	nop
 80024f2:	e004      	b.n	80024fe <ModBus_ProcessFrame+0x27a>
            break;
 80024f4:	bf00      	nop
 80024f6:	e002      	b.n	80024fe <ModBus_ProcessFrame+0x27a>
            break;
 80024f8:	bf00      	nop
 80024fa:	e000      	b.n	80024fe <ModBus_ProcessFrame+0x27a>
            break;
 80024fc:	bf00      	nop
    }

    modbus.rx_index = 0;
 80024fe:	4b07      	ldr	r3, [pc, #28]	; (800251c <ModBus_ProcessFrame+0x298>)
 8002500:	2200      	movs	r2, #0
 8002502:	f8a3 206c 	strh.w	r2, [r3, #108]	; 0x6c
    modbus.rx_complete = 0;
 8002506:	4b05      	ldr	r3, [pc, #20]	; (800251c <ModBus_ProcessFrame+0x298>)
 8002508:	2200      	movs	r2, #0
 800250a:	f883 2170 	strb.w	r2, [r3, #368]	; 0x170
    modbus.rx_error = 0;
 800250e:	4b03      	ldr	r3, [pc, #12]	; (800251c <ModBus_ProcessFrame+0x298>)
 8002510:	2200      	movs	r2, #0
 8002512:	f883 2171 	strb.w	r2, [r3, #369]	; 0x171
}
 8002516:	3718      	adds	r7, #24
 8002518:	46bd      	mov	sp, r7
 800251a:	bd80      	pop	{r7, pc}
 800251c:	2000018c 	.word	0x2000018c
 8002520:	08007024 	.word	0x08007024
 8002524:	200001fa 	.word	0x200001fa
 8002528:	0800704c 	.word	0x0800704c
 800252c:	20000201 	.word	0x20000201

08002530 <ModBus_Init>:

/* Инициализация ModBus ---------------------------------------------------*/
void ModBus_Init(void)
{
 8002530:	b580      	push	{r7, lr}
 8002532:	b084      	sub	sp, #16
 8002534:	af00      	add	r7, sp, #0
    // Инициализация ModBus структуры
    memset(&modbus, 0, sizeof(modbus));
 8002536:	f44f 7220 	mov.w	r2, #640	; 0x280
 800253a:	2100      	movs	r1, #0
 800253c:	4847      	ldr	r0, [pc, #284]	; (800265c <ModBus_Init+0x12c>)
 800253e:	f004 f9fd 	bl	800693c <memset>
    modbus.device_address = MODBUS_DEFAULT_ADDRESS;
 8002542:	4b46      	ldr	r3, [pc, #280]	; (800265c <ModBus_Init+0x12c>)
 8002544:	2201      	movs	r2, #1
 8002546:	f883 2064 	strb.w	r2, [r3, #100]	; 0x64
    modbus.rx_active = 1;
 800254a:	4b44      	ldr	r3, [pc, #272]	; (800265c <ModBus_Init+0x12c>)
 800254c:	2201      	movs	r2, #1
 800254e:	f883 216f 	strb.w	r2, [r3, #367]	; 0x16f
    modbus.rx_complete = 0;
 8002552:	4b42      	ldr	r3, [pc, #264]	; (800265c <ModBus_Init+0x12c>)
 8002554:	2200      	movs	r2, #0
 8002556:	f883 2170 	strb.w	r2, [r3, #368]	; 0x170
    modbus.rx_error = 0;
 800255a:	4b40      	ldr	r3, [pc, #256]	; (800265c <ModBus_Init+0x12c>)
 800255c:	2200      	movs	r2, #0
 800255e:	f883 2171 	strb.w	r2, [r3, #369]	; 0x171
    modbus.rx_byte_count = 0;
 8002562:	4b3e      	ldr	r3, [pc, #248]	; (800265c <ModBus_Init+0x12c>)
 8002564:	2200      	movs	r2, #0
 8002566:	f8c3 2174 	str.w	r2, [r3, #372]	; 0x174
    modbus.last_byte_time = HAL_GetTick();
 800256a:	f001 f8b3 	bl	80036d4 <HAL_GetTick>
 800256e:	4603      	mov	r3, r0
 8002570:	4a3a      	ldr	r2, [pc, #232]	; (800265c <ModBus_Init+0x12c>)
 8002572:	f8c2 3178 	str.w	r3, [r2, #376]	; 0x178

    // Инициализация holding регистров нулями
    for (int i = 0; i < HOLD_HOLDING_REG_COUNT; i++) {
 8002576:	2300      	movs	r3, #0
 8002578:	60fb      	str	r3, [r7, #12]
 800257a:	e007      	b.n	800258c <ModBus_Init+0x5c>
        modbus.holding_regs[i] = 0;
 800257c:	4a37      	ldr	r2, [pc, #220]	; (800265c <ModBus_Init+0x12c>)
 800257e:	68fb      	ldr	r3, [r7, #12]
 8002580:	2100      	movs	r1, #0
 8002582:	f822 1013 	strh.w	r1, [r2, r3, lsl #1]
    for (int i = 0; i < HOLD_HOLDING_REG_COUNT; i++) {
 8002586:	68fb      	ldr	r3, [r7, #12]
 8002588:	3301      	adds	r3, #1
 800258a:	60fb      	str	r3, [r7, #12]
 800258c:	68fb      	ldr	r3, [r7, #12]
 800258e:	2b1f      	cmp	r3, #31
 8002590:	ddf4      	ble.n	800257c <ModBus_Init+0x4c>
    }

    // Установка начальных значений регистров
    modbus.holding_regs[HOLD_DEVICE_ADDR] = MODBUS_DEFAULT_ADDRESS;
 8002592:	4b32      	ldr	r3, [pc, #200]	; (800265c <ModBus_Init+0x12c>)
 8002594:	2201      	movs	r2, #1
 8002596:	801a      	strh	r2, [r3, #0]
    modbus.holding_regs[HOLD_BAUDRATE] = MODBUS_BAUDRATE;
 8002598:	4b30      	ldr	r3, [pc, #192]	; (800265c <ModBus_Init+0x12c>)
 800259a:	f44f 5216 	mov.w	r2, #9600	; 0x2580
 800259e:	805a      	strh	r2, [r3, #2]
    modbus.holding_regs[HOLD_PARITY] = 0;
 80025a0:	4b2e      	ldr	r3, [pc, #184]	; (800265c <ModBus_Init+0x12c>)
 80025a2:	2200      	movs	r2, #0
 80025a4:	809a      	strh	r2, [r3, #4]
    modbus.holding_regs[HOLD_STOP_BITS] = 1;
 80025a6:	4b2d      	ldr	r3, [pc, #180]	; (800265c <ModBus_Init+0x12c>)
 80025a8:	2201      	movs	r2, #1
 80025aa:	80da      	strh	r2, [r3, #6]

    // Настройка начальных значений input регистров
    FloatToRegisters(3.3f, &modbus.input_regs[REG_VDDA_HIGH], &modbus.input_regs[REG_VDDA_LOW]);
 80025ac:	4a2c      	ldr	r2, [pc, #176]	; (8002660 <ModBus_Init+0x130>)
 80025ae:	492d      	ldr	r1, [pc, #180]	; (8002664 <ModBus_Init+0x134>)
 80025b0:	482d      	ldr	r0, [pc, #180]	; (8002668 <ModBus_Init+0x138>)
 80025b2:	f7ff fadd 	bl	8001b70 <FloatToRegisters>
    FloatToRegisters(24.0f, &modbus.input_regs[REG_24V_HIGH], &modbus.input_regs[REG_24V_LOW]);
 80025b6:	4a2d      	ldr	r2, [pc, #180]	; (800266c <ModBus_Init+0x13c>)
 80025b8:	492d      	ldr	r1, [pc, #180]	; (8002670 <ModBus_Init+0x140>)
 80025ba:	482e      	ldr	r0, [pc, #184]	; (8002674 <ModBus_Init+0x144>)
 80025bc:	f7ff fad8 	bl	8001b70 <FloatToRegisters>
    FloatToRegisters(12.0f, &modbus.input_regs[REG_12V_HIGH], &modbus.input_regs[REG_12V_LOW]);
 80025c0:	4a2d      	ldr	r2, [pc, #180]	; (8002678 <ModBus_Init+0x148>)
 80025c2:	492e      	ldr	r1, [pc, #184]	; (800267c <ModBus_Init+0x14c>)
 80025c4:	482e      	ldr	r0, [pc, #184]	; (8002680 <ModBus_Init+0x150>)
 80025c6:	f7ff fad3 	bl	8001b70 <FloatToRegisters>
    FloatToRegisters(5.0f, &modbus.input_regs[REG_5V_HIGH], &modbus.input_regs[REG_5V_LOW]);
 80025ca:	4a2e      	ldr	r2, [pc, #184]	; (8002684 <ModBus_Init+0x154>)
 80025cc:	492e      	ldr	r1, [pc, #184]	; (8002688 <ModBus_Init+0x158>)
 80025ce:	482f      	ldr	r0, [pc, #188]	; (800268c <ModBus_Init+0x15c>)
 80025d0:	f7ff face 	bl	8001b70 <FloatToRegisters>

    // Установка значений по умолчанию для измерений
    modbus.input_regs[REG_STATUS] = 0;
 80025d4:	4b21      	ldr	r3, [pc, #132]	; (800265c <ModBus_Init+0x12c>)
 80025d6:	2200      	movs	r2, #0
 80025d8:	f8a3 205c 	strh.w	r2, [r3, #92]	; 0x5c
    modbus.input_regs[REG_COUNTER] = 0;
 80025dc:	4b1f      	ldr	r3, [pc, #124]	; (800265c <ModBus_Init+0x12c>)
 80025de:	2200      	movs	r2, #0
 80025e0:	f8a3 205e 	strh.w	r2, [r3, #94]	; 0x5e
    modbus.input_regs[REG_TIMESTAMP_HIGH] = 0;
 80025e4:	4b1d      	ldr	r3, [pc, #116]	; (800265c <ModBus_Init+0x12c>)
 80025e6:	2200      	movs	r2, #0
 80025e8:	f8a3 2060 	strh.w	r2, [r3, #96]	; 0x60
    modbus.input_regs[REG_TIMESTAMP_LOW] = 0;
 80025ec:	4b1b      	ldr	r3, [pc, #108]	; (800265c <ModBus_Init+0x12c>)
 80025ee:	2200      	movs	r2, #0
 80025f0:	f8a3 2062 	strh.w	r2, [r3, #98]	; 0x62

    // Запуск приема по прерыванию
    HAL_UART_Receive_IT(&huart1, &modbus.rx_byte, 1);
 80025f4:	2201      	movs	r2, #1
 80025f6:	4926      	ldr	r1, [pc, #152]	; (8002690 <ModBus_Init+0x160>)
 80025f8:	4826      	ldr	r0, [pc, #152]	; (8002694 <ModBus_Init+0x164>)
 80025fa:	f003 fd22 	bl	8006042 <HAL_UART_Receive_IT>

    USART2_Print("[MODBUS] ModBus initialized\r\n");
 80025fe:	4826      	ldr	r0, [pc, #152]	; (8002698 <ModBus_Init+0x168>)
 8002600:	f000 fb36 	bl	8002c70 <USART2_Print>
    USART2_Print("[MODBUS] Address: ");
 8002604:	4825      	ldr	r0, [pc, #148]	; (800269c <ModBus_Init+0x16c>)
 8002606:	f000 fb33 	bl	8002c70 <USART2_Print>
    char num_str[10];
    modbus_uint32_to_str(MODBUS_DEFAULT_ADDRESS, num_str);
 800260a:	463b      	mov	r3, r7
 800260c:	4619      	mov	r1, r3
 800260e:	2001      	movs	r0, #1
 8002610:	f7ff f9ea 	bl	80019e8 <modbus_uint32_to_str>
    USART2_Print(num_str);
 8002614:	463b      	mov	r3, r7
 8002616:	4618      	mov	r0, r3
 8002618:	f000 fb2a 	bl	8002c70 <USART2_Print>
    USART2_Print(", Baudrate: ");
 800261c:	4820      	ldr	r0, [pc, #128]	; (80026a0 <ModBus_Init+0x170>)
 800261e:	f000 fb27 	bl	8002c70 <USART2_Print>
    modbus_uint32_to_str(MODBUS_BAUDRATE, num_str);
 8002622:	463b      	mov	r3, r7
 8002624:	4619      	mov	r1, r3
 8002626:	f44f 5016 	mov.w	r0, #9600	; 0x2580
 800262a:	f7ff f9dd 	bl	80019e8 <modbus_uint32_to_str>
    USART2_Print(num_str);
 800262e:	463b      	mov	r3, r7
 8002630:	4618      	mov	r0, r3
 8002632:	f000 fb1d 	bl	8002c70 <USART2_Print>
    USART2_Print(", Holding registers: ");
 8002636:	481b      	ldr	r0, [pc, #108]	; (80026a4 <ModBus_Init+0x174>)
 8002638:	f000 fb1a 	bl	8002c70 <USART2_Print>
    modbus_uint32_to_str(HOLD_HOLDING_REG_COUNT, num_str);
 800263c:	463b      	mov	r3, r7
 800263e:	4619      	mov	r1, r3
 8002640:	2020      	movs	r0, #32
 8002642:	f7ff f9d1 	bl	80019e8 <modbus_uint32_to_str>
    USART2_Print(num_str);
 8002646:	463b      	mov	r3, r7
 8002648:	4618      	mov	r0, r3
 800264a:	f000 fb11 	bl	8002c70 <USART2_Print>
    USART2_Print("\r\n");
 800264e:	4816      	ldr	r0, [pc, #88]	; (80026a8 <ModBus_Init+0x178>)
 8002650:	f000 fb0e 	bl	8002c70 <USART2_Print>
}
 8002654:	bf00      	nop
 8002656:	3710      	adds	r7, #16
 8002658:	46bd      	mov	sp, r7
 800265a:	bd80      	pop	{r7, pc}
 800265c:	2000018c 	.word	0x2000018c
 8002660:	200001ce 	.word	0x200001ce
 8002664:	200001cc 	.word	0x200001cc
 8002668:	40533333 	.word	0x40533333
 800266c:	200001d2 	.word	0x200001d2
 8002670:	200001d0 	.word	0x200001d0
 8002674:	41c00000 	.word	0x41c00000
 8002678:	200001d6 	.word	0x200001d6
 800267c:	200001d4 	.word	0x200001d4
 8002680:	41400000 	.word	0x41400000
 8002684:	200001da 	.word	0x200001da
 8002688:	200001d8 	.word	0x200001d8
 800268c:	40a00000 	.word	0x40a00000
 8002690:	200002fa 	.word	0x200002fa
 8002694:	20000038 	.word	0x20000038
 8002698:	0800705c 	.word	0x0800705c
 800269c:	0800707c 	.word	0x0800707c
 80026a0:	08007090 	.word	0x08007090
 80026a4:	080070a0 	.word	0x080070a0
 80026a8:	08007020 	.word	0x08007020

080026ac <ModBus_RxCallback>:

/* Callback приема данных UART --------------------------------------------*/
void ModBus_RxCallback(UART_HandleTypeDef *huart)
{
 80026ac:	b580      	push	{r7, lr}
 80026ae:	b082      	sub	sp, #8
 80026b0:	af00      	add	r7, sp, #0
 80026b2:	6078      	str	r0, [r7, #4]
    if (huart->Instance == USART1) {
 80026b4:	687b      	ldr	r3, [r7, #4]
 80026b6:	681b      	ldr	r3, [r3, #0]
 80026b8:	4a08      	ldr	r2, [pc, #32]	; (80026dc <ModBus_RxCallback+0x30>)
 80026ba:	4293      	cmp	r3, r2
 80026bc:	d10a      	bne.n	80026d4 <ModBus_RxCallback+0x28>
        // Вызываем обработку принятого байта
        ModBus_RxByte(modbus.rx_byte);
 80026be:	4b08      	ldr	r3, [pc, #32]	; (80026e0 <ModBus_RxCallback+0x34>)
 80026c0:	f893 316e 	ldrb.w	r3, [r3, #366]	; 0x16e
 80026c4:	4618      	mov	r0, r3
 80026c6:	f000 f811 	bl	80026ec <ModBus_RxByte>

        // Запускаем прием следующего байта
        HAL_UART_Receive_IT(&huart1, &modbus.rx_byte, 1);
 80026ca:	2201      	movs	r2, #1
 80026cc:	4905      	ldr	r1, [pc, #20]	; (80026e4 <ModBus_RxCallback+0x38>)
 80026ce:	4806      	ldr	r0, [pc, #24]	; (80026e8 <ModBus_RxCallback+0x3c>)
 80026d0:	f003 fcb7 	bl	8006042 <HAL_UART_Receive_IT>
    }
}
 80026d4:	bf00      	nop
 80026d6:	3708      	adds	r7, #8
 80026d8:	46bd      	mov	sp, r7
 80026da:	bd80      	pop	{r7, pc}
 80026dc:	40013800 	.word	0x40013800
 80026e0:	2000018c 	.word	0x2000018c
 80026e4:	200002fa 	.word	0x200002fa
 80026e8:	20000038 	.word	0x20000038

080026ec <ModBus_RxByte>:

/* Прием одного байта данных ---------------------------------------------*/
void ModBus_RxByte(uint8_t byte)
{
 80026ec:	b580      	push	{r7, lr}
 80026ee:	b084      	sub	sp, #16
 80026f0:	af00      	add	r7, sp, #0
 80026f2:	4603      	mov	r3, r0
 80026f4:	71fb      	strb	r3, [r7, #7]
    uint32_t current_time = HAL_GetTick();
 80026f6:	f000 ffed 	bl	80036d4 <HAL_GetTick>
 80026fa:	60f8      	str	r0, [r7, #12]

    // Проверяем межкадровый интервал (3.5 символа при 9600 бод ~ 4 мс)
    if (current_time - modbus.last_byte_time > MODBUS_INTER_FRAME_TIMEOUT_MS) {
 80026fc:	4b22      	ldr	r3, [pc, #136]	; (8002788 <ModBus_RxByte+0x9c>)
 80026fe:	f8d3 3178 	ldr.w	r3, [r3, #376]	; 0x178
 8002702:	68fa      	ldr	r2, [r7, #12]
 8002704:	1ad3      	subs	r3, r2, r3
 8002706:	2b0a      	cmp	r3, #10
 8002708:	d903      	bls.n	8002712 <ModBus_RxByte+0x26>
        // Новый фрейм, сбрасываем буфер
        modbus.rx_index = 0;
 800270a:	4b1f      	ldr	r3, [pc, #124]	; (8002788 <ModBus_RxByte+0x9c>)
 800270c:	2200      	movs	r2, #0
 800270e:	f8a3 206c 	strh.w	r2, [r3, #108]	; 0x6c
    }
    modbus.last_byte_time = current_time;
 8002712:	4a1d      	ldr	r2, [pc, #116]	; (8002788 <ModBus_RxByte+0x9c>)
 8002714:	68fb      	ldr	r3, [r7, #12]
 8002716:	f8c2 3178 	str.w	r3, [r2, #376]	; 0x178

    // Проверяем, что прием активен и есть место в буфере
    if (modbus.rx_active && modbus.rx_index < MODBUS_BUFFER_SIZE) {
 800271a:	4b1b      	ldr	r3, [pc, #108]	; (8002788 <ModBus_RxByte+0x9c>)
 800271c:	f893 316f 	ldrb.w	r3, [r3, #367]	; 0x16f
 8002720:	2b00      	cmp	r3, #0
 8002722:	d023      	beq.n	800276c <ModBus_RxByte+0x80>
 8002724:	4b18      	ldr	r3, [pc, #96]	; (8002788 <ModBus_RxByte+0x9c>)
 8002726:	f8b3 306c 	ldrh.w	r3, [r3, #108]	; 0x6c
 800272a:	2bff      	cmp	r3, #255	; 0xff
 800272c:	d81e      	bhi.n	800276c <ModBus_RxByte+0x80>
        // Сохраняем принятый байт
        modbus.rx_buffer[modbus.rx_index] = byte;
 800272e:	4b16      	ldr	r3, [pc, #88]	; (8002788 <ModBus_RxByte+0x9c>)
 8002730:	f8b3 306c 	ldrh.w	r3, [r3, #108]	; 0x6c
 8002734:	461a      	mov	r2, r3
 8002736:	4b14      	ldr	r3, [pc, #80]	; (8002788 <ModBus_RxByte+0x9c>)
 8002738:	4413      	add	r3, r2
 800273a:	79fa      	ldrb	r2, [r7, #7]
 800273c:	f883 206e 	strb.w	r2, [r3, #110]	; 0x6e
        modbus.rx_index++;
 8002740:	4b11      	ldr	r3, [pc, #68]	; (8002788 <ModBus_RxByte+0x9c>)
 8002742:	f8b3 306c 	ldrh.w	r3, [r3, #108]	; 0x6c
 8002746:	3301      	adds	r3, #1
 8002748:	b29a      	uxth	r2, r3
 800274a:	4b0f      	ldr	r3, [pc, #60]	; (8002788 <ModBus_RxByte+0x9c>)
 800274c:	f8a3 206c 	strh.w	r2, [r3, #108]	; 0x6c

        // Если индекс превысил размер буфера, сбрасываем
        if (modbus.rx_index >= MODBUS_BUFFER_SIZE) {
 8002750:	4b0d      	ldr	r3, [pc, #52]	; (8002788 <ModBus_RxByte+0x9c>)
 8002752:	f8b3 306c 	ldrh.w	r3, [r3, #108]	; 0x6c
 8002756:	2bff      	cmp	r3, #255	; 0xff
 8002758:	d911      	bls.n	800277e <ModBus_RxByte+0x92>
            modbus.rx_index = 0;
 800275a:	4b0b      	ldr	r3, [pc, #44]	; (8002788 <ModBus_RxByte+0x9c>)
 800275c:	2200      	movs	r2, #0
 800275e:	f8a3 206c 	strh.w	r2, [r3, #108]	; 0x6c
            modbus.rx_error = 1;
 8002762:	4b09      	ldr	r3, [pc, #36]	; (8002788 <ModBus_RxByte+0x9c>)
 8002764:	2201      	movs	r2, #1
 8002766:	f883 2171 	strb.w	r2, [r3, #369]	; 0x171
        if (modbus.rx_index >= MODBUS_BUFFER_SIZE) {
 800276a:	e008      	b.n	800277e <ModBus_RxByte+0x92>
        }
    } else {
        // Переполнение буфера
        modbus.rx_error = 1;
 800276c:	4b06      	ldr	r3, [pc, #24]	; (8002788 <ModBus_RxByte+0x9c>)
 800276e:	2201      	movs	r2, #1
 8002770:	f883 2171 	strb.w	r2, [r3, #369]	; 0x171
        modbus.rx_index = 0;
 8002774:	4b04      	ldr	r3, [pc, #16]	; (8002788 <ModBus_RxByte+0x9c>)
 8002776:	2200      	movs	r2, #0
 8002778:	f8a3 206c 	strh.w	r2, [r3, #108]	; 0x6c
    }
}
 800277c:	bf00      	nop
 800277e:	bf00      	nop
 8002780:	3710      	adds	r7, #16
 8002782:	46bd      	mov	sp, r7
 8002784:	bd80      	pop	{r7, pc}
 8002786:	bf00      	nop
 8002788:	2000018c 	.word	0x2000018c

0800278c <ModBus_Process>:

/* Обработка ModBus (вызывать в цикле) -----------------------------------*/
void ModBus_Process(void)
{
 800278c:	b580      	push	{r7, lr}
 800278e:	b082      	sub	sp, #8
 8002790:	af00      	add	r7, sp, #0
    static uint32_t last_process_time = 0;
    uint32_t current_time = HAL_GetTick();
 8002792:	f000 ff9f 	bl	80036d4 <HAL_GetTick>
 8002796:	6078      	str	r0, [r7, #4]

    // Обработка не чаще чем раз в 10 мс
    if (current_time - last_process_time < 10) {
 8002798:	4b0d      	ldr	r3, [pc, #52]	; (80027d0 <ModBus_Process+0x44>)
 800279a:	681b      	ldr	r3, [r3, #0]
 800279c:	687a      	ldr	r2, [r7, #4]
 800279e:	1ad3      	subs	r3, r2, r3
 80027a0:	2b09      	cmp	r3, #9
 80027a2:	d911      	bls.n	80027c8 <ModBus_Process+0x3c>
        return;
    }
    last_process_time = current_time;
 80027a4:	4a0a      	ldr	r2, [pc, #40]	; (80027d0 <ModBus_Process+0x44>)
 80027a6:	687b      	ldr	r3, [r7, #4]
 80027a8:	6013      	str	r3, [r2, #0]

    // Если принят хотя бы 1 байт и прошло время таймаута, обрабатываем фрейм
    if (modbus.rx_index > 0 && (current_time - modbus.last_byte_time > MODBUS_RESPONSE_TIMEOUT_MS)) {
 80027aa:	4b0a      	ldr	r3, [pc, #40]	; (80027d4 <ModBus_Process+0x48>)
 80027ac:	f8b3 306c 	ldrh.w	r3, [r3, #108]	; 0x6c
 80027b0:	2b00      	cmp	r3, #0
 80027b2:	d00a      	beq.n	80027ca <ModBus_Process+0x3e>
 80027b4:	4b07      	ldr	r3, [pc, #28]	; (80027d4 <ModBus_Process+0x48>)
 80027b6:	f8d3 3178 	ldr.w	r3, [r3, #376]	; 0x178
 80027ba:	687a      	ldr	r2, [r7, #4]
 80027bc:	1ad3      	subs	r3, r2, r3
 80027be:	2bc8      	cmp	r3, #200	; 0xc8
 80027c0:	d903      	bls.n	80027ca <ModBus_Process+0x3e>
        // Принудительная обработка фрейма
        ModBus_ProcessFrame();
 80027c2:	f7ff fd5f 	bl	8002284 <ModBus_ProcessFrame>
 80027c6:	e000      	b.n	80027ca <ModBus_Process+0x3e>
        return;
 80027c8:	bf00      	nop
    }
}
 80027ca:	3708      	adds	r7, #8
 80027cc:	46bd      	mov	sp, r7
 80027ce:	bd80      	pop	{r7, pc}
 80027d0:	2000040c 	.word	0x2000040c
 80027d4:	2000018c 	.word	0x2000018c

080027d8 <ModBus_UpdateVoltages>:

/* Обновление данных напряжений -------------------------------------------*/
void ModBus_UpdateVoltages(float vdda, float v24, float v12, float v5)
{
 80027d8:	b580      	push	{r7, lr}
 80027da:	b084      	sub	sp, #16
 80027dc:	af00      	add	r7, sp, #0
 80027de:	60f8      	str	r0, [r7, #12]
 80027e0:	60b9      	str	r1, [r7, #8]
 80027e2:	607a      	str	r2, [r7, #4]
 80027e4:	603b      	str	r3, [r7, #0]
    FloatToRegisters(vdda, &modbus.input_regs[REG_VDDA_HIGH], &modbus.input_regs[REG_VDDA_LOW]);
 80027e6:	4a0c      	ldr	r2, [pc, #48]	; (8002818 <ModBus_UpdateVoltages+0x40>)
 80027e8:	490c      	ldr	r1, [pc, #48]	; (800281c <ModBus_UpdateVoltages+0x44>)
 80027ea:	68f8      	ldr	r0, [r7, #12]
 80027ec:	f7ff f9c0 	bl	8001b70 <FloatToRegisters>
    FloatToRegisters(v24, &modbus.input_regs[REG_24V_HIGH], &modbus.input_regs[REG_24V_LOW]);
 80027f0:	4a0b      	ldr	r2, [pc, #44]	; (8002820 <ModBus_UpdateVoltages+0x48>)
 80027f2:	490c      	ldr	r1, [pc, #48]	; (8002824 <ModBus_UpdateVoltages+0x4c>)
 80027f4:	68b8      	ldr	r0, [r7, #8]
 80027f6:	f7ff f9bb 	bl	8001b70 <FloatToRegisters>
    FloatToRegisters(v12, &modbus.input_regs[REG_12V_HIGH], &modbus.input_regs[REG_12V_LOW]);
 80027fa:	4a0b      	ldr	r2, [pc, #44]	; (8002828 <ModBus_UpdateVoltages+0x50>)
 80027fc:	490b      	ldr	r1, [pc, #44]	; (800282c <ModBus_UpdateVoltages+0x54>)
 80027fe:	6878      	ldr	r0, [r7, #4]
 8002800:	f7ff f9b6 	bl	8001b70 <FloatToRegisters>
    FloatToRegisters(v5, &modbus.input_regs[REG_5V_HIGH], &modbus.input_regs[REG_5V_LOW]);
 8002804:	4a0a      	ldr	r2, [pc, #40]	; (8002830 <ModBus_UpdateVoltages+0x58>)
 8002806:	490b      	ldr	r1, [pc, #44]	; (8002834 <ModBus_UpdateVoltages+0x5c>)
 8002808:	6838      	ldr	r0, [r7, #0]
 800280a:	f7ff f9b1 	bl	8001b70 <FloatToRegisters>
}
 800280e:	bf00      	nop
 8002810:	3710      	adds	r7, #16
 8002812:	46bd      	mov	sp, r7
 8002814:	bd80      	pop	{r7, pc}
 8002816:	bf00      	nop
 8002818:	200001ce 	.word	0x200001ce
 800281c:	200001cc 	.word	0x200001cc
 8002820:	200001d2 	.word	0x200001d2
 8002824:	200001d0 	.word	0x200001d0
 8002828:	200001d6 	.word	0x200001d6
 800282c:	200001d4 	.word	0x200001d4
 8002830:	200001da 	.word	0x200001da
 8002834:	200001d8 	.word	0x200001d8

08002838 <ModBus_UpdateMeasurements>:

/* Обновление данных измерений --------------------------------------------*/
void ModBus_UpdateMeasurements(float p1, float p2, float freq, uint8_t status)
{
 8002838:	b580      	push	{r7, lr}
 800283a:	b086      	sub	sp, #24
 800283c:	af00      	add	r7, sp, #0
 800283e:	60f8      	str	r0, [r7, #12]
 8002840:	60b9      	str	r1, [r7, #8]
 8002842:	607a      	str	r2, [r7, #4]
 8002844:	70fb      	strb	r3, [r7, #3]
    static uint16_t counter = 0;

    FloatToRegisters(p1, &modbus.input_regs[REG_PERIOD1_HIGH], &modbus.input_regs[REG_PERIOD1_LOW]);
 8002846:	4a17      	ldr	r2, [pc, #92]	; (80028a4 <ModBus_UpdateMeasurements+0x6c>)
 8002848:	4917      	ldr	r1, [pc, #92]	; (80028a8 <ModBus_UpdateMeasurements+0x70>)
 800284a:	68f8      	ldr	r0, [r7, #12]
 800284c:	f7ff f990 	bl	8001b70 <FloatToRegisters>
    FloatToRegisters(p2, &modbus.input_regs[REG_PERIOD2_HIGH], &modbus.input_regs[REG_PERIOD2_LOW]);
 8002850:	4a16      	ldr	r2, [pc, #88]	; (80028ac <ModBus_UpdateMeasurements+0x74>)
 8002852:	4917      	ldr	r1, [pc, #92]	; (80028b0 <ModBus_UpdateMeasurements+0x78>)
 8002854:	68b8      	ldr	r0, [r7, #8]
 8002856:	f7ff f98b 	bl	8001b70 <FloatToRegisters>
    FloatToRegisters(freq, &modbus.input_regs[REG_FREQ_HIGH], &modbus.input_regs[REG_FREQ_LOW]);
 800285a:	4a16      	ldr	r2, [pc, #88]	; (80028b4 <ModBus_UpdateMeasurements+0x7c>)
 800285c:	4916      	ldr	r1, [pc, #88]	; (80028b8 <ModBus_UpdateMeasurements+0x80>)
 800285e:	6878      	ldr	r0, [r7, #4]
 8002860:	f7ff f986 	bl	8001b70 <FloatToRegisters>

    modbus.input_regs[REG_STATUS] = status;
 8002864:	78fb      	ldrb	r3, [r7, #3]
 8002866:	b29a      	uxth	r2, r3
 8002868:	4b14      	ldr	r3, [pc, #80]	; (80028bc <ModBus_UpdateMeasurements+0x84>)
 800286a:	f8a3 205c 	strh.w	r2, [r3, #92]	; 0x5c
    modbus.input_regs[REG_COUNTER] = counter++;
 800286e:	4b14      	ldr	r3, [pc, #80]	; (80028c0 <ModBus_UpdateMeasurements+0x88>)
 8002870:	881b      	ldrh	r3, [r3, #0]
 8002872:	1c5a      	adds	r2, r3, #1
 8002874:	b291      	uxth	r1, r2
 8002876:	4a12      	ldr	r2, [pc, #72]	; (80028c0 <ModBus_UpdateMeasurements+0x88>)
 8002878:	8011      	strh	r1, [r2, #0]
 800287a:	4a10      	ldr	r2, [pc, #64]	; (80028bc <ModBus_UpdateMeasurements+0x84>)
 800287c:	f8a2 305e 	strh.w	r3, [r2, #94]	; 0x5e
    if (counter > 65535) counter = 0;

    uint32_t timestamp = HAL_GetTick();
 8002880:	f000 ff28 	bl	80036d4 <HAL_GetTick>
 8002884:	6178      	str	r0, [r7, #20]
    modbus.input_regs[REG_TIMESTAMP_HIGH] = (timestamp >> 16) & 0xFFFF;
 8002886:	697b      	ldr	r3, [r7, #20]
 8002888:	0c1b      	lsrs	r3, r3, #16
 800288a:	b29a      	uxth	r2, r3
 800288c:	4b0b      	ldr	r3, [pc, #44]	; (80028bc <ModBus_UpdateMeasurements+0x84>)
 800288e:	f8a3 2060 	strh.w	r2, [r3, #96]	; 0x60
    modbus.input_regs[REG_TIMESTAMP_LOW] = timestamp & 0xFFFF;
 8002892:	697b      	ldr	r3, [r7, #20]
 8002894:	b29a      	uxth	r2, r3
 8002896:	4b09      	ldr	r3, [pc, #36]	; (80028bc <ModBus_UpdateMeasurements+0x84>)
 8002898:	f8a3 2062 	strh.w	r2, [r3, #98]	; 0x62
}
 800289c:	bf00      	nop
 800289e:	3718      	adds	r7, #24
 80028a0:	46bd      	mov	sp, r7
 80028a2:	bd80      	pop	{r7, pc}
 80028a4:	200001de 	.word	0x200001de
 80028a8:	200001dc 	.word	0x200001dc
 80028ac:	200001e2 	.word	0x200001e2
 80028b0:	200001e0 	.word	0x200001e0
 80028b4:	200001e6 	.word	0x200001e6
 80028b8:	200001e4 	.word	0x200001e4
 80028bc:	2000018c 	.word	0x2000018c
 80028c0:	20000410 	.word	0x20000410

080028c4 <HAL_MspInit>:
/* USER CODE END 0 */
/**
  * Initializes the Global MSP.
  */
void HAL_MspInit(void)
{
 80028c4:	b480      	push	{r7}
 80028c6:	b085      	sub	sp, #20
 80028c8:	af00      	add	r7, sp, #0
  /* USER CODE BEGIN MspInit 0 */

  /* USER CODE END MspInit 0 */

  __HAL_RCC_AFIO_CLK_ENABLE();
 80028ca:	4b15      	ldr	r3, [pc, #84]	; (8002920 <HAL_MspInit+0x5c>)
 80028cc:	699b      	ldr	r3, [r3, #24]
 80028ce:	4a14      	ldr	r2, [pc, #80]	; (8002920 <HAL_MspInit+0x5c>)
 80028d0:	f043 0301 	orr.w	r3, r3, #1
 80028d4:	6193      	str	r3, [r2, #24]
 80028d6:	4b12      	ldr	r3, [pc, #72]	; (8002920 <HAL_MspInit+0x5c>)
 80028d8:	699b      	ldr	r3, [r3, #24]
 80028da:	f003 0301 	and.w	r3, r3, #1
 80028de:	60bb      	str	r3, [r7, #8]
 80028e0:	68bb      	ldr	r3, [r7, #8]
  __HAL_RCC_PWR_CLK_ENABLE();
 80028e2:	4b0f      	ldr	r3, [pc, #60]	; (8002920 <HAL_MspInit+0x5c>)
 80028e4:	69db      	ldr	r3, [r3, #28]
 80028e6:	4a0e      	ldr	r2, [pc, #56]	; (8002920 <HAL_MspInit+0x5c>)
 80028e8:	f043 5380 	orr.w	r3, r3, #268435456	; 0x10000000
 80028ec:	61d3      	str	r3, [r2, #28]
 80028ee:	4b0c      	ldr	r3, [pc, #48]	; (8002920 <HAL_MspInit+0x5c>)
 80028f0:	69db      	ldr	r3, [r3, #28]
 80028f2:	f003 5380 	and.w	r3, r3, #268435456	; 0x10000000
 80028f6:	607b      	str	r3, [r7, #4]
 80028f8:	687b      	ldr	r3, [r7, #4]

  /* System interrupt init*/

  /** NOJTAG: JTAG-DP Disabled and SW-DP Enabled
  */
  __HAL_AFIO_REMAP_SWJ_NOJTAG();
 80028fa:	4b0a      	ldr	r3, [pc, #40]	; (8002924 <HAL_MspInit+0x60>)
 80028fc:	685b      	ldr	r3, [r3, #4]
 80028fe:	60fb      	str	r3, [r7, #12]
 8002900:	68fb      	ldr	r3, [r7, #12]
 8002902:	f023 63e0 	bic.w	r3, r3, #117440512	; 0x7000000
 8002906:	60fb      	str	r3, [r7, #12]
 8002908:	68fb      	ldr	r3, [r7, #12]
 800290a:	f043 7300 	orr.w	r3, r3, #33554432	; 0x2000000
 800290e:	60fb      	str	r3, [r7, #12]
 8002910:	4a04      	ldr	r2, [pc, #16]	; (8002924 <HAL_MspInit+0x60>)
 8002912:	68fb      	ldr	r3, [r7, #12]
 8002914:	6053      	str	r3, [r2, #4]

  /* USER CODE BEGIN MspInit 1 */

  /* USER CODE END MspInit 1 */
}
 8002916:	bf00      	nop
 8002918:	3714      	adds	r7, #20
 800291a:	46bd      	mov	sp, r7
 800291c:	bc80      	pop	{r7}
 800291e:	4770      	bx	lr
 8002920:	40021000 	.word	0x40021000
 8002924:	40010000 	.word	0x40010000

08002928 <HAL_ADC_MspInit>:
* This function configures the hardware resources used in this example
* @param hadc: ADC handle pointer
* @retval None
*/
void HAL_ADC_MspInit(ADC_HandleTypeDef* hadc)
{
 8002928:	b580      	push	{r7, lr}
 800292a:	b08a      	sub	sp, #40	; 0x28
 800292c:	af00      	add	r7, sp, #0
 800292e:	6078      	str	r0, [r7, #4]
  GPIO_InitTypeDef GPIO_InitStruct = {0};
 8002930:	f107 0318 	add.w	r3, r7, #24
 8002934:	2200      	movs	r2, #0
 8002936:	601a      	str	r2, [r3, #0]
 8002938:	605a      	str	r2, [r3, #4]
 800293a:	609a      	str	r2, [r3, #8]
 800293c:	60da      	str	r2, [r3, #12]
  if(hadc->Instance==ADC1)
 800293e:	687b      	ldr	r3, [r7, #4]
 8002940:	681b      	ldr	r3, [r3, #0]
 8002942:	4a28      	ldr	r2, [pc, #160]	; (80029e4 <HAL_ADC_MspInit+0xbc>)
 8002944:	4293      	cmp	r3, r2
 8002946:	d122      	bne.n	800298e <HAL_ADC_MspInit+0x66>
  {
  /* USER CODE BEGIN ADC1_MspInit 0 */

  /* USER CODE END ADC1_MspInit 0 */
    /* Peripheral clock enable */
    __HAL_RCC_ADC1_CLK_ENABLE();
 8002948:	4b27      	ldr	r3, [pc, #156]	; (80029e8 <HAL_ADC_MspInit+0xc0>)
 800294a:	699b      	ldr	r3, [r3, #24]
 800294c:	4a26      	ldr	r2, [pc, #152]	; (80029e8 <HAL_ADC_MspInit+0xc0>)
 800294e:	f443 7300 	orr.w	r3, r3, #512	; 0x200
 8002952:	6193      	str	r3, [r2, #24]
 8002954:	4b24      	ldr	r3, [pc, #144]	; (80029e8 <HAL_ADC_MspInit+0xc0>)
 8002956:	699b      	ldr	r3, [r3, #24]
 8002958:	f403 7300 	and.w	r3, r3, #512	; 0x200
 800295c:	617b      	str	r3, [r7, #20]
 800295e:	697b      	ldr	r3, [r7, #20]

    __HAL_RCC_GPIOA_CLK_ENABLE();
 8002960:	4b21      	ldr	r3, [pc, #132]	; (80029e8 <HAL_ADC_MspInit+0xc0>)
 8002962:	699b      	ldr	r3, [r3, #24]
 8002964:	4a20      	ldr	r2, [pc, #128]	; (80029e8 <HAL_ADC_MspInit+0xc0>)
 8002966:	f043 0304 	orr.w	r3, r3, #4
 800296a:	6193      	str	r3, [r2, #24]
 800296c:	4b1e      	ldr	r3, [pc, #120]	; (80029e8 <HAL_ADC_MspInit+0xc0>)
 800296e:	699b      	ldr	r3, [r3, #24]
 8002970:	f003 0304 	and.w	r3, r3, #4
 8002974:	613b      	str	r3, [r7, #16]
 8002976:	693b      	ldr	r3, [r7, #16]
    /**ADC1 GPIO Configuration
    PA0-WKUP     ------> ADC1_IN0
    */
    GPIO_InitStruct.Pin = Read_24V_Pin;
 8002978:	2301      	movs	r3, #1
 800297a:	61bb      	str	r3, [r7, #24]
    GPIO_InitStruct.Mode = GPIO_MODE_ANALOG;
 800297c:	2303      	movs	r3, #3
 800297e:	61fb      	str	r3, [r7, #28]
    HAL_GPIO_Init(Read_24V_GPIO_Port, &GPIO_InitStruct);
 8002980:	f107 0318 	add.w	r3, r7, #24
 8002984:	4619      	mov	r1, r3
 8002986:	4819      	ldr	r0, [pc, #100]	; (80029ec <HAL_ADC_MspInit+0xc4>)
 8002988:	f001 fe74 	bl	8004674 <HAL_GPIO_Init>
  /* USER CODE BEGIN ADC2_MspInit 1 */

  /* USER CODE END ADC2_MspInit 1 */
  }

}
 800298c:	e026      	b.n	80029dc <HAL_ADC_MspInit+0xb4>
  else if(hadc->Instance==ADC2)
 800298e:	687b      	ldr	r3, [r7, #4]
 8002990:	681b      	ldr	r3, [r3, #0]
 8002992:	4a17      	ldr	r2, [pc, #92]	; (80029f0 <HAL_ADC_MspInit+0xc8>)
 8002994:	4293      	cmp	r3, r2
 8002996:	d121      	bne.n	80029dc <HAL_ADC_MspInit+0xb4>
    __HAL_RCC_ADC2_CLK_ENABLE();
 8002998:	4b13      	ldr	r3, [pc, #76]	; (80029e8 <HAL_ADC_MspInit+0xc0>)
 800299a:	699b      	ldr	r3, [r3, #24]
 800299c:	4a12      	ldr	r2, [pc, #72]	; (80029e8 <HAL_ADC_MspInit+0xc0>)
 800299e:	f443 6380 	orr.w	r3, r3, #1024	; 0x400
 80029a2:	6193      	str	r3, [r2, #24]
 80029a4:	4b10      	ldr	r3, [pc, #64]	; (80029e8 <HAL_ADC_MspInit+0xc0>)
 80029a6:	699b      	ldr	r3, [r3, #24]
 80029a8:	f403 6380 	and.w	r3, r3, #1024	; 0x400
 80029ac:	60fb      	str	r3, [r7, #12]
 80029ae:	68fb      	ldr	r3, [r7, #12]
    __HAL_RCC_GPIOA_CLK_ENABLE();
 80029b0:	4b0d      	ldr	r3, [pc, #52]	; (80029e8 <HAL_ADC_MspInit+0xc0>)
 80029b2:	699b      	ldr	r3, [r3, #24]
 80029b4:	4a0c      	ldr	r2, [pc, #48]	; (80029e8 <HAL_ADC_MspInit+0xc0>)
 80029b6:	f043 0304 	orr.w	r3, r3, #4
 80029ba:	6193      	str	r3, [r2, #24]
 80029bc:	4b0a      	ldr	r3, [pc, #40]	; (80029e8 <HAL_ADC_MspInit+0xc0>)
 80029be:	699b      	ldr	r3, [r3, #24]
 80029c0:	f003 0304 	and.w	r3, r3, #4
 80029c4:	60bb      	str	r3, [r7, #8]
 80029c6:	68bb      	ldr	r3, [r7, #8]
    GPIO_InitStruct.Pin = Read_12V_Pin|Read_5V_Pin;
 80029c8:	2322      	movs	r3, #34	; 0x22
 80029ca:	61bb      	str	r3, [r7, #24]
    GPIO_InitStruct.Mode = GPIO_MODE_ANALOG;
 80029cc:	2303      	movs	r3, #3
 80029ce:	61fb      	str	r3, [r7, #28]
    HAL_GPIO_Init(GPIOA, &GPIO_InitStruct);
 80029d0:	f107 0318 	add.w	r3, r7, #24
 80029d4:	4619      	mov	r1, r3
 80029d6:	4805      	ldr	r0, [pc, #20]	; (80029ec <HAL_ADC_MspInit+0xc4>)
 80029d8:	f001 fe4c 	bl	8004674 <HAL_GPIO_Init>
}
 80029dc:	bf00      	nop
 80029de:	3728      	adds	r7, #40	; 0x28
 80029e0:	46bd      	mov	sp, r7
 80029e2:	bd80      	pop	{r7, pc}
 80029e4:	40012400 	.word	0x40012400
 80029e8:	40021000 	.word	0x40021000
 80029ec:	40010800 	.word	0x40010800
 80029f0:	40012800 	.word	0x40012800

080029f4 <HAL_UART_MspInit>:
* This function configures the hardware resources used in this example
* @param huart: UART handle pointer
* @retval None
*/
void HAL_UART_MspInit(UART_HandleTypeDef* huart)
{
 80029f4:	b580      	push	{r7, lr}
 80029f6:	b08a      	sub	sp, #40	; 0x28
 80029f8:	af00      	add	r7, sp, #0
 80029fa:	6078      	str	r0, [r7, #4]
  GPIO_InitTypeDef GPIO_InitStruct = {0};
 80029fc:	f107 0318 	add.w	r3, r7, #24
 8002a00:	2200      	movs	r2, #0
 8002a02:	601a      	str	r2, [r3, #0]
 8002a04:	605a      	str	r2, [r3, #4]
 8002a06:	609a      	str	r2, [r3, #8]
 8002a08:	60da      	str	r2, [r3, #12]
  if(huart->Instance==USART1)
 8002a0a:	687b      	ldr	r3, [r7, #4]
 8002a0c:	681b      	ldr	r3, [r3, #0]
 8002a0e:	4a37      	ldr	r2, [pc, #220]	; (8002aec <HAL_UART_MspInit+0xf8>)
 8002a10:	4293      	cmp	r3, r2
 8002a12:	d132      	bne.n	8002a7a <HAL_UART_MspInit+0x86>
  {
  /* USER CODE BEGIN USART1_MspInit 0 */

  /* USER CODE END USART1_MspInit 0 */
    /* Peripheral clock enable */
    __HAL_RCC_USART1_CLK_ENABLE();
 8002a14:	4b36      	ldr	r3, [pc, #216]	; (8002af0 <HAL_UART_MspInit+0xfc>)
 8002a16:	699b      	ldr	r3, [r3, #24]
 8002a18:	4a35      	ldr	r2, [pc, #212]	; (8002af0 <HAL_UART_MspInit+0xfc>)
 8002a1a:	f443 4380 	orr.w	r3, r3, #16384	; 0x4000
 8002a1e:	6193      	str	r3, [r2, #24]
 8002a20:	4b33      	ldr	r3, [pc, #204]	; (8002af0 <HAL_UART_MspInit+0xfc>)
 8002a22:	699b      	ldr	r3, [r3, #24]
 8002a24:	f403 4380 	and.w	r3, r3, #16384	; 0x4000
 8002a28:	617b      	str	r3, [r7, #20]
 8002a2a:	697b      	ldr	r3, [r7, #20]

    __HAL_RCC_GPIOA_CLK_ENABLE();
 8002a2c:	4b30      	ldr	r3, [pc, #192]	; (8002af0 <HAL_UART_MspInit+0xfc>)
 8002a2e:	699b      	ldr	r3, [r3, #24]
 8002a30:	4a2f      	ldr	r2, [pc, #188]	; (8002af0 <HAL_UART_MspInit+0xfc>)
 8002a32:	f043 0304 	orr.w	r3, r3, #4
 8002a36:	6193      	str	r3, [r2, #24]
 8002a38:	4b2d      	ldr	r3, [pc, #180]	; (8002af0 <HAL_UART_MspInit+0xfc>)
 8002a3a:	699b      	ldr	r3, [r3, #24]
 8002a3c:	f003 0304 	and.w	r3, r3, #4
 8002a40:	613b      	str	r3, [r7, #16]
 8002a42:	693b      	ldr	r3, [r7, #16]
    /**USART1 GPIO Configuration
    PA9     ------> USART1_TX
    PA10     ------> USART1_RX
    PA11     ------> USART1_CTS
    */
    GPIO_InitStruct.Pin = GPIO_PIN_9;
 8002a44:	f44f 7300 	mov.w	r3, #512	; 0x200
 8002a48:	61bb      	str	r3, [r7, #24]
    GPIO_InitStruct.Mode = GPIO_MODE_AF_PP;
 8002a4a:	2302      	movs	r3, #2
 8002a4c:	61fb      	str	r3, [r7, #28]
    GPIO_InitStruct.Speed = GPIO_SPEED_FREQ_HIGH;
 8002a4e:	2303      	movs	r3, #3
 8002a50:	627b      	str	r3, [r7, #36]	; 0x24
    HAL_GPIO_Init(GPIOA, &GPIO_InitStruct);
 8002a52:	f107 0318 	add.w	r3, r7, #24
 8002a56:	4619      	mov	r1, r3
 8002a58:	4826      	ldr	r0, [pc, #152]	; (8002af4 <HAL_UART_MspInit+0x100>)
 8002a5a:	f001 fe0b 	bl	8004674 <HAL_GPIO_Init>

    GPIO_InitStruct.Pin = GPIO_PIN_10|GPIO_PIN_11;
 8002a5e:	f44f 6340 	mov.w	r3, #3072	; 0xc00
 8002a62:	61bb      	str	r3, [r7, #24]
    GPIO_InitStruct.Mode = GPIO_MODE_INPUT;
 8002a64:	2300      	movs	r3, #0
 8002a66:	61fb      	str	r3, [r7, #28]
    GPIO_InitStruct.Pull = GPIO_NOPULL;
 8002a68:	2300      	movs	r3, #0
 8002a6a:	623b      	str	r3, [r7, #32]
    HAL_GPIO_Init(GPIOA, &GPIO_InitStruct);
 8002a6c:	f107 0318 	add.w	r3, r7, #24
 8002a70:	4619      	mov	r1, r3
 8002a72:	4820      	ldr	r0, [pc, #128]	; (8002af4 <HAL_UART_MspInit+0x100>)
 8002a74:	f001 fdfe 	bl	8004674 <HAL_GPIO_Init>
  /* USER CODE BEGIN USART2_MspInit 1 */

  /* USER CODE END USART2_MspInit 1 */
  }

}
 8002a78:	e034      	b.n	8002ae4 <HAL_UART_MspInit+0xf0>
  else if(huart->Instance==USART2)
 8002a7a:	687b      	ldr	r3, [r7, #4]
 8002a7c:	681b      	ldr	r3, [r3, #0]
 8002a7e:	4a1e      	ldr	r2, [pc, #120]	; (8002af8 <HAL_UART_MspInit+0x104>)
 8002a80:	4293      	cmp	r3, r2
 8002a82:	d12f      	bne.n	8002ae4 <HAL_UART_MspInit+0xf0>
    __HAL_RCC_USART2_CLK_ENABLE();
 8002a84:	4b1a      	ldr	r3, [pc, #104]	; (8002af0 <HAL_UART_MspInit+0xfc>)
 8002a86:	69db      	ldr	r3, [r3, #28]
 8002a88:	4a19      	ldr	r2, [pc, #100]	; (8002af0 <HAL_UART_MspInit+0xfc>)
 8002a8a:	f443 3300 	orr.w	r3, r3, #131072	; 0x20000
 8002a8e:	61d3      	str	r3, [r2, #28]
 8002a90:	4b17      	ldr	r3, [pc, #92]	; (8002af0 <HAL_UART_MspInit+0xfc>)
 8002a92:	69db      	ldr	r3, [r3, #28]
 8002a94:	f403 3300 	and.w	r3, r3, #131072	; 0x20000
 8002a98:	60fb      	str	r3, [r7, #12]
 8002a9a:	68fb      	ldr	r3, [r7, #12]
    __HAL_RCC_GPIOA_CLK_ENABLE();
 8002a9c:	4b14      	ldr	r3, [pc, #80]	; (8002af0 <HAL_UART_MspInit+0xfc>)
 8002a9e:	699b      	ldr	r3, [r3, #24]
 8002aa0:	4a13      	ldr	r2, [pc, #76]	; (8002af0 <HAL_UART_MspInit+0xfc>)
 8002aa2:	f043 0304 	orr.w	r3, r3, #4
 8002aa6:	6193      	str	r3, [r2, #24]
 8002aa8:	4b11      	ldr	r3, [pc, #68]	; (8002af0 <HAL_UART_MspInit+0xfc>)
 8002aaa:	699b      	ldr	r3, [r3, #24]
 8002aac:	f003 0304 	and.w	r3, r3, #4
 8002ab0:	60bb      	str	r3, [r7, #8]
 8002ab2:	68bb      	ldr	r3, [r7, #8]
    GPIO_InitStruct.Pin = GPIO_PIN_2;
 8002ab4:	2304      	movs	r3, #4
 8002ab6:	61bb      	str	r3, [r7, #24]
    GPIO_InitStruct.Mode = GPIO_MODE_AF_PP;
 8002ab8:	2302      	movs	r3, #2
 8002aba:	61fb      	str	r3, [r7, #28]
    GPIO_InitStruct.Speed = GPIO_SPEED_FREQ_HIGH;
 8002abc:	2303      	movs	r3, #3
 8002abe:	627b      	str	r3, [r7, #36]	; 0x24
    HAL_GPIO_Init(GPIOA, &GPIO_InitStruct);
 8002ac0:	f107 0318 	add.w	r3, r7, #24
 8002ac4:	4619      	mov	r1, r3
 8002ac6:	480b      	ldr	r0, [pc, #44]	; (8002af4 <HAL_UART_MspInit+0x100>)
 8002ac8:	f001 fdd4 	bl	8004674 <HAL_GPIO_Init>
    GPIO_InitStruct.Pin = GPIO_PIN_3;
 8002acc:	2308      	movs	r3, #8
 8002ace:	61bb      	str	r3, [r7, #24]
    GPIO_InitStruct.Mode = GPIO_MODE_INPUT;
 8002ad0:	2300      	movs	r3, #0
 8002ad2:	61fb      	str	r3, [r7, #28]
    GPIO_InitStruct.Pull = GPIO_NOPULL;
 8002ad4:	2300      	movs	r3, #0
 8002ad6:	623b      	str	r3, [r7, #32]
    HAL_GPIO_Init(GPIOA, &GPIO_InitStruct);
 8002ad8:	f107 0318 	add.w	r3, r7, #24
 8002adc:	4619      	mov	r1, r3
 8002ade:	4805      	ldr	r0, [pc, #20]	; (8002af4 <HAL_UART_MspInit+0x100>)
 8002ae0:	f001 fdc8 	bl	8004674 <HAL_GPIO_Init>
}
 8002ae4:	bf00      	nop
 8002ae6:	3728      	adds	r7, #40	; 0x28
 8002ae8:	46bd      	mov	sp, r7
 8002aea:	bd80      	pop	{r7, pc}
 8002aec:	40013800 	.word	0x40013800
 8002af0:	40021000 	.word	0x40021000
 8002af4:	40010800 	.word	0x40010800
 8002af8:	40004400 	.word	0x40004400

08002afc <NMI_Handler>:

/******************************************************************************/
/*           Cortex-M3 Processor Interruption and Exception Handlers          */
/******************************************************************************/
void NMI_Handler(void)
{
 8002afc:	b480      	push	{r7}
 8002afe:	af00      	add	r7, sp, #0
  while (1)
 8002b00:	e7fe      	b.n	8002b00 <NMI_Handler+0x4>

08002b02 <HardFault_Handler>:
  {
  }
}

void HardFault_Handler(void)
{
 8002b02:	b480      	push	{r7}
 8002b04:	af00      	add	r7, sp, #0
  while (1)
 8002b06:	e7fe      	b.n	8002b06 <HardFault_Handler+0x4>

08002b08 <MemManage_Handler>:
  {
  }
}

void MemManage_Handler(void)
{
 8002b08:	b480      	push	{r7}
 8002b0a:	af00      	add	r7, sp, #0
  while (1)
 8002b0c:	e7fe      	b.n	8002b0c <MemManage_Handler+0x4>

08002b0e <BusFault_Handler>:
  {
  }
}

void BusFault_Handler(void)
{
 8002b0e:	b480      	push	{r7}
 8002b10:	af00      	add	r7, sp, #0
  while (1)
 8002b12:	e7fe      	b.n	8002b12 <BusFault_Handler+0x4>

08002b14 <UsageFault_Handler>:
  {
  }
}

void UsageFault_Handler(void)
{
 8002b14:	b480      	push	{r7}
 8002b16:	af00      	add	r7, sp, #0
  while (1)
 8002b18:	e7fe      	b.n	8002b18 <UsageFault_Handler+0x4>

08002b1a <SVC_Handler>:
  {
  }
}

void SVC_Handler(void)
{
 8002b1a:	b480      	push	{r7}
 8002b1c:	af00      	add	r7, sp, #0
}
 8002b1e:	bf00      	nop
 8002b20:	46bd      	mov	sp, r7
 8002b22:	bc80      	pop	{r7}
 8002b24:	4770      	bx	lr

08002b26 <DebugMon_Handler>:

void DebugMon_Handler(void)
{
 8002b26:	b480      	push	{r7}
 8002b28:	af00      	add	r7, sp, #0
}
 8002b2a:	bf00      	nop
 8002b2c:	46bd      	mov	sp, r7
 8002b2e:	bc80      	pop	{r7}
 8002b30:	4770      	bx	lr

08002b32 <PendSV_Handler>:

void PendSV_Handler(void)
{
 8002b32:	b480      	push	{r7}
 8002b34:	af00      	add	r7, sp, #0
}
 8002b36:	bf00      	nop
 8002b38:	46bd      	mov	sp, r7
 8002b3a:	bc80      	pop	{r7}
 8002b3c:	4770      	bx	lr

08002b3e <SysTick_Handler>:

void SysTick_Handler(void)
{
 8002b3e:	b580      	push	{r7, lr}
 8002b40:	af00      	add	r7, sp, #0
  HAL_IncTick();
 8002b42:	f000 fdb5 	bl	80036b0 <HAL_IncTick>
}
 8002b46:	bf00      	nop
 8002b48:	bd80      	pop	{r7, pc}

08002b4a <EXTI1_IRQHandler>:
/******************************************************************************/
/* STM32F1xx Peripheral Interrupt Handlers                                    */
/******************************************************************************/

void EXTI1_IRQHandler(void)
{
 8002b4a:	b580      	push	{r7, lr}
 8002b4c:	af00      	add	r7, sp, #0
  HAL_GPIO_EXTI_IRQHandler(GPIO_PIN_1);
 8002b4e:	2002      	movs	r0, #2
 8002b50:	f001 ff46 	bl	80049e0 <HAL_GPIO_EXTI_IRQHandler>
}
 8002b54:	bf00      	nop
 8002b56:	bd80      	pop	{r7, pc}

08002b58 <TIM3_IRQHandler>:

void TIM3_IRQHandler(void)
{
 8002b58:	b480      	push	{r7}
 8002b5a:	b083      	sub	sp, #12
 8002b5c:	af00      	add	r7, sp, #0
    /* Проверка флага захвата канала 4 */
    if (TIM3->SR & TIM_SR_CC4IF) {
 8002b5e:	4b26      	ldr	r3, [pc, #152]	; (8002bf8 <TIM3_IRQHandler+0xa0>)
 8002b60:	691b      	ldr	r3, [r3, #16]
 8002b62:	f003 0310 	and.w	r3, r3, #16
 8002b66:	2b00      	cmp	r3, #0
 8002b68:	d030      	beq.n	8002bcc <TIM3_IRQHandler+0x74>
        /* Чтение значения захвата */
        uint16_t capture = TIM3->CCR4;
 8002b6a:	4b23      	ldr	r3, [pc, #140]	; (8002bf8 <TIM3_IRQHandler+0xa0>)
 8002b6c:	6c1b      	ldr	r3, [r3, #64]	; 0x40
 8002b6e:	80fb      	strh	r3, [r7, #6]

        /* Сохранение времени захвата */
        if (capture_index < 3) {
 8002b70:	4b22      	ldr	r3, [pc, #136]	; (8002bfc <TIM3_IRQHandler+0xa4>)
 8002b72:	781b      	ldrb	r3, [r3, #0]
 8002b74:	b2db      	uxtb	r3, r3
 8002b76:	2b02      	cmp	r3, #2
 8002b78:	d822      	bhi.n	8002bc0 <TIM3_IRQHandler+0x68>
            capture_times[capture_index] = capture;
 8002b7a:	4b20      	ldr	r3, [pc, #128]	; (8002bfc <TIM3_IRQHandler+0xa4>)
 8002b7c:	781b      	ldrb	r3, [r3, #0]
 8002b7e:	b2db      	uxtb	r3, r3
 8002b80:	4619      	mov	r1, r3
 8002b82:	88fb      	ldrh	r3, [r7, #6]
 8002b84:	4a1e      	ldr	r2, [pc, #120]	; (8002c00 <TIM3_IRQHandler+0xa8>)
 8002b86:	f842 3021 	str.w	r3, [r2, r1, lsl #2]
            capture_index++;
 8002b8a:	4b1c      	ldr	r3, [pc, #112]	; (8002bfc <TIM3_IRQHandler+0xa4>)
 8002b8c:	781b      	ldrb	r3, [r3, #0]
 8002b8e:	b2db      	uxtb	r3, r3
 8002b90:	3301      	adds	r3, #1
 8002b92:	b2da      	uxtb	r2, r3
 8002b94:	4b19      	ldr	r3, [pc, #100]	; (8002bfc <TIM3_IRQHandler+0xa4>)
 8002b96:	701a      	strb	r2, [r3, #0]

            /* Проверка завершения измерения (3 импульса) */
            if (capture_index >= 3) {
 8002b98:	4b18      	ldr	r3, [pc, #96]	; (8002bfc <TIM3_IRQHandler+0xa4>)
 8002b9a:	781b      	ldrb	r3, [r3, #0]
 8002b9c:	b2db      	uxtb	r3, r3
 8002b9e:	2b02      	cmp	r3, #2
 8002ba0:	d90e      	bls.n	8002bc0 <TIM3_IRQHandler+0x68>
                measurement_done = 1;
 8002ba2:	4b18      	ldr	r3, [pc, #96]	; (8002c04 <TIM3_IRQHandler+0xac>)
 8002ba4:	2201      	movs	r2, #1
 8002ba6:	701a      	strb	r2, [r3, #0]
                TIM3->CR1 &= ~TIM_CR1_CEN;  // Остановка таймера
 8002ba8:	4b13      	ldr	r3, [pc, #76]	; (8002bf8 <TIM3_IRQHandler+0xa0>)
 8002baa:	681b      	ldr	r3, [r3, #0]
 8002bac:	4a12      	ldr	r2, [pc, #72]	; (8002bf8 <TIM3_IRQHandler+0xa0>)
 8002bae:	f023 0301 	bic.w	r3, r3, #1
 8002bb2:	6013      	str	r3, [r2, #0]
                TIM3->DIER &= ~TIM_DIER_CC4IE;  // Отключение прерывания
 8002bb4:	4b10      	ldr	r3, [pc, #64]	; (8002bf8 <TIM3_IRQHandler+0xa0>)
 8002bb6:	68db      	ldr	r3, [r3, #12]
 8002bb8:	4a0f      	ldr	r2, [pc, #60]	; (8002bf8 <TIM3_IRQHandler+0xa0>)
 8002bba:	f023 0310 	bic.w	r3, r3, #16
 8002bbe:	60d3      	str	r3, [r2, #12]
            }
        }

        /* Сброс флага прерывания */
        TIM3->SR &= ~TIM_SR_CC4IF;
 8002bc0:	4b0d      	ldr	r3, [pc, #52]	; (8002bf8 <TIM3_IRQHandler+0xa0>)
 8002bc2:	691b      	ldr	r3, [r3, #16]
 8002bc4:	4a0c      	ldr	r2, [pc, #48]	; (8002bf8 <TIM3_IRQHandler+0xa0>)
 8002bc6:	f023 0310 	bic.w	r3, r3, #16
 8002bca:	6113      	str	r3, [r2, #16]
    }

    /* Обработка переполнения (если нужно для длинных периодов) */
    if (TIM3->SR & TIM_SR_UIF) {
 8002bcc:	4b0a      	ldr	r3, [pc, #40]	; (8002bf8 <TIM3_IRQHandler+0xa0>)
 8002bce:	691b      	ldr	r3, [r3, #16]
 8002bd0:	f003 0301 	and.w	r3, r3, #1
 8002bd4:	2b00      	cmp	r3, #0
 8002bd6:	d00a      	beq.n	8002bee <TIM3_IRQHandler+0x96>
        last_capture += 0x10000;  // Учёт переполнения 16-битного счётчика
 8002bd8:	4b0b      	ldr	r3, [pc, #44]	; (8002c08 <TIM3_IRQHandler+0xb0>)
 8002bda:	881b      	ldrh	r3, [r3, #0]
 8002bdc:	b29a      	uxth	r2, r3
 8002bde:	4b0a      	ldr	r3, [pc, #40]	; (8002c08 <TIM3_IRQHandler+0xb0>)
 8002be0:	801a      	strh	r2, [r3, #0]
        TIM3->SR &= ~TIM_SR_UIF;
 8002be2:	4b05      	ldr	r3, [pc, #20]	; (8002bf8 <TIM3_IRQHandler+0xa0>)
 8002be4:	691b      	ldr	r3, [r3, #16]
 8002be6:	4a04      	ldr	r2, [pc, #16]	; (8002bf8 <TIM3_IRQHandler+0xa0>)
 8002be8:	f023 0301 	bic.w	r3, r3, #1
 8002bec:	6113      	str	r3, [r2, #16]
    }
}
 8002bee:	bf00      	nop
 8002bf0:	370c      	adds	r7, #12
 8002bf2:	46bd      	mov	sp, r7
 8002bf4:	bc80      	pop	{r7}
 8002bf6:	4770      	bx	lr
 8002bf8:	40000400 	.word	0x40000400
 8002bfc:	20000174 	.word	0x20000174
 8002c00:	20000168 	.word	0x20000168
 8002c04:	20000175 	.word	0x20000175
 8002c08:	20000176 	.word	0x20000176

08002c0c <USART1_IRQHandler>:

void USART1_IRQHandler(void)
{
 8002c0c:	b580      	push	{r7, lr}
 8002c0e:	af00      	add	r7, sp, #0
    // Используем стандартный обработчик HAL
    HAL_UART_IRQHandler(&huart1);
 8002c10:	4802      	ldr	r0, [pc, #8]	; (8002c1c <USART1_IRQHandler+0x10>)
 8002c12:	f003 fa47 	bl	80060a4 <HAL_UART_IRQHandler>
}
 8002c16:	bf00      	nop
 8002c18:	bd80      	pop	{r7, pc}
 8002c1a:	bf00      	nop
 8002c1c:	20000038 	.word	0x20000038

08002c20 <USART2_IRQHandler>:

void USART2_IRQHandler(void)
{
 8002c20:	b580      	push	{r7, lr}
 8002c22:	af00      	add	r7, sp, #0
    HAL_UART_IRQHandler(&huart2);
 8002c24:	4802      	ldr	r0, [pc, #8]	; (8002c30 <USART2_IRQHandler+0x10>)
 8002c26:	f003 fa3d 	bl	80060a4 <HAL_UART_IRQHandler>
}
 8002c2a:	bf00      	nop
 8002c2c:	bd80      	pop	{r7, pc}
 8002c2e:	bf00      	nop
 8002c30:	2000007c 	.word	0x2000007c

08002c34 <ADC1_2_IRQHandler>:

// Обработчики прерываний ADC (добавлены)
void ADC1_2_IRQHandler(void)
{
 8002c34:	b580      	push	{r7, lr}
 8002c36:	af00      	add	r7, sp, #0
    HAL_ADC_IRQHandler(&hadc1);
 8002c38:	4803      	ldr	r0, [pc, #12]	; (8002c48 <ADC1_2_IRQHandler+0x14>)
 8002c3a:	f001 f83d 	bl	8003cb8 <HAL_ADC_IRQHandler>
    HAL_ADC_IRQHandler(&hadc2);
 8002c3e:	4803      	ldr	r0, [pc, #12]	; (8002c4c <ADC1_2_IRQHandler+0x18>)
 8002c40:	f001 f83a 	bl	8003cb8 <HAL_ADC_IRQHandler>
}
 8002c44:	bf00      	nop
 8002c46:	bd80      	pop	{r7, pc}
 8002c48:	200000c0 	.word	0x200000c0
 8002c4c:	200000f0 	.word	0x200000f0

08002c50 <TIM4_IRQHandler>:

/**
  * @brief This function handles TIM4 global interrupt.
  */
void TIM4_IRQHandler(void)
{
 8002c50:	b580      	push	{r7, lr}
 8002c52:	af00      	add	r7, sp, #0
    HAL_TIM_IRQHandler(&htim4);
 8002c54:	4802      	ldr	r0, [pc, #8]	; (8002c60 <TIM4_IRQHandler+0x10>)
 8002c56:	f002 fd25 	bl	80056a4 <HAL_TIM_IRQHandler>
}
 8002c5a:	bf00      	nop
 8002c5c:	bd80      	pop	{r7, pc}
 8002c5e:	bf00      	nop
 8002c60:	20000120 	.word	0x20000120

08002c64 <SystemInit>:
  * @note   This function should be used only after reset.
  * @param  None
  * @retval None
  */
void SystemInit (void)
{
 8002c64:	b480      	push	{r7}
 8002c66:	af00      	add	r7, sp, #0

  /* Configure the Vector Table location -------------------------------------*/
#if defined(USER_VECT_TAB_ADDRESS)
  SCB->VTOR = VECT_TAB_BASE_ADDRESS | VECT_TAB_OFFSET; /* Vector Table Relocation in Internal SRAM. */
#endif /* USER_VECT_TAB_ADDRESS */
}
 8002c68:	bf00      	nop
 8002c6a:	46bd      	mov	sp, r7
 8002c6c:	bc80      	pop	{r7}
 8002c6e:	4770      	bx	lr

08002c70 <USART2_Print>:

/**
  * @brief  Вывод строки через USART2
  */
void USART2_Print(const char* str)
{
 8002c70:	b580      	push	{r7, lr}
 8002c72:	b082      	sub	sp, #8
 8002c74:	af00      	add	r7, sp, #0
 8002c76:	6078      	str	r0, [r7, #4]
    if (str == NULL) return;
 8002c78:	687b      	ldr	r3, [r7, #4]
 8002c7a:	2b00      	cmp	r3, #0
 8002c7c:	d00a      	beq.n	8002c94 <USART2_Print+0x24>
    HAL_UART_Transmit(&huart2, (uint8_t*)str, strlen(str), 100);
 8002c7e:	6878      	ldr	r0, [r7, #4]
 8002c80:	f7fd fa64 	bl	800014c <strlen>
 8002c84:	4603      	mov	r3, r0
 8002c86:	b29a      	uxth	r2, r3
 8002c88:	2364      	movs	r3, #100	; 0x64
 8002c8a:	6879      	ldr	r1, [r7, #4]
 8002c8c:	4803      	ldr	r0, [pc, #12]	; (8002c9c <USART2_Print+0x2c>)
 8002c8e:	f003 f946 	bl	8005f1e <HAL_UART_Transmit>
 8002c92:	e000      	b.n	8002c96 <USART2_Print+0x26>
    if (str == NULL) return;
 8002c94:	bf00      	nop
}
 8002c96:	3708      	adds	r7, #8
 8002c98:	46bd      	mov	sp, r7
 8002c9a:	bd80      	pop	{r7, pc}
 8002c9c:	2000007c 	.word	0x2000007c

08002ca0 <USART2_PrintNum>:

/**
  * @brief  Вывод числа через USART2
  */
void USART2_PrintNum(uint32_t num)
{
 8002ca0:	b580      	push	{r7, lr}
 8002ca2:	b088      	sub	sp, #32
 8002ca4:	af00      	add	r7, sp, #0
 8002ca6:	6078      	str	r0, [r7, #4]
    /* Преобразование числа в строку */
    if (num == 0) {
 8002ca8:	687b      	ldr	r3, [r7, #4]
 8002caa:	2b00      	cmp	r3, #0
 8002cac:	d103      	bne.n	8002cb6 <USART2_PrintNum+0x16>
        USART2_Print("0");
 8002cae:	481e      	ldr	r0, [pc, #120]	; (8002d28 <USART2_PrintNum+0x88>)
 8002cb0:	f7ff ffde 	bl	8002c70 <USART2_Print>
 8002cb4:	e035      	b.n	8002d22 <USART2_PrintNum+0x82>
        return;
    }
    
    char temp[16];
    int i = 0;
 8002cb6:	2300      	movs	r3, #0
 8002cb8:	61fb      	str	r3, [r7, #28]
    
    while (num > 0 && i < 15) {
 8002cba:	e019      	b.n	8002cf0 <USART2_PrintNum+0x50>
        temp[i++] = (num % 10) + '0';
 8002cbc:	6879      	ldr	r1, [r7, #4]
 8002cbe:	4b1b      	ldr	r3, [pc, #108]	; (8002d2c <USART2_PrintNum+0x8c>)
 8002cc0:	fba3 2301 	umull	r2, r3, r3, r1
 8002cc4:	08da      	lsrs	r2, r3, #3
 8002cc6:	4613      	mov	r3, r2
 8002cc8:	009b      	lsls	r3, r3, #2
 8002cca:	4413      	add	r3, r2
 8002ccc:	005b      	lsls	r3, r3, #1
 8002cce:	1aca      	subs	r2, r1, r3
 8002cd0:	b2d2      	uxtb	r2, r2
 8002cd2:	69fb      	ldr	r3, [r7, #28]
 8002cd4:	1c59      	adds	r1, r3, #1
 8002cd6:	61f9      	str	r1, [r7, #28]
 8002cd8:	3230      	adds	r2, #48	; 0x30
 8002cda:	b2d2      	uxtb	r2, r2
 8002cdc:	3320      	adds	r3, #32
 8002cde:	443b      	add	r3, r7
 8002ce0:	f803 2c18 	strb.w	r2, [r3, #-24]
        num /= 10;
 8002ce4:	687b      	ldr	r3, [r7, #4]
 8002ce6:	4a11      	ldr	r2, [pc, #68]	; (8002d2c <USART2_PrintNum+0x8c>)
 8002ce8:	fba2 2303 	umull	r2, r3, r2, r3
 8002cec:	08db      	lsrs	r3, r3, #3
 8002cee:	607b      	str	r3, [r7, #4]
    while (num > 0 && i < 15) {
 8002cf0:	687b      	ldr	r3, [r7, #4]
 8002cf2:	2b00      	cmp	r3, #0
 8002cf4:	d002      	beq.n	8002cfc <USART2_PrintNum+0x5c>
 8002cf6:	69fb      	ldr	r3, [r7, #28]
 8002cf8:	2b0e      	cmp	r3, #14
 8002cfa:	dddf      	ble.n	8002cbc <USART2_PrintNum+0x1c>
    }
    
    /* Вывод в обратном порядке */
    for (int j = i - 1; j >= 0; j--) {
 8002cfc:	69fb      	ldr	r3, [r7, #28]
 8002cfe:	3b01      	subs	r3, #1
 8002d00:	61bb      	str	r3, [r7, #24]
 8002d02:	e00b      	b.n	8002d1c <USART2_PrintNum+0x7c>
        HAL_UART_Transmit(&huart2, (uint8_t*)&temp[j], 1, 100);
 8002d04:	f107 0208 	add.w	r2, r7, #8
 8002d08:	69bb      	ldr	r3, [r7, #24]
 8002d0a:	18d1      	adds	r1, r2, r3
 8002d0c:	2364      	movs	r3, #100	; 0x64
 8002d0e:	2201      	movs	r2, #1
 8002d10:	4807      	ldr	r0, [pc, #28]	; (8002d30 <USART2_PrintNum+0x90>)
 8002d12:	f003 f904 	bl	8005f1e <HAL_UART_Transmit>
    for (int j = i - 1; j >= 0; j--) {
 8002d16:	69bb      	ldr	r3, [r7, #24]
 8002d18:	3b01      	subs	r3, #1
 8002d1a:	61bb      	str	r3, [r7, #24]
 8002d1c:	69bb      	ldr	r3, [r7, #24]
 8002d1e:	2b00      	cmp	r3, #0
 8002d20:	daf0      	bge.n	8002d04 <USART2_PrintNum+0x64>
    }
}
 8002d22:	3720      	adds	r7, #32
 8002d24:	46bd      	mov	sp, r7
 8002d26:	bd80      	pop	{r7, pc}
 8002d28:	080070b8 	.word	0x080070b8
 8002d2c:	cccccccd 	.word	0xcccccccd
 8002d30:	2000007c 	.word	0x2000007c

08002d34 <USART2_PrintHexByte>:

/**
  * @brief  Вывод одного байта в hex формате на USART2
  */
void USART2_PrintHexByte(uint8_t byte)
{
 8002d34:	b5b0      	push	{r4, r5, r7, lr}
 8002d36:	b088      	sub	sp, #32
 8002d38:	af00      	add	r7, sp, #0
 8002d3a:	4603      	mov	r3, r0
 8002d3c:	71fb      	strb	r3, [r7, #7]
    const char hex_chars[] = "0123456789ABCDEF";
 8002d3e:	4b13      	ldr	r3, [pc, #76]	; (8002d8c <USART2_PrintHexByte+0x58>)
 8002d40:	f107 040c 	add.w	r4, r7, #12
 8002d44:	461d      	mov	r5, r3
 8002d46:	cd0f      	ldmia	r5!, {r0, r1, r2, r3}
 8002d48:	c40f      	stmia	r4!, {r0, r1, r2, r3}
 8002d4a:	682b      	ldr	r3, [r5, #0]
 8002d4c:	7023      	strb	r3, [r4, #0]
    str_buffer[0] = hex_chars[(byte >> 4) & 0x0F];
 8002d4e:	79fb      	ldrb	r3, [r7, #7]
 8002d50:	091b      	lsrs	r3, r3, #4
 8002d52:	b2db      	uxtb	r3, r3
 8002d54:	f003 030f 	and.w	r3, r3, #15
 8002d58:	3320      	adds	r3, #32
 8002d5a:	443b      	add	r3, r7
 8002d5c:	f813 2c14 	ldrb.w	r2, [r3, #-20]
 8002d60:	4b0b      	ldr	r3, [pc, #44]	; (8002d90 <USART2_PrintHexByte+0x5c>)
 8002d62:	701a      	strb	r2, [r3, #0]
    str_buffer[1] = hex_chars[byte & 0x0F];
 8002d64:	79fb      	ldrb	r3, [r7, #7]
 8002d66:	f003 030f 	and.w	r3, r3, #15
 8002d6a:	3320      	adds	r3, #32
 8002d6c:	443b      	add	r3, r7
 8002d6e:	f813 2c14 	ldrb.w	r2, [r3, #-20]
 8002d72:	4b07      	ldr	r3, [pc, #28]	; (8002d90 <USART2_PrintHexByte+0x5c>)
 8002d74:	705a      	strb	r2, [r3, #1]
    str_buffer[2] = '\0';
 8002d76:	4b06      	ldr	r3, [pc, #24]	; (8002d90 <USART2_PrintHexByte+0x5c>)
 8002d78:	2200      	movs	r2, #0
 8002d7a:	709a      	strb	r2, [r3, #2]
    USART2_Print(str_buffer);
 8002d7c:	4804      	ldr	r0, [pc, #16]	; (8002d90 <USART2_PrintHexByte+0x5c>)
 8002d7e:	f7ff ff77 	bl	8002c70 <USART2_Print>
}
 8002d82:	bf00      	nop
 8002d84:	3720      	adds	r7, #32
 8002d86:	46bd      	mov	sp, r7
 8002d88:	bdb0      	pop	{r4, r5, r7, pc}
 8002d8a:	bf00      	nop
 8002d8c:	080070bc 	.word	0x080070bc
 8002d90:	20000414 	.word	0x20000414

08002d94 <USART2_PrintHexBuffer>:

/**
  * @brief  Вывод буфера в hex формате на USART2
  */
void USART2_PrintHexBuffer(const uint8_t* buffer, uint16_t length)
{
 8002d94:	b580      	push	{r7, lr}
 8002d96:	b084      	sub	sp, #16
 8002d98:	af00      	add	r7, sp, #0
 8002d9a:	6078      	str	r0, [r7, #4]
 8002d9c:	460b      	mov	r3, r1
 8002d9e:	807b      	strh	r3, [r7, #2]
    for (uint16_t i = 0; i < length; i++) {
 8002da0:	2300      	movs	r3, #0
 8002da2:	81fb      	strh	r3, [r7, #14]
 8002da4:	e011      	b.n	8002dca <USART2_PrintHexBuffer+0x36>
        USART2_PrintHexByte(buffer[i]);
 8002da6:	89fb      	ldrh	r3, [r7, #14]
 8002da8:	687a      	ldr	r2, [r7, #4]
 8002daa:	4413      	add	r3, r2
 8002dac:	781b      	ldrb	r3, [r3, #0]
 8002dae:	4618      	mov	r0, r3
 8002db0:	f7ff ffc0 	bl	8002d34 <USART2_PrintHexByte>
        if (i < length - 1) {
 8002db4:	89fa      	ldrh	r2, [r7, #14]
 8002db6:	887b      	ldrh	r3, [r7, #2]
 8002db8:	3b01      	subs	r3, #1
 8002dba:	429a      	cmp	r2, r3
 8002dbc:	da02      	bge.n	8002dc4 <USART2_PrintHexBuffer+0x30>
            USART2_Print(" ");
 8002dbe:	4807      	ldr	r0, [pc, #28]	; (8002ddc <USART2_PrintHexBuffer+0x48>)
 8002dc0:	f7ff ff56 	bl	8002c70 <USART2_Print>
    for (uint16_t i = 0; i < length; i++) {
 8002dc4:	89fb      	ldrh	r3, [r7, #14]
 8002dc6:	3301      	adds	r3, #1
 8002dc8:	81fb      	strh	r3, [r7, #14]
 8002dca:	89fa      	ldrh	r2, [r7, #14]
 8002dcc:	887b      	ldrh	r3, [r7, #2]
 8002dce:	429a      	cmp	r2, r3
 8002dd0:	d3e9      	bcc.n	8002da6 <USART2_PrintHexBuffer+0x12>
        }
    }
}
 8002dd2:	bf00      	nop
 8002dd4:	bf00      	nop
 8002dd6:	3710      	adds	r7, #16
 8002dd8:	46bd      	mov	sp, r7
 8002dda:	bd80      	pop	{r7, pc}
 8002ddc:	080070d0 	.word	0x080070d0

08002de0 <USART2_PrintModBusCommand>:

/**
  * @brief  Вывод ModBus команды в формате QModMaster на USART2
  */
void USART2_PrintModBusCommand(const uint8_t* data, uint16_t length)
{
 8002de0:	b580      	push	{r7, lr}
 8002de2:	b088      	sub	sp, #32
 8002de4:	af00      	add	r7, sp, #0
 8002de6:	6078      	str	r0, [r7, #4]
 8002de8:	460b      	mov	r3, r1
 8002dea:	807b      	strh	r3, [r7, #2]
    if (length == 0) return;
 8002dec:	887b      	ldrh	r3, [r7, #2]
 8002dee:	2b00      	cmp	r3, #0
 8002df0:	d072      	beq.n	8002ed8 <USART2_PrintModBusCommand+0xf8>

    USART2_Print("Sys > ");
 8002df2:	483b      	ldr	r0, [pc, #236]	; (8002ee0 <USART2_PrintModBusCommand+0x100>)
 8002df4:	f7ff ff3c 	bl	8002c70 <USART2_Print>

    /* Получаем текущее время */
    uint32_t tick = HAL_GetTick();
 8002df8:	f000 fc6c 	bl	80036d4 <HAL_GetTick>
 8002dfc:	61f8      	str	r0, [r7, #28]
    uint32_t hours = tick / 3600000;
 8002dfe:	69fb      	ldr	r3, [r7, #28]
 8002e00:	4a38      	ldr	r2, [pc, #224]	; (8002ee4 <USART2_PrintModBusCommand+0x104>)
 8002e02:	fba2 2303 	umull	r2, r3, r2, r3
 8002e06:	0d5b      	lsrs	r3, r3, #21
 8002e08:	61bb      	str	r3, [r7, #24]
    uint32_t mins = (tick % 3600000) / 60000;
 8002e0a:	69fa      	ldr	r2, [r7, #28]
 8002e0c:	4b35      	ldr	r3, [pc, #212]	; (8002ee4 <USART2_PrintModBusCommand+0x104>)
 8002e0e:	fba3 1302 	umull	r1, r3, r3, r2
 8002e12:	0d5b      	lsrs	r3, r3, #21
 8002e14:	4934      	ldr	r1, [pc, #208]	; (8002ee8 <USART2_PrintModBusCommand+0x108>)
 8002e16:	fb01 f303 	mul.w	r3, r1, r3
 8002e1a:	1ad3      	subs	r3, r2, r3
 8002e1c:	4a33      	ldr	r2, [pc, #204]	; (8002eec <USART2_PrintModBusCommand+0x10c>)
 8002e1e:	fba2 2303 	umull	r2, r3, r2, r3
 8002e22:	0b9b      	lsrs	r3, r3, #14
 8002e24:	617b      	str	r3, [r7, #20]
    uint32_t secs = (tick % 60000) / 1000;
 8002e26:	69fa      	ldr	r2, [r7, #28]
 8002e28:	4b30      	ldr	r3, [pc, #192]	; (8002eec <USART2_PrintModBusCommand+0x10c>)
 8002e2a:	fba3 1302 	umull	r1, r3, r3, r2
 8002e2e:	0b9b      	lsrs	r3, r3, #14
 8002e30:	f64e 2160 	movw	r1, #60000	; 0xea60
 8002e34:	fb01 f303 	mul.w	r3, r1, r3
 8002e38:	1ad3      	subs	r3, r2, r3
 8002e3a:	4a2d      	ldr	r2, [pc, #180]	; (8002ef0 <USART2_PrintModBusCommand+0x110>)
 8002e3c:	fba2 2303 	umull	r2, r3, r2, r3
 8002e40:	099b      	lsrs	r3, r3, #6
 8002e42:	613b      	str	r3, [r7, #16]
    uint32_t ms = tick % 1000;
 8002e44:	69fb      	ldr	r3, [r7, #28]
 8002e46:	4a2a      	ldr	r2, [pc, #168]	; (8002ef0 <USART2_PrintModBusCommand+0x110>)
 8002e48:	fba2 1203 	umull	r1, r2, r2, r3
 8002e4c:	0992      	lsrs	r2, r2, #6
 8002e4e:	f44f 717a 	mov.w	r1, #1000	; 0x3e8
 8002e52:	fb01 f202 	mul.w	r2, r1, r2
 8002e56:	1a9b      	subs	r3, r3, r2
 8002e58:	60fb      	str	r3, [r7, #12]

    /* Выводим время в формате HH:MM:SS:mmm */
    if (hours < 10) USART2_Print("0");
 8002e5a:	69bb      	ldr	r3, [r7, #24]
 8002e5c:	2b09      	cmp	r3, #9
 8002e5e:	d802      	bhi.n	8002e66 <USART2_PrintModBusCommand+0x86>
 8002e60:	4824      	ldr	r0, [pc, #144]	; (8002ef4 <USART2_PrintModBusCommand+0x114>)
 8002e62:	f7ff ff05 	bl	8002c70 <USART2_Print>
    USART2_PrintNum(hours);
 8002e66:	69b8      	ldr	r0, [r7, #24]
 8002e68:	f7ff ff1a 	bl	8002ca0 <USART2_PrintNum>
    USART2_Print(":");
 8002e6c:	4822      	ldr	r0, [pc, #136]	; (8002ef8 <USART2_PrintModBusCommand+0x118>)
 8002e6e:	f7ff feff 	bl	8002c70 <USART2_Print>
    
    if (mins < 10) USART2_Print("0");
 8002e72:	697b      	ldr	r3, [r7, #20]
 8002e74:	2b09      	cmp	r3, #9
 8002e76:	d802      	bhi.n	8002e7e <USART2_PrintModBusCommand+0x9e>
 8002e78:	481e      	ldr	r0, [pc, #120]	; (8002ef4 <USART2_PrintModBusCommand+0x114>)
 8002e7a:	f7ff fef9 	bl	8002c70 <USART2_Print>
    USART2_PrintNum(mins);
 8002e7e:	6978      	ldr	r0, [r7, #20]
 8002e80:	f7ff ff0e 	bl	8002ca0 <USART2_PrintNum>
    USART2_Print(":");
 8002e84:	481c      	ldr	r0, [pc, #112]	; (8002ef8 <USART2_PrintModBusCommand+0x118>)
 8002e86:	f7ff fef3 	bl	8002c70 <USART2_Print>
    
    if (secs < 10) USART2_Print("0");
 8002e8a:	693b      	ldr	r3, [r7, #16]
 8002e8c:	2b09      	cmp	r3, #9
 8002e8e:	d802      	bhi.n	8002e96 <USART2_PrintModBusCommand+0xb6>
 8002e90:	4818      	ldr	r0, [pc, #96]	; (8002ef4 <USART2_PrintModBusCommand+0x114>)
 8002e92:	f7ff feed 	bl	8002c70 <USART2_Print>
    USART2_PrintNum(secs);
 8002e96:	6938      	ldr	r0, [r7, #16]
 8002e98:	f7ff ff02 	bl	8002ca0 <USART2_PrintNum>
    USART2_Print(":");
 8002e9c:	4816      	ldr	r0, [pc, #88]	; (8002ef8 <USART2_PrintModBusCommand+0x118>)
 8002e9e:	f7ff fee7 	bl	8002c70 <USART2_Print>
    
    if (ms < 100) USART2_Print("0");
 8002ea2:	68fb      	ldr	r3, [r7, #12]
 8002ea4:	2b63      	cmp	r3, #99	; 0x63
 8002ea6:	d802      	bhi.n	8002eae <USART2_PrintModBusCommand+0xce>
 8002ea8:	4812      	ldr	r0, [pc, #72]	; (8002ef4 <USART2_PrintModBusCommand+0x114>)
 8002eaa:	f7ff fee1 	bl	8002c70 <USART2_Print>
    if (ms < 10) USART2_Print("0");
 8002eae:	68fb      	ldr	r3, [r7, #12]
 8002eb0:	2b09      	cmp	r3, #9
 8002eb2:	d802      	bhi.n	8002eba <USART2_PrintModBusCommand+0xda>
 8002eb4:	480f      	ldr	r0, [pc, #60]	; (8002ef4 <USART2_PrintModBusCommand+0x114>)
 8002eb6:	f7ff fedb 	bl	8002c70 <USART2_Print>
    USART2_PrintNum(ms);
 8002eba:	68f8      	ldr	r0, [r7, #12]
 8002ebc:	f7ff fef0 	bl	8002ca0 <USART2_PrintNum>
    USART2_Print(" - ");
 8002ec0:	480e      	ldr	r0, [pc, #56]	; (8002efc <USART2_PrintModBusCommand+0x11c>)
 8002ec2:	f7ff fed5 	bl	8002c70 <USART2_Print>

    /* Выводим данные команды */
    USART2_PrintHexBuffer(data, length);
 8002ec6:	887b      	ldrh	r3, [r7, #2]
 8002ec8:	4619      	mov	r1, r3
 8002eca:	6878      	ldr	r0, [r7, #4]
 8002ecc:	f7ff ff62 	bl	8002d94 <USART2_PrintHexBuffer>
    USART2_Print("\r\n");
 8002ed0:	480b      	ldr	r0, [pc, #44]	; (8002f00 <USART2_PrintModBusCommand+0x120>)
 8002ed2:	f7ff fecd 	bl	8002c70 <USART2_Print>
 8002ed6:	e000      	b.n	8002eda <USART2_PrintModBusCommand+0xfa>
    if (length == 0) return;
 8002ed8:	bf00      	nop
}
 8002eda:	3720      	adds	r7, #32
 8002edc:	46bd      	mov	sp, r7
 8002ede:	bd80      	pop	{r7, pc}
 8002ee0:	080070d4 	.word	0x080070d4
 8002ee4:	95217cb1 	.word	0x95217cb1
 8002ee8:	0036ee80 	.word	0x0036ee80
 8002eec:	45e7b273 	.word	0x45e7b273
 8002ef0:	10624dd3 	.word	0x10624dd3
 8002ef4:	080070b8 	.word	0x080070b8
 8002ef8:	080070dc 	.word	0x080070dc
 8002efc:	080070e0 	.word	0x080070e0
 8002f00:	080070e4 	.word	0x080070e4

08002f04 <USART2_PrintModBusResponse>:

/**
  * @brief  Вывод ModBus ответа на USART2
  */
void USART2_PrintModBusResponse(const uint8_t* data, uint16_t length)
{
 8002f04:	b580      	push	{r7, lr}
 8002f06:	b088      	sub	sp, #32
 8002f08:	af00      	add	r7, sp, #0
 8002f0a:	6078      	str	r0, [r7, #4]
 8002f0c:	460b      	mov	r3, r1
 8002f0e:	807b      	strh	r3, [r7, #2]
    if (length == 0) return;
 8002f10:	887b      	ldrh	r3, [r7, #2]
 8002f12:	2b00      	cmp	r3, #0
 8002f14:	d072      	beq.n	8002ffc <USART2_PrintModBusResponse+0xf8>

    USART2_Print("[RTU]>Tx > ");
 8002f16:	483b      	ldr	r0, [pc, #236]	; (8003004 <USART2_PrintModBusResponse+0x100>)
 8002f18:	f7ff feaa 	bl	8002c70 <USART2_Print>

    /* Получаем текущее время */
    uint32_t tick = HAL_GetTick();
 8002f1c:	f000 fbda 	bl	80036d4 <HAL_GetTick>
 8002f20:	61f8      	str	r0, [r7, #28]
    uint32_t hours = tick / 3600000;
 8002f22:	69fb      	ldr	r3, [r7, #28]
 8002f24:	4a38      	ldr	r2, [pc, #224]	; (8003008 <USART2_PrintModBusResponse+0x104>)
 8002f26:	fba2 2303 	umull	r2, r3, r2, r3
 8002f2a:	0d5b      	lsrs	r3, r3, #21
 8002f2c:	61bb      	str	r3, [r7, #24]
    uint32_t mins = (tick % 3600000) / 60000;
 8002f2e:	69fa      	ldr	r2, [r7, #28]
 8002f30:	4b35      	ldr	r3, [pc, #212]	; (8003008 <USART2_PrintModBusResponse+0x104>)
 8002f32:	fba3 1302 	umull	r1, r3, r3, r2
 8002f36:	0d5b      	lsrs	r3, r3, #21
 8002f38:	4934      	ldr	r1, [pc, #208]	; (800300c <USART2_PrintModBusResponse+0x108>)
 8002f3a:	fb01 f303 	mul.w	r3, r1, r3
 8002f3e:	1ad3      	subs	r3, r2, r3
 8002f40:	4a33      	ldr	r2, [pc, #204]	; (8003010 <USART2_PrintModBusResponse+0x10c>)
 8002f42:	fba2 2303 	umull	r2, r3, r2, r3
 8002f46:	0b9b      	lsrs	r3, r3, #14
 8002f48:	617b      	str	r3, [r7, #20]
    uint32_t secs = (tick % 60000) / 1000;
 8002f4a:	69fa      	ldr	r2, [r7, #28]
 8002f4c:	4b30      	ldr	r3, [pc, #192]	; (8003010 <USART2_PrintModBusResponse+0x10c>)
 8002f4e:	fba3 1302 	umull	r1, r3, r3, r2
 8002f52:	0b9b      	lsrs	r3, r3, #14
 8002f54:	f64e 2160 	movw	r1, #60000	; 0xea60
 8002f58:	fb01 f303 	mul.w	r3, r1, r3
 8002f5c:	1ad3      	subs	r3, r2, r3
 8002f5e:	4a2d      	ldr	r2, [pc, #180]	; (8003014 <USART2_PrintModBusResponse+0x110>)
 8002f60:	fba2 2303 	umull	r2, r3, r2, r3
 8002f64:	099b      	lsrs	r3, r3, #6
 8002f66:	613b      	str	r3, [r7, #16]
    uint32_t ms = tick % 1000;
 8002f68:	69fb      	ldr	r3, [r7, #28]
 8002f6a:	4a2a      	ldr	r2, [pc, #168]	; (8003014 <USART2_PrintModBusResponse+0x110>)
 8002f6c:	fba2 1203 	umull	r1, r2, r2, r3
 8002f70:	0992      	lsrs	r2, r2, #6
 8002f72:	f44f 717a 	mov.w	r1, #1000	; 0x3e8
 8002f76:	fb01 f202 	mul.w	r2, r1, r2
 8002f7a:	1a9b      	subs	r3, r3, r2
 8002f7c:	60fb      	str	r3, [r7, #12]

    /* Выводим время в формате HH:MM:SS:mmm */
    if (hours < 10) USART2_Print("0");
 8002f7e:	69bb      	ldr	r3, [r7, #24]
 8002f80:	2b09      	cmp	r3, #9
 8002f82:	d802      	bhi.n	8002f8a <USART2_PrintModBusResponse+0x86>
 8002f84:	4824      	ldr	r0, [pc, #144]	; (8003018 <USART2_PrintModBusResponse+0x114>)
 8002f86:	f7ff fe73 	bl	8002c70 <USART2_Print>
    USART2_PrintNum(hours);
 8002f8a:	69b8      	ldr	r0, [r7, #24]
 8002f8c:	f7ff fe88 	bl	8002ca0 <USART2_PrintNum>
    USART2_Print(":");
 8002f90:	4822      	ldr	r0, [pc, #136]	; (800301c <USART2_PrintModBusResponse+0x118>)
 8002f92:	f7ff fe6d 	bl	8002c70 <USART2_Print>
    
    if (mins < 10) USART2_Print("0");
 8002f96:	697b      	ldr	r3, [r7, #20]
 8002f98:	2b09      	cmp	r3, #9
 8002f9a:	d802      	bhi.n	8002fa2 <USART2_PrintModBusResponse+0x9e>
 8002f9c:	481e      	ldr	r0, [pc, #120]	; (8003018 <USART2_PrintModBusResponse+0x114>)
 8002f9e:	f7ff fe67 	bl	8002c70 <USART2_Print>
    USART2_PrintNum(mins);
 8002fa2:	6978      	ldr	r0, [r7, #20]
 8002fa4:	f7ff fe7c 	bl	8002ca0 <USART2_PrintNum>
    USART2_Print(":");
 8002fa8:	481c      	ldr	r0, [pc, #112]	; (800301c <USART2_PrintModBusResponse+0x118>)
 8002faa:	f7ff fe61 	bl	8002c70 <USART2_Print>
    
    if (secs < 10) USART2_Print("0");
 8002fae:	693b      	ldr	r3, [r7, #16]
 8002fb0:	2b09      	cmp	r3, #9
 8002fb2:	d802      	bhi.n	8002fba <USART2_PrintModBusResponse+0xb6>
 8002fb4:	4818      	ldr	r0, [pc, #96]	; (8003018 <USART2_PrintModBusResponse+0x114>)
 8002fb6:	f7ff fe5b 	bl	8002c70 <USART2_Print>
    USART2_PrintNum(secs);
 8002fba:	6938      	ldr	r0, [r7, #16]
 8002fbc:	f7ff fe70 	bl	8002ca0 <USART2_PrintNum>
    USART2_Print(":");
 8002fc0:	4816      	ldr	r0, [pc, #88]	; (800301c <USART2_PrintModBusResponse+0x118>)
 8002fc2:	f7ff fe55 	bl	8002c70 <USART2_Print>
    
    if (ms < 100) USART2_Print("0");
 8002fc6:	68fb      	ldr	r3, [r7, #12]
 8002fc8:	2b63      	cmp	r3, #99	; 0x63
 8002fca:	d802      	bhi.n	8002fd2 <USART2_PrintModBusResponse+0xce>
 8002fcc:	4812      	ldr	r0, [pc, #72]	; (8003018 <USART2_PrintModBusResponse+0x114>)
 8002fce:	f7ff fe4f 	bl	8002c70 <USART2_Print>
    if (ms < 10) USART2_Print("0");
 8002fd2:	68fb      	ldr	r3, [r7, #12]
 8002fd4:	2b09      	cmp	r3, #9
 8002fd6:	d802      	bhi.n	8002fde <USART2_PrintModBusResponse+0xda>
 8002fd8:	480f      	ldr	r0, [pc, #60]	; (8003018 <USART2_PrintModBusResponse+0x114>)
 8002fda:	f7ff fe49 	bl	8002c70 <USART2_Print>
    USART2_PrintNum(ms);
 8002fde:	68f8      	ldr	r0, [r7, #12]
 8002fe0:	f7ff fe5e 	bl	8002ca0 <USART2_PrintNum>
    USART2_Print(" - ");
 8002fe4:	480e      	ldr	r0, [pc, #56]	; (8003020 <USART2_PrintModBusResponse+0x11c>)
 8002fe6:	f7ff fe43 	bl	8002c70 <USART2_Print>

    /* Выводим данные ответа */
    USART2_PrintHexBuffer(data, length);
 8002fea:	887b      	ldrh	r3, [r7, #2]
 8002fec:	4619      	mov	r1, r3
 8002fee:	6878      	ldr	r0, [r7, #4]
 8002ff0:	f7ff fed0 	bl	8002d94 <USART2_PrintHexBuffer>
    USART2_Print("\r\n");
 8002ff4:	480b      	ldr	r0, [pc, #44]	; (8003024 <USART2_PrintModBusResponse+0x120>)
 8002ff6:	f7ff fe3b 	bl	8002c70 <USART2_Print>
 8002ffa:	e000      	b.n	8002ffe <USART2_PrintModBusResponse+0xfa>
    if (length == 0) return;
 8002ffc:	bf00      	nop
}
 8002ffe:	3720      	adds	r7, #32
 8003000:	46bd      	mov	sp, r7
 8003002:	bd80      	pop	{r7, pc}
 8003004:	080070e8 	.word	0x080070e8
 8003008:	95217cb1 	.word	0x95217cb1
 800300c:	0036ee80 	.word	0x0036ee80
 8003010:	45e7b273 	.word	0x45e7b273
 8003014:	10624dd3 	.word	0x10624dd3
 8003018:	080070b8 	.word	0x080070b8
 800301c:	080070dc 	.word	0x080070dc
 8003020:	080070e0 	.word	0x080070e0
 8003024:	080070e4 	.word	0x080070e4

08003028 <ModBus_DebugFrame>:

/**
  * @brief  Вывод ModBus фрейма в детальном формате
  */
void ModBus_DebugFrame(const uint8_t* frame, uint16_t length, const char* prefix)
{
 8003028:	b580      	push	{r7, lr}
 800302a:	b08a      	sub	sp, #40	; 0x28
 800302c:	af00      	add	r7, sp, #0
 800302e:	60f8      	str	r0, [r7, #12]
 8003030:	460b      	mov	r3, r1
 8003032:	607a      	str	r2, [r7, #4]
 8003034:	817b      	strh	r3, [r7, #10]
    if (length == 0) return;
 8003036:	897b      	ldrh	r3, [r7, #10]
 8003038:	2b00      	cmp	r3, #0
 800303a:	f000 81d4 	beq.w	80033e6 <ModBus_DebugFrame+0x3be>

    USART2_Print("[MODBUS] ");
 800303e:	48b0      	ldr	r0, [pc, #704]	; (8003300 <ModBus_DebugFrame+0x2d8>)
 8003040:	f7ff fe16 	bl	8002c70 <USART2_Print>
    USART2_Print(prefix);
 8003044:	6878      	ldr	r0, [r7, #4]
 8003046:	f7ff fe13 	bl	8002c70 <USART2_Print>
    USART2_Print(": ");
 800304a:	48ae      	ldr	r0, [pc, #696]	; (8003304 <ModBus_DebugFrame+0x2dc>)
 800304c:	f7ff fe10 	bl	8002c70 <USART2_Print>

    /* Вывод hex */
    for(uint16_t i = 0; i < length; i++) {
 8003050:	2300      	movs	r3, #0
 8003052:	84fb      	strh	r3, [r7, #38]	; 0x26
 8003054:	e00c      	b.n	8003070 <ModBus_DebugFrame+0x48>
        USART2_PrintHexByte(frame[i]);
 8003056:	8cfb      	ldrh	r3, [r7, #38]	; 0x26
 8003058:	68fa      	ldr	r2, [r7, #12]
 800305a:	4413      	add	r3, r2
 800305c:	781b      	ldrb	r3, [r3, #0]
 800305e:	4618      	mov	r0, r3
 8003060:	f7ff fe68 	bl	8002d34 <USART2_PrintHexByte>
        USART2_Print(" ");
 8003064:	48a8      	ldr	r0, [pc, #672]	; (8003308 <ModBus_DebugFrame+0x2e0>)
 8003066:	f7ff fe03 	bl	8002c70 <USART2_Print>
    for(uint16_t i = 0; i < length; i++) {
 800306a:	8cfb      	ldrh	r3, [r7, #38]	; 0x26
 800306c:	3301      	adds	r3, #1
 800306e:	84fb      	strh	r3, [r7, #38]	; 0x26
 8003070:	8cfa      	ldrh	r2, [r7, #38]	; 0x26
 8003072:	897b      	ldrh	r3, [r7, #10]
 8003074:	429a      	cmp	r2, r3
 8003076:	d3ee      	bcc.n	8003056 <ModBus_DebugFrame+0x2e>
    }

    USART2_Print(" | ");
 8003078:	48a4      	ldr	r0, [pc, #656]	; (800330c <ModBus_DebugFrame+0x2e4>)
 800307a:	f7ff fdf9 	bl	8002c70 <USART2_Print>

    /* Парсинг фрейма */
    if (length >= 3) {
 800307e:	897b      	ldrh	r3, [r7, #10]
 8003080:	2b02      	cmp	r3, #2
 8003082:	f240 8179 	bls.w	8003378 <ModBus_DebugFrame+0x350>
        uint8_t addr = frame[0];
 8003086:	68fb      	ldr	r3, [r7, #12]
 8003088:	781b      	ldrb	r3, [r3, #0]
 800308a:	f887 3025 	strb.w	r3, [r7, #37]	; 0x25
        uint8_t func = frame[1];
 800308e:	68fb      	ldr	r3, [r7, #12]
 8003090:	785b      	ldrb	r3, [r3, #1]
 8003092:	f887 3024 	strb.w	r3, [r7, #36]	; 0x24

        USART2_Print("Addr=");
 8003096:	489e      	ldr	r0, [pc, #632]	; (8003310 <ModBus_DebugFrame+0x2e8>)
 8003098:	f7ff fdea 	bl	8002c70 <USART2_Print>
        USART2_PrintNum(addr);
 800309c:	f897 3025 	ldrb.w	r3, [r7, #37]	; 0x25
 80030a0:	4618      	mov	r0, r3
 80030a2:	f7ff fdfd 	bl	8002ca0 <USART2_PrintNum>
        USART2_Print(" Func=");
 80030a6:	489b      	ldr	r0, [pc, #620]	; (8003314 <ModBus_DebugFrame+0x2ec>)
 80030a8:	f7ff fde2 	bl	8002c70 <USART2_Print>
        USART2_PrintHexByte(func);
 80030ac:	f897 3024 	ldrb.w	r3, [r7, #36]	; 0x24
 80030b0:	4618      	mov	r0, r3
 80030b2:	f7ff fe3f 	bl	8002d34 <USART2_PrintHexByte>

        switch(func) {
 80030b6:	f897 3024 	ldrb.w	r3, [r7, #36]	; 0x24
 80030ba:	2b10      	cmp	r3, #16
 80030bc:	dc4a      	bgt.n	8003154 <ModBus_DebugFrame+0x12c>
 80030be:	2b03      	cmp	r3, #3
 80030c0:	da24      	bge.n	800310c <ModBus_DebugFrame+0xe4>
 80030c2:	e155      	b.n	8003370 <ModBus_DebugFrame+0x348>
 80030c4:	3b83      	subs	r3, #131	; 0x83
 80030c6:	2b0d      	cmp	r3, #13
 80030c8:	f200 8152 	bhi.w	8003370 <ModBus_DebugFrame+0x348>
 80030cc:	a201      	add	r2, pc, #4	; (adr r2, 80030d4 <ModBus_DebugFrame+0xac>)
 80030ce:	f852 f023 	ldr.w	pc, [r2, r3, lsl #2]
 80030d2:	bf00      	nop
 80030d4:	080032cd 	.word	0x080032cd
 80030d8:	080032e7 	.word	0x080032e7
 80030dc:	08003371 	.word	0x08003371
 80030e0:	0800333d 	.word	0x0800333d
 80030e4:	08003371 	.word	0x08003371
 80030e8:	08003371 	.word	0x08003371
 80030ec:	08003371 	.word	0x08003371
 80030f0:	08003371 	.word	0x08003371
 80030f4:	08003371 	.word	0x08003371
 80030f8:	08003371 	.word	0x08003371
 80030fc:	08003371 	.word	0x08003371
 8003100:	08003371 	.word	0x08003371
 8003104:	08003371 	.word	0x08003371
 8003108:	08003357 	.word	0x08003357
 800310c:	3b03      	subs	r3, #3
 800310e:	2b0d      	cmp	r3, #13
 8003110:	f200 812e 	bhi.w	8003370 <ModBus_DebugFrame+0x348>
 8003114:	a201      	add	r2, pc, #4	; (adr r2, 800311c <ModBus_DebugFrame+0xf4>)
 8003116:	f852 f023 	ldr.w	pc, [r2, r3, lsl #2]
 800311a:	bf00      	nop
 800311c:	08003161 	.word	0x08003161
 8003120:	080031b7 	.word	0x080031b7
 8003124:	08003371 	.word	0x08003371
 8003128:	0800320d 	.word	0x0800320d
 800312c:	08003371 	.word	0x08003371
 8003130:	08003371 	.word	0x08003371
 8003134:	08003371 	.word	0x08003371
 8003138:	08003371 	.word	0x08003371
 800313c:	08003371 	.word	0x08003371
 8003140:	08003371 	.word	0x08003371
 8003144:	08003371 	.word	0x08003371
 8003148:	08003371 	.word	0x08003371
 800314c:	08003371 	.word	0x08003371
 8003150:	08003263 	.word	0x08003263
 8003154:	2b90      	cmp	r3, #144	; 0x90
 8003156:	f300 810b 	bgt.w	8003370 <ModBus_DebugFrame+0x348>
 800315a:	2b83      	cmp	r3, #131	; 0x83
 800315c:	dab2      	bge.n	80030c4 <ModBus_DebugFrame+0x9c>
 800315e:	e107      	b.n	8003370 <ModBus_DebugFrame+0x348>
            case 0x03: /* Read Holding Registers */
                if (length >= 8) {
 8003160:	897b      	ldrh	r3, [r7, #10]
 8003162:	2b07      	cmp	r3, #7
 8003164:	f240 810a 	bls.w	800337c <ModBus_DebugFrame+0x354>
                    uint16_t start = (frame[2] << 8) | frame[3];
 8003168:	68fb      	ldr	r3, [r7, #12]
 800316a:	3302      	adds	r3, #2
 800316c:	781b      	ldrb	r3, [r3, #0]
 800316e:	021b      	lsls	r3, r3, #8
 8003170:	b21a      	sxth	r2, r3
 8003172:	68fb      	ldr	r3, [r7, #12]
 8003174:	3303      	adds	r3, #3
 8003176:	781b      	ldrb	r3, [r3, #0]
 8003178:	b21b      	sxth	r3, r3
 800317a:	4313      	orrs	r3, r2
 800317c:	b21b      	sxth	r3, r3
 800317e:	82bb      	strh	r3, [r7, #20]
                    uint16_t count = (frame[4] << 8) | frame[5];
 8003180:	68fb      	ldr	r3, [r7, #12]
 8003182:	3304      	adds	r3, #4
 8003184:	781b      	ldrb	r3, [r3, #0]
 8003186:	021b      	lsls	r3, r3, #8
 8003188:	b21a      	sxth	r2, r3
 800318a:	68fb      	ldr	r3, [r7, #12]
 800318c:	3305      	adds	r3, #5
 800318e:	781b      	ldrb	r3, [r3, #0]
 8003190:	b21b      	sxth	r3, r3
 8003192:	4313      	orrs	r3, r2
 8003194:	b21b      	sxth	r3, r3
 8003196:	827b      	strh	r3, [r7, #18]
                    USART2_Print(" ReadHold Start=");
 8003198:	485f      	ldr	r0, [pc, #380]	; (8003318 <ModBus_DebugFrame+0x2f0>)
 800319a:	f7ff fd69 	bl	8002c70 <USART2_Print>
                    USART2_PrintNum(start);
 800319e:	8abb      	ldrh	r3, [r7, #20]
 80031a0:	4618      	mov	r0, r3
 80031a2:	f7ff fd7d 	bl	8002ca0 <USART2_PrintNum>
                    USART2_Print(" Count=");
 80031a6:	485d      	ldr	r0, [pc, #372]	; (800331c <ModBus_DebugFrame+0x2f4>)
 80031a8:	f7ff fd62 	bl	8002c70 <USART2_Print>
                    USART2_PrintNum(count);
 80031ac:	8a7b      	ldrh	r3, [r7, #18]
 80031ae:	4618      	mov	r0, r3
 80031b0:	f7ff fd76 	bl	8002ca0 <USART2_PrintNum>
                }
                break;
 80031b4:	e0e2      	b.n	800337c <ModBus_DebugFrame+0x354>

            case 0x04: /* Read Input Registers */
                if (length >= 8) {
 80031b6:	897b      	ldrh	r3, [r7, #10]
 80031b8:	2b07      	cmp	r3, #7
 80031ba:	f240 80e1 	bls.w	8003380 <ModBus_DebugFrame+0x358>
                    uint16_t start = (frame[2] << 8) | frame[3];
 80031be:	68fb      	ldr	r3, [r7, #12]
 80031c0:	3302      	adds	r3, #2
 80031c2:	781b      	ldrb	r3, [r3, #0]
 80031c4:	021b      	lsls	r3, r3, #8
 80031c6:	b21a      	sxth	r2, r3
 80031c8:	68fb      	ldr	r3, [r7, #12]
 80031ca:	3303      	adds	r3, #3
 80031cc:	781b      	ldrb	r3, [r3, #0]
 80031ce:	b21b      	sxth	r3, r3
 80031d0:	4313      	orrs	r3, r2
 80031d2:	b21b      	sxth	r3, r3
 80031d4:	833b      	strh	r3, [r7, #24]
                    uint16_t count = (frame[4] << 8) | frame[5];
 80031d6:	68fb      	ldr	r3, [r7, #12]
 80031d8:	3304      	adds	r3, #4
 80031da:	781b      	ldrb	r3, [r3, #0]
 80031dc:	021b      	lsls	r3, r3, #8
 80031de:	b21a      	sxth	r2, r3
 80031e0:	68fb      	ldr	r3, [r7, #12]
 80031e2:	3305      	adds	r3, #5
 80031e4:	781b      	ldrb	r3, [r3, #0]
 80031e6:	b21b      	sxth	r3, r3
 80031e8:	4313      	orrs	r3, r2
 80031ea:	b21b      	sxth	r3, r3
 80031ec:	82fb      	strh	r3, [r7, #22]
                    USART2_Print(" ReadInput Start=");
 80031ee:	484c      	ldr	r0, [pc, #304]	; (8003320 <ModBus_DebugFrame+0x2f8>)
 80031f0:	f7ff fd3e 	bl	8002c70 <USART2_Print>
                    USART2_PrintNum(start);
 80031f4:	8b3b      	ldrh	r3, [r7, #24]
 80031f6:	4618      	mov	r0, r3
 80031f8:	f7ff fd52 	bl	8002ca0 <USART2_PrintNum>
                    USART2_Print(" Count=");
 80031fc:	4847      	ldr	r0, [pc, #284]	; (800331c <ModBus_DebugFrame+0x2f4>)
 80031fe:	f7ff fd37 	bl	8002c70 <USART2_Print>
                    USART2_PrintNum(count);
 8003202:	8afb      	ldrh	r3, [r7, #22]
 8003204:	4618      	mov	r0, r3
 8003206:	f7ff fd4b 	bl	8002ca0 <USART2_PrintNum>
                }
                break;
 800320a:	e0b9      	b.n	8003380 <ModBus_DebugFrame+0x358>

            case 0x06: /* Write Single Register */
                if (length >= 8) {
 800320c:	897b      	ldrh	r3, [r7, #10]
 800320e:	2b07      	cmp	r3, #7
 8003210:	f240 80b8 	bls.w	8003384 <ModBus_DebugFrame+0x35c>
                    uint16_t reg = (frame[2] << 8) | frame[3];
 8003214:	68fb      	ldr	r3, [r7, #12]
 8003216:	3302      	adds	r3, #2
 8003218:	781b      	ldrb	r3, [r3, #0]
 800321a:	021b      	lsls	r3, r3, #8
 800321c:	b21a      	sxth	r2, r3
 800321e:	68fb      	ldr	r3, [r7, #12]
 8003220:	3303      	adds	r3, #3
 8003222:	781b      	ldrb	r3, [r3, #0]
 8003224:	b21b      	sxth	r3, r3
 8003226:	4313      	orrs	r3, r2
 8003228:	b21b      	sxth	r3, r3
 800322a:	83bb      	strh	r3, [r7, #28]
                    uint16_t value = (frame[4] << 8) | frame[5];
 800322c:	68fb      	ldr	r3, [r7, #12]
 800322e:	3304      	adds	r3, #4
 8003230:	781b      	ldrb	r3, [r3, #0]
 8003232:	021b      	lsls	r3, r3, #8
 8003234:	b21a      	sxth	r2, r3
 8003236:	68fb      	ldr	r3, [r7, #12]
 8003238:	3305      	adds	r3, #5
 800323a:	781b      	ldrb	r3, [r3, #0]
 800323c:	b21b      	sxth	r3, r3
 800323e:	4313      	orrs	r3, r2
 8003240:	b21b      	sxth	r3, r3
 8003242:	837b      	strh	r3, [r7, #26]
                    USART2_Print(" WriteSingle Reg=");
 8003244:	4837      	ldr	r0, [pc, #220]	; (8003324 <ModBus_DebugFrame+0x2fc>)
 8003246:	f7ff fd13 	bl	8002c70 <USART2_Print>
                    USART2_PrintNum(reg);
 800324a:	8bbb      	ldrh	r3, [r7, #28]
 800324c:	4618      	mov	r0, r3
 800324e:	f7ff fd27 	bl	8002ca0 <USART2_PrintNum>
                    USART2_Print(" Value=");
 8003252:	4835      	ldr	r0, [pc, #212]	; (8003328 <ModBus_DebugFrame+0x300>)
 8003254:	f7ff fd0c 	bl	8002c70 <USART2_Print>
                    USART2_PrintNum(value);
 8003258:	8b7b      	ldrh	r3, [r7, #26]
 800325a:	4618      	mov	r0, r3
 800325c:	f7ff fd20 	bl	8002ca0 <USART2_PrintNum>
                }
                break;
 8003260:	e090      	b.n	8003384 <ModBus_DebugFrame+0x35c>

            case 0x10: /* Write Multiple Registers */
                if (length >= 9) {
 8003262:	897b      	ldrh	r3, [r7, #10]
 8003264:	2b08      	cmp	r3, #8
 8003266:	f240 808f 	bls.w	8003388 <ModBus_DebugFrame+0x360>
                    uint16_t start = (frame[2] << 8) | frame[3];
 800326a:	68fb      	ldr	r3, [r7, #12]
 800326c:	3302      	adds	r3, #2
 800326e:	781b      	ldrb	r3, [r3, #0]
 8003270:	021b      	lsls	r3, r3, #8
 8003272:	b21a      	sxth	r2, r3
 8003274:	68fb      	ldr	r3, [r7, #12]
 8003276:	3303      	adds	r3, #3
 8003278:	781b      	ldrb	r3, [r3, #0]
 800327a:	b21b      	sxth	r3, r3
 800327c:	4313      	orrs	r3, r2
 800327e:	b21b      	sxth	r3, r3
 8003280:	847b      	strh	r3, [r7, #34]	; 0x22
                    uint16_t count = (frame[4] << 8) | frame[5];
 8003282:	68fb      	ldr	r3, [r7, #12]
 8003284:	3304      	adds	r3, #4
 8003286:	781b      	ldrb	r3, [r3, #0]
 8003288:	021b      	lsls	r3, r3, #8
 800328a:	b21a      	sxth	r2, r3
 800328c:	68fb      	ldr	r3, [r7, #12]
 800328e:	3305      	adds	r3, #5
 8003290:	781b      	ldrb	r3, [r3, #0]
 8003292:	b21b      	sxth	r3, r3
 8003294:	4313      	orrs	r3, r2
 8003296:	b21b      	sxth	r3, r3
 8003298:	843b      	strh	r3, [r7, #32]
                    uint8_t byte_count = frame[6];
 800329a:	68fb      	ldr	r3, [r7, #12]
 800329c:	799b      	ldrb	r3, [r3, #6]
 800329e:	77fb      	strb	r3, [r7, #31]
                    USART2_Print(" WriteMulti Start=");
 80032a0:	4822      	ldr	r0, [pc, #136]	; (800332c <ModBus_DebugFrame+0x304>)
 80032a2:	f7ff fce5 	bl	8002c70 <USART2_Print>
                    USART2_PrintNum(start);
 80032a6:	8c7b      	ldrh	r3, [r7, #34]	; 0x22
 80032a8:	4618      	mov	r0, r3
 80032aa:	f7ff fcf9 	bl	8002ca0 <USART2_PrintNum>
                    USART2_Print(" Count=");
 80032ae:	481b      	ldr	r0, [pc, #108]	; (800331c <ModBus_DebugFrame+0x2f4>)
 80032b0:	f7ff fcde 	bl	8002c70 <USART2_Print>
                    USART2_PrintNum(count);
 80032b4:	8c3b      	ldrh	r3, [r7, #32]
 80032b6:	4618      	mov	r0, r3
 80032b8:	f7ff fcf2 	bl	8002ca0 <USART2_PrintNum>
                    USART2_Print(" Bytes=");
 80032bc:	481c      	ldr	r0, [pc, #112]	; (8003330 <ModBus_DebugFrame+0x308>)
 80032be:	f7ff fcd7 	bl	8002c70 <USART2_Print>
                    USART2_PrintNum(byte_count);
 80032c2:	7ffb      	ldrb	r3, [r7, #31]
 80032c4:	4618      	mov	r0, r3
 80032c6:	f7ff fceb 	bl	8002ca0 <USART2_PrintNum>
                }
                break;
 80032ca:	e05d      	b.n	8003388 <ModBus_DebugFrame+0x360>

            case 0x83: /* Exception for 0x03 */
                USART2_Print(" Exception(0x03) Code=");
 80032cc:	4819      	ldr	r0, [pc, #100]	; (8003334 <ModBus_DebugFrame+0x30c>)
 80032ce:	f7ff fccf 	bl	8002c70 <USART2_Print>
                if (length >= 3) {
 80032d2:	897b      	ldrh	r3, [r7, #10]
 80032d4:	2b02      	cmp	r3, #2
 80032d6:	d959      	bls.n	800338c <ModBus_DebugFrame+0x364>
                    USART2_PrintHexByte(frame[2]);
 80032d8:	68fb      	ldr	r3, [r7, #12]
 80032da:	3302      	adds	r3, #2
 80032dc:	781b      	ldrb	r3, [r3, #0]
 80032de:	4618      	mov	r0, r3
 80032e0:	f7ff fd28 	bl	8002d34 <USART2_PrintHexByte>
                }
                break;
 80032e4:	e052      	b.n	800338c <ModBus_DebugFrame+0x364>

            case 0x84: /* Exception for 0x04 */
                USART2_Print(" Exception(0x04) Code=");
 80032e6:	4814      	ldr	r0, [pc, #80]	; (8003338 <ModBus_DebugFrame+0x310>)
 80032e8:	f7ff fcc2 	bl	8002c70 <USART2_Print>
                if (length >= 3) {
 80032ec:	897b      	ldrh	r3, [r7, #10]
 80032ee:	2b02      	cmp	r3, #2
 80032f0:	d94e      	bls.n	8003390 <ModBus_DebugFrame+0x368>
                    USART2_PrintHexByte(frame[2]);
 80032f2:	68fb      	ldr	r3, [r7, #12]
 80032f4:	3302      	adds	r3, #2
 80032f6:	781b      	ldrb	r3, [r3, #0]
 80032f8:	4618      	mov	r0, r3
 80032fa:	f7ff fd1b 	bl	8002d34 <USART2_PrintHexByte>
                }
                break;
 80032fe:	e047      	b.n	8003390 <ModBus_DebugFrame+0x368>
 8003300:	080070f4 	.word	0x080070f4
 8003304:	08007100 	.word	0x08007100
 8003308:	080070d0 	.word	0x080070d0
 800330c:	08007104 	.word	0x08007104
 8003310:	08007108 	.word	0x08007108
 8003314:	08007110 	.word	0x08007110
 8003318:	08007118 	.word	0x08007118
 800331c:	0800712c 	.word	0x0800712c
 8003320:	08007134 	.word	0x08007134
 8003324:	08007148 	.word	0x08007148
 8003328:	0800715c 	.word	0x0800715c
 800332c:	08007164 	.word	0x08007164
 8003330:	08007178 	.word	0x08007178
 8003334:	08007180 	.word	0x08007180
 8003338:	08007198 	.word	0x08007198

            case 0x86: /* Exception for 0x06 */
                USART2_Print(" Exception(0x06) Code=");
 800333c:	482c      	ldr	r0, [pc, #176]	; (80033f0 <ModBus_DebugFrame+0x3c8>)
 800333e:	f7ff fc97 	bl	8002c70 <USART2_Print>
                if (length >= 3) {
 8003342:	897b      	ldrh	r3, [r7, #10]
 8003344:	2b02      	cmp	r3, #2
 8003346:	d925      	bls.n	8003394 <ModBus_DebugFrame+0x36c>
                    USART2_PrintHexByte(frame[2]);
 8003348:	68fb      	ldr	r3, [r7, #12]
 800334a:	3302      	adds	r3, #2
 800334c:	781b      	ldrb	r3, [r3, #0]
 800334e:	4618      	mov	r0, r3
 8003350:	f7ff fcf0 	bl	8002d34 <USART2_PrintHexByte>
                }
                break;
 8003354:	e01e      	b.n	8003394 <ModBus_DebugFrame+0x36c>

            case 0x90: /* Exception for 0x10 */
                USART2_Print(" Exception(0x10) Code=");
 8003356:	4827      	ldr	r0, [pc, #156]	; (80033f4 <ModBus_DebugFrame+0x3cc>)
 8003358:	f7ff fc8a 	bl	8002c70 <USART2_Print>
                if (length >= 3) {
 800335c:	897b      	ldrh	r3, [r7, #10]
 800335e:	2b02      	cmp	r3, #2
 8003360:	d91a      	bls.n	8003398 <ModBus_DebugFrame+0x370>
                    USART2_PrintHexByte(frame[2]);
 8003362:	68fb      	ldr	r3, [r7, #12]
 8003364:	3302      	adds	r3, #2
 8003366:	781b      	ldrb	r3, [r3, #0]
 8003368:	4618      	mov	r0, r3
 800336a:	f7ff fce3 	bl	8002d34 <USART2_PrintHexByte>
                }
                break;
 800336e:	e013      	b.n	8003398 <ModBus_DebugFrame+0x370>

            default:
                USART2_Print(" Unknown function");
 8003370:	4821      	ldr	r0, [pc, #132]	; (80033f8 <ModBus_DebugFrame+0x3d0>)
 8003372:	f7ff fc7d 	bl	8002c70 <USART2_Print>
                break;
 8003376:	e010      	b.n	800339a <ModBus_DebugFrame+0x372>
        }
    }
 8003378:	bf00      	nop
 800337a:	e00e      	b.n	800339a <ModBus_DebugFrame+0x372>
                break;
 800337c:	bf00      	nop
 800337e:	e00c      	b.n	800339a <ModBus_DebugFrame+0x372>
                break;
 8003380:	bf00      	nop
 8003382:	e00a      	b.n	800339a <ModBus_DebugFrame+0x372>
                break;
 8003384:	bf00      	nop
 8003386:	e008      	b.n	800339a <ModBus_DebugFrame+0x372>
                break;
 8003388:	bf00      	nop
 800338a:	e006      	b.n	800339a <ModBus_DebugFrame+0x372>
                break;
 800338c:	bf00      	nop
 800338e:	e004      	b.n	800339a <ModBus_DebugFrame+0x372>
                break;
 8003390:	bf00      	nop
 8003392:	e002      	b.n	800339a <ModBus_DebugFrame+0x372>
                break;
 8003394:	bf00      	nop
 8003396:	e000      	b.n	800339a <ModBus_DebugFrame+0x372>
                break;
 8003398:	bf00      	nop

    /* Проверка CRC */
    if (length >= 2) {
 800339a:	897b      	ldrh	r3, [r7, #10]
 800339c:	2b01      	cmp	r3, #1
 800339e:	d91e      	bls.n	80033de <ModBus_DebugFrame+0x3b6>
        uint16_t recv_crc = (frame[length-1] << 8) | frame[length-2];
 80033a0:	897b      	ldrh	r3, [r7, #10]
 80033a2:	3b01      	subs	r3, #1
 80033a4:	68fa      	ldr	r2, [r7, #12]
 80033a6:	4413      	add	r3, r2
 80033a8:	781b      	ldrb	r3, [r3, #0]
 80033aa:	021b      	lsls	r3, r3, #8
 80033ac:	b21a      	sxth	r2, r3
 80033ae:	897b      	ldrh	r3, [r7, #10]
 80033b0:	3b02      	subs	r3, #2
 80033b2:	68f9      	ldr	r1, [r7, #12]
 80033b4:	440b      	add	r3, r1
 80033b6:	781b      	ldrb	r3, [r3, #0]
 80033b8:	b21b      	sxth	r3, r3
 80033ba:	4313      	orrs	r3, r2
 80033bc:	b21b      	sxth	r3, r3
 80033be:	823b      	strh	r3, [r7, #16]
        USART2_Print(" CRC=");
 80033c0:	480e      	ldr	r0, [pc, #56]	; (80033fc <ModBus_DebugFrame+0x3d4>)
 80033c2:	f7ff fc55 	bl	8002c70 <USART2_Print>
        USART2_PrintHexByte((recv_crc >> 8) & 0xFF);
 80033c6:	8a3b      	ldrh	r3, [r7, #16]
 80033c8:	0a1b      	lsrs	r3, r3, #8
 80033ca:	b29b      	uxth	r3, r3
 80033cc:	b2db      	uxtb	r3, r3
 80033ce:	4618      	mov	r0, r3
 80033d0:	f7ff fcb0 	bl	8002d34 <USART2_PrintHexByte>
        USART2_PrintHexByte(recv_crc & 0xFF);
 80033d4:	8a3b      	ldrh	r3, [r7, #16]
 80033d6:	b2db      	uxtb	r3, r3
 80033d8:	4618      	mov	r0, r3
 80033da:	f7ff fcab 	bl	8002d34 <USART2_PrintHexByte>
    }

    USART2_Print("\r\n");
 80033de:	4808      	ldr	r0, [pc, #32]	; (8003400 <ModBus_DebugFrame+0x3d8>)
 80033e0:	f7ff fc46 	bl	8002c70 <USART2_Print>
 80033e4:	e000      	b.n	80033e8 <ModBus_DebugFrame+0x3c0>
    if (length == 0) return;
 80033e6:	bf00      	nop
}
 80033e8:	3728      	adds	r7, #40	; 0x28
 80033ea:	46bd      	mov	sp, r7
 80033ec:	bd80      	pop	{r7, pc}
 80033ee:	bf00      	nop
 80033f0:	080071b0 	.word	0x080071b0
 80033f4:	080071c8 	.word	0x080071c8
 80033f8:	080071e0 	.word	0x080071e0
 80033fc:	080071f4 	.word	0x080071f4
 8003400:	080070e4 	.word	0x080070e4

08003404 <float_to_str>:

/**
  * @brief  Преобразование float в строку
  */
void float_to_str(float value, char* buffer, int decimals)
{
 8003404:	b580      	push	{r7, lr}
 8003406:	b094      	sub	sp, #80	; 0x50
 8003408:	af00      	add	r7, sp, #0
 800340a:	60f8      	str	r0, [r7, #12]
 800340c:	60b9      	str	r1, [r7, #8]
 800340e:	607a      	str	r2, [r7, #4]
    int offset = 0;
 8003410:	2300      	movs	r3, #0
 8003412:	64fb      	str	r3, [r7, #76]	; 0x4c
    char temp_buffer[32];

    if (value < 0) {
 8003414:	f04f 0100 	mov.w	r1, #0
 8003418:	68f8      	ldr	r0, [r7, #12]
 800341a:	f7fd f94b 	bl	80006b4 <__aeabi_fcmplt>
 800341e:	4603      	mov	r3, r0
 8003420:	2b00      	cmp	r3, #0
 8003422:	d007      	beq.n	8003434 <float_to_str+0x30>
        temp_buffer[0] = '-';
 8003424:	232d      	movs	r3, #45	; 0x2d
 8003426:	743b      	strb	r3, [r7, #16]
        value = -value;
 8003428:	68fb      	ldr	r3, [r7, #12]
 800342a:	f083 4300 	eor.w	r3, r3, #2147483648	; 0x80000000
 800342e:	60fb      	str	r3, [r7, #12]
        offset = 1;
 8003430:	2301      	movs	r3, #1
 8003432:	64fb      	str	r3, [r7, #76]	; 0x4c
    }

    int int_part = (int)value;
 8003434:	68f8      	ldr	r0, [r7, #12]
 8003436:	f7fd f965 	bl	8000704 <__aeabi_f2iz>
 800343a:	4603      	mov	r3, r0
 800343c:	64bb      	str	r3, [r7, #72]	; 0x48
    float frac_part = value - (float)int_part;
 800343e:	6cb8      	ldr	r0, [r7, #72]	; 0x48
 8003440:	f7fc ff46 	bl	80002d0 <__aeabi_i2f>
 8003444:	4603      	mov	r3, r0
 8003446:	4619      	mov	r1, r3
 8003448:	68f8      	ldr	r0, [r7, #12]
 800344a:	f7fc fe8b 	bl	8000164 <__aeabi_fsub>
 800344e:	4603      	mov	r3, r0
 8003450:	647b      	str	r3, [r7, #68]	; 0x44

    /* Преобразуем целую часть */
    if (int_part == 0) {
 8003452:	6cbb      	ldr	r3, [r7, #72]	; 0x48
 8003454:	2b00      	cmp	r3, #0
 8003456:	d109      	bne.n	800346c <float_to_str+0x68>
        temp_buffer[offset] = '0';
 8003458:	f107 0210 	add.w	r2, r7, #16
 800345c:	6cfb      	ldr	r3, [r7, #76]	; 0x4c
 800345e:	4413      	add	r3, r2
 8003460:	2230      	movs	r2, #48	; 0x30
 8003462:	701a      	strb	r2, [r3, #0]
        offset += 1;
 8003464:	6cfb      	ldr	r3, [r7, #76]	; 0x4c
 8003466:	3301      	adds	r3, #1
 8003468:	64fb      	str	r3, [r7, #76]	; 0x4c
 800346a:	e061      	b.n	8003530 <float_to_str+0x12c>
    } else {
        int i = 0;
 800346c:	2300      	movs	r3, #0
 800346e:	643b      	str	r3, [r7, #64]	; 0x40
        while (int_part > 0 && i < 15) {
 8003470:	e020      	b.n	80034b4 <float_to_str+0xb0>
            temp_buffer[offset + i] = (int_part % 10) + '0';
 8003472:	6cba      	ldr	r2, [r7, #72]	; 0x48
 8003474:	4b56      	ldr	r3, [pc, #344]	; (80035d0 <float_to_str+0x1cc>)
 8003476:	fb83 1302 	smull	r1, r3, r3, r2
 800347a:	1099      	asrs	r1, r3, #2
 800347c:	17d3      	asrs	r3, r2, #31
 800347e:	1ac9      	subs	r1, r1, r3
 8003480:	460b      	mov	r3, r1
 8003482:	009b      	lsls	r3, r3, #2
 8003484:	440b      	add	r3, r1
 8003486:	005b      	lsls	r3, r3, #1
 8003488:	1ad1      	subs	r1, r2, r3
 800348a:	b2ca      	uxtb	r2, r1
 800348c:	6cf9      	ldr	r1, [r7, #76]	; 0x4c
 800348e:	6c3b      	ldr	r3, [r7, #64]	; 0x40
 8003490:	440b      	add	r3, r1
 8003492:	3230      	adds	r2, #48	; 0x30
 8003494:	b2d2      	uxtb	r2, r2
 8003496:	3350      	adds	r3, #80	; 0x50
 8003498:	443b      	add	r3, r7
 800349a:	f803 2c40 	strb.w	r2, [r3, #-64]
            int_part /= 10;
 800349e:	6cbb      	ldr	r3, [r7, #72]	; 0x48
 80034a0:	4a4b      	ldr	r2, [pc, #300]	; (80035d0 <float_to_str+0x1cc>)
 80034a2:	fb82 1203 	smull	r1, r2, r2, r3
 80034a6:	1092      	asrs	r2, r2, #2
 80034a8:	17db      	asrs	r3, r3, #31
 80034aa:	1ad3      	subs	r3, r2, r3
 80034ac:	64bb      	str	r3, [r7, #72]	; 0x48
            i++;
 80034ae:	6c3b      	ldr	r3, [r7, #64]	; 0x40
 80034b0:	3301      	adds	r3, #1
 80034b2:	643b      	str	r3, [r7, #64]	; 0x40
        while (int_part > 0 && i < 15) {
 80034b4:	6cbb      	ldr	r3, [r7, #72]	; 0x48
 80034b6:	2b00      	cmp	r3, #0
 80034b8:	dd02      	ble.n	80034c0 <float_to_str+0xbc>
 80034ba:	6c3b      	ldr	r3, [r7, #64]	; 0x40
 80034bc:	2b0e      	cmp	r3, #14
 80034be:	ddd8      	ble.n	8003472 <float_to_str+0x6e>
        }
        
        /* Переворачиваем цифры */
        for (int j = 0; j < i/2; j++) {
 80034c0:	2300      	movs	r3, #0
 80034c2:	63fb      	str	r3, [r7, #60]	; 0x3c
 80034c4:	e028      	b.n	8003518 <float_to_str+0x114>
            char temp = temp_buffer[offset + j];
 80034c6:	6cfa      	ldr	r2, [r7, #76]	; 0x4c
 80034c8:	6bfb      	ldr	r3, [r7, #60]	; 0x3c
 80034ca:	4413      	add	r3, r2
 80034cc:	3350      	adds	r3, #80	; 0x50
 80034ce:	443b      	add	r3, r7
 80034d0:	f813 3c40 	ldrb.w	r3, [r3, #-64]
 80034d4:	f887 3037 	strb.w	r3, [r7, #55]	; 0x37
            temp_buffer[offset + j] = temp_buffer[offset + i - j - 1];
 80034d8:	6cfa      	ldr	r2, [r7, #76]	; 0x4c
 80034da:	6c3b      	ldr	r3, [r7, #64]	; 0x40
 80034dc:	441a      	add	r2, r3
 80034de:	6bfb      	ldr	r3, [r7, #60]	; 0x3c
 80034e0:	1ad3      	subs	r3, r2, r3
 80034e2:	1e5a      	subs	r2, r3, #1
 80034e4:	6cf9      	ldr	r1, [r7, #76]	; 0x4c
 80034e6:	6bfb      	ldr	r3, [r7, #60]	; 0x3c
 80034e8:	440b      	add	r3, r1
 80034ea:	3250      	adds	r2, #80	; 0x50
 80034ec:	443a      	add	r2, r7
 80034ee:	f812 2c40 	ldrb.w	r2, [r2, #-64]
 80034f2:	3350      	adds	r3, #80	; 0x50
 80034f4:	443b      	add	r3, r7
 80034f6:	f803 2c40 	strb.w	r2, [r3, #-64]
            temp_buffer[offset + i - j - 1] = temp;
 80034fa:	6cfa      	ldr	r2, [r7, #76]	; 0x4c
 80034fc:	6c3b      	ldr	r3, [r7, #64]	; 0x40
 80034fe:	441a      	add	r2, r3
 8003500:	6bfb      	ldr	r3, [r7, #60]	; 0x3c
 8003502:	1ad3      	subs	r3, r2, r3
 8003504:	3b01      	subs	r3, #1
 8003506:	3350      	adds	r3, #80	; 0x50
 8003508:	443b      	add	r3, r7
 800350a:	f897 2037 	ldrb.w	r2, [r7, #55]	; 0x37
 800350e:	f803 2c40 	strb.w	r2, [r3, #-64]
        for (int j = 0; j < i/2; j++) {
 8003512:	6bfb      	ldr	r3, [r7, #60]	; 0x3c
 8003514:	3301      	adds	r3, #1
 8003516:	63fb      	str	r3, [r7, #60]	; 0x3c
 8003518:	6c3b      	ldr	r3, [r7, #64]	; 0x40
 800351a:	0fda      	lsrs	r2, r3, #31
 800351c:	4413      	add	r3, r2
 800351e:	105b      	asrs	r3, r3, #1
 8003520:	461a      	mov	r2, r3
 8003522:	6bfb      	ldr	r3, [r7, #60]	; 0x3c
 8003524:	4293      	cmp	r3, r2
 8003526:	dbce      	blt.n	80034c6 <float_to_str+0xc2>
        }
        offset += i;
 8003528:	6cfa      	ldr	r2, [r7, #76]	; 0x4c
 800352a:	6c3b      	ldr	r3, [r7, #64]	; 0x40
 800352c:	4413      	add	r3, r2
 800352e:	64fb      	str	r3, [r7, #76]	; 0x4c
    }

    /* Добавляем дробную часть */
    if (decimals > 0) {
 8003530:	687b      	ldr	r3, [r7, #4]
 8003532:	2b00      	cmp	r3, #0
 8003534:	dd3b      	ble.n	80035ae <float_to_str+0x1aa>
        temp_buffer[offset] = '.';
 8003536:	f107 0210 	add.w	r2, r7, #16
 800353a:	6cfb      	ldr	r3, [r7, #76]	; 0x4c
 800353c:	4413      	add	r3, r2
 800353e:	222e      	movs	r2, #46	; 0x2e
 8003540:	701a      	strb	r2, [r3, #0]
        offset++;
 8003542:	6cfb      	ldr	r3, [r7, #76]	; 0x4c
 8003544:	3301      	adds	r3, #1
 8003546:	64fb      	str	r3, [r7, #76]	; 0x4c
        
        for (int i = 0; i < decimals; i++) {
 8003548:	2300      	movs	r3, #0
 800354a:	63bb      	str	r3, [r7, #56]	; 0x38
 800354c:	e022      	b.n	8003594 <float_to_str+0x190>
            frac_part *= 10.0f;
 800354e:	4921      	ldr	r1, [pc, #132]	; (80035d4 <float_to_str+0x1d0>)
 8003550:	6c78      	ldr	r0, [r7, #68]	; 0x44
 8003552:	f7fc ff11 	bl	8000378 <__aeabi_fmul>
 8003556:	4603      	mov	r3, r0
 8003558:	647b      	str	r3, [r7, #68]	; 0x44
            int digit = (int)frac_part;
 800355a:	6c78      	ldr	r0, [r7, #68]	; 0x44
 800355c:	f7fd f8d2 	bl	8000704 <__aeabi_f2iz>
 8003560:	4603      	mov	r3, r0
 8003562:	633b      	str	r3, [r7, #48]	; 0x30
            temp_buffer[offset + i] = digit + '0';
 8003564:	6b3b      	ldr	r3, [r7, #48]	; 0x30
 8003566:	b2da      	uxtb	r2, r3
 8003568:	6cf9      	ldr	r1, [r7, #76]	; 0x4c
 800356a:	6bbb      	ldr	r3, [r7, #56]	; 0x38
 800356c:	440b      	add	r3, r1
 800356e:	3230      	adds	r2, #48	; 0x30
 8003570:	b2d2      	uxtb	r2, r2
 8003572:	3350      	adds	r3, #80	; 0x50
 8003574:	443b      	add	r3, r7
 8003576:	f803 2c40 	strb.w	r2, [r3, #-64]
            frac_part -= (float)digit;
 800357a:	6b38      	ldr	r0, [r7, #48]	; 0x30
 800357c:	f7fc fea8 	bl	80002d0 <__aeabi_i2f>
 8003580:	4603      	mov	r3, r0
 8003582:	4619      	mov	r1, r3
 8003584:	6c78      	ldr	r0, [r7, #68]	; 0x44
 8003586:	f7fc fded 	bl	8000164 <__aeabi_fsub>
 800358a:	4603      	mov	r3, r0
 800358c:	647b      	str	r3, [r7, #68]	; 0x44
        for (int i = 0; i < decimals; i++) {
 800358e:	6bbb      	ldr	r3, [r7, #56]	; 0x38
 8003590:	3301      	adds	r3, #1
 8003592:	63bb      	str	r3, [r7, #56]	; 0x38
 8003594:	6bba      	ldr	r2, [r7, #56]	; 0x38
 8003596:	687b      	ldr	r3, [r7, #4]
 8003598:	429a      	cmp	r2, r3
 800359a:	dbd8      	blt.n	800354e <float_to_str+0x14a>
        }
        temp_buffer[offset + decimals] = '\0';
 800359c:	6cfa      	ldr	r2, [r7, #76]	; 0x4c
 800359e:	687b      	ldr	r3, [r7, #4]
 80035a0:	4413      	add	r3, r2
 80035a2:	3350      	adds	r3, #80	; 0x50
 80035a4:	443b      	add	r3, r7
 80035a6:	2200      	movs	r2, #0
 80035a8:	f803 2c40 	strb.w	r2, [r3, #-64]
 80035ac:	e005      	b.n	80035ba <float_to_str+0x1b6>
    } else {
        temp_buffer[offset] = '\0';
 80035ae:	f107 0210 	add.w	r2, r7, #16
 80035b2:	6cfb      	ldr	r3, [r7, #76]	; 0x4c
 80035b4:	4413      	add	r3, r2
 80035b6:	2200      	movs	r2, #0
 80035b8:	701a      	strb	r2, [r3, #0]
    }

    /* Копируем в выходной буфер */
    strcpy(buffer, temp_buffer);
 80035ba:	f107 0310 	add.w	r3, r7, #16
 80035be:	4619      	mov	r1, r3
 80035c0:	68b8      	ldr	r0, [r7, #8]
 80035c2:	f003 f9c3 	bl	800694c <strcpy>
 80035c6:	bf00      	nop
 80035c8:	3750      	adds	r7, #80	; 0x50
 80035ca:	46bd      	mov	sp, r7
 80035cc:	bd80      	pop	{r7, pc}
 80035ce:	bf00      	nop
 80035d0:	66666667 	.word	0x66666667
 80035d4:	41200000 	.word	0x41200000

080035d8 <Reset_Handler>:
  .weak Reset_Handler
  .type Reset_Handler, %function
Reset_Handler:

/* Copy the data segment initializers from flash to SRAM */
  ldr r0, =_sdata
 80035d8:	480c      	ldr	r0, [pc, #48]	; (800360c <LoopFillZerobss+0x12>)
  ldr r1, =_edata
 80035da:	490d      	ldr	r1, [pc, #52]	; (8003610 <LoopFillZerobss+0x16>)
  ldr r2, =_sidata
 80035dc:	4a0d      	ldr	r2, [pc, #52]	; (8003614 <LoopFillZerobss+0x1a>)
  movs r3, #0
 80035de:	2300      	movs	r3, #0
  b LoopCopyDataInit
 80035e0:	e002      	b.n	80035e8 <LoopCopyDataInit>

080035e2 <CopyDataInit>:

CopyDataInit:
  ldr r4, [r2, r3]
 80035e2:	58d4      	ldr	r4, [r2, r3]
  str r4, [r0, r3]
 80035e4:	50c4      	str	r4, [r0, r3]
  adds r3, r3, #4
 80035e6:	3304      	adds	r3, #4

080035e8 <LoopCopyDataInit>:

LoopCopyDataInit:
  adds r4, r0, r3
 80035e8:	18c4      	adds	r4, r0, r3
  cmp r4, r1
 80035ea:	428c      	cmp	r4, r1
  bcc CopyDataInit
 80035ec:	d3f9      	bcc.n	80035e2 <CopyDataInit>
  
/* Zero fill the bss segment. */
  ldr r2, =_sbss
 80035ee:	4a0a      	ldr	r2, [pc, #40]	; (8003618 <LoopFillZerobss+0x1e>)
  ldr r4, =_ebss
 80035f0:	4c0a      	ldr	r4, [pc, #40]	; (800361c <LoopFillZerobss+0x22>)
  movs r3, #0
 80035f2:	2300      	movs	r3, #0
  b LoopFillZerobss
 80035f4:	e001      	b.n	80035fa <LoopFillZerobss>

080035f6 <FillZerobss>:

FillZerobss:
  str  r3, [r2]
 80035f6:	6013      	str	r3, [r2, #0]
  adds r2, r2, #4
 80035f8:	3204      	adds	r2, #4

080035fa <LoopFillZerobss>:

LoopFillZerobss:
  cmp r2, r4
 80035fa:	42a2      	cmp	r2, r4
  bcc FillZerobss
 80035fc:	d3fb      	bcc.n	80035f6 <FillZerobss>

/* Call the clock system intitialization function.*/
    bl  SystemInit
 80035fe:	f7ff fb31 	bl	8002c64 <SystemInit>
/* Call static constructors */
    bl __libc_init_array
 8003602:	f003 f977 	bl	80068f4 <__libc_init_array>
/* Call the application's entry point.*/
  bl main
 8003606:	f7fd f8a3 	bl	8000750 <main>
  bx lr
 800360a:	4770      	bx	lr
  ldr r0, =_sdata
 800360c:	20000000 	.word	0x20000000
  ldr r1, =_edata
 8003610:	2000001c 	.word	0x2000001c
  ldr r2, =_sidata
 8003614:	0800723c 	.word	0x0800723c
  ldr r2, =_sbss
 8003618:	2000001c 	.word	0x2000001c
  ldr r4, =_ebss
 800361c:	20000438 	.word	0x20000438

08003620 <CAN1_RX1_IRQHandler>:
 * @retval : None
*/
    .section .text.Default_Handler,"ax",%progbits
Default_Handler:
Infinite_Loop:
  b Infinite_Loop
 8003620:	e7fe      	b.n	8003620 <CAN1_RX1_IRQHandler>
	...

08003624 <HAL_Init>:
  *         need to ensure that the SysTick time base is always set to 1 millisecond
  *         to have correct HAL operation.
  * @retval HAL status
  */
HAL_StatusTypeDef HAL_Init(void)
{
 8003624:	b580      	push	{r7, lr}
 8003626:	af00      	add	r7, sp, #0
    defined(STM32F102x6) || defined(STM32F102xB) || \
    defined(STM32F103x6) || defined(STM32F103xB) || defined(STM32F103xE) || defined(STM32F103xG) || \
    defined(STM32F105xC) || defined(STM32F107xC)

  /* Prefetch buffer is not available on value line devices */
  __HAL_FLASH_PREFETCH_BUFFER_ENABLE();
 8003628:	4b08      	ldr	r3, [pc, #32]	; (800364c <HAL_Init+0x28>)
 800362a:	681b      	ldr	r3, [r3, #0]
 800362c:	4a07      	ldr	r2, [pc, #28]	; (800364c <HAL_Init+0x28>)
 800362e:	f043 0310 	orr.w	r3, r3, #16
 8003632:	6013      	str	r3, [r2, #0]
#endif
#endif /* PREFETCH_ENABLE */

  /* Set Interrupt Group Priority */
  HAL_NVIC_SetPriorityGrouping(NVIC_PRIORITYGROUP_4);
 8003634:	2003      	movs	r0, #3
 8003636:	f000 ff2b 	bl	8004490 <HAL_NVIC_SetPriorityGrouping>

  /* Use systick as time base source and configure 1ms tick (default clock after Reset is HSI) */
  HAL_InitTick(TICK_INT_PRIORITY);
 800363a:	200f      	movs	r0, #15
 800363c:	f000 f808 	bl	8003650 <HAL_InitTick>

  /* Init the low level hardware */
  HAL_MspInit();
 8003640:	f7ff f940 	bl	80028c4 <HAL_MspInit>

  /* Return function status */
  return HAL_OK;
 8003644:	2300      	movs	r3, #0
}
 8003646:	4618      	mov	r0, r3
 8003648:	bd80      	pop	{r7, pc}
 800364a:	bf00      	nop
 800364c:	40022000 	.word	0x40022000

08003650 <HAL_InitTick>:
  *       implementation  in user file.
  * @param TickPriority Tick interrupt priority.
  * @retval HAL status
  */
__weak HAL_StatusTypeDef HAL_InitTick(uint32_t TickPriority)
{
 8003650:	b580      	push	{r7, lr}
 8003652:	b082      	sub	sp, #8
 8003654:	af00      	add	r7, sp, #0
 8003656:	6078      	str	r0, [r7, #4]
  /* Configure the SysTick to have interrupt in 1ms time basis*/
  if (HAL_SYSTICK_Config(SystemCoreClock / (1000U / uwTickFreq)) > 0U)
 8003658:	4b12      	ldr	r3, [pc, #72]	; (80036a4 <HAL_InitTick+0x54>)
 800365a:	681a      	ldr	r2, [r3, #0]
 800365c:	4b12      	ldr	r3, [pc, #72]	; (80036a8 <HAL_InitTick+0x58>)
 800365e:	781b      	ldrb	r3, [r3, #0]
 8003660:	4619      	mov	r1, r3
 8003662:	f44f 737a 	mov.w	r3, #1000	; 0x3e8
 8003666:	fbb3 f3f1 	udiv	r3, r3, r1
 800366a:	fbb2 f3f3 	udiv	r3, r2, r3
 800366e:	4618      	mov	r0, r3
 8003670:	f000 ff43 	bl	80044fa <HAL_SYSTICK_Config>
 8003674:	4603      	mov	r3, r0
 8003676:	2b00      	cmp	r3, #0
 8003678:	d001      	beq.n	800367e <HAL_InitTick+0x2e>
  {
    return HAL_ERROR;
 800367a:	2301      	movs	r3, #1
 800367c:	e00e      	b.n	800369c <HAL_InitTick+0x4c>
  }

  /* Configure the SysTick IRQ priority */
  if (TickPriority < (1UL << __NVIC_PRIO_BITS))
 800367e:	687b      	ldr	r3, [r7, #4]
 8003680:	2b0f      	cmp	r3, #15
 8003682:	d80a      	bhi.n	800369a <HAL_InitTick+0x4a>
  {
    HAL_NVIC_SetPriority(SysTick_IRQn, TickPriority, 0U);
 8003684:	2200      	movs	r2, #0
 8003686:	6879      	ldr	r1, [r7, #4]
 8003688:	f04f 30ff 	mov.w	r0, #4294967295
 800368c:	f000 ff0b 	bl	80044a6 <HAL_NVIC_SetPriority>
    uwTickPrio = TickPriority;
 8003690:	4a06      	ldr	r2, [pc, #24]	; (80036ac <HAL_InitTick+0x5c>)
 8003692:	687b      	ldr	r3, [r7, #4]
 8003694:	6013      	str	r3, [r2, #0]
  {
    return HAL_ERROR;
  }

  /* Return function status */
  return HAL_OK;
 8003696:	2300      	movs	r3, #0
 8003698:	e000      	b.n	800369c <HAL_InitTick+0x4c>
    return HAL_ERROR;
 800369a:	2301      	movs	r3, #1
}
 800369c:	4618      	mov	r0, r3
 800369e:	3708      	adds	r7, #8
 80036a0:	46bd      	mov	sp, r7
 80036a2:	bd80      	pop	{r7, pc}
 80036a4:	20000010 	.word	0x20000010
 80036a8:	20000018 	.word	0x20000018
 80036ac:	20000014 	.word	0x20000014

080036b0 <HAL_IncTick>:
  * @note This function is declared as __weak to be overwritten in case of other
  *      implementations in user file.
  * @retval None
  */
__weak void HAL_IncTick(void)
{
 80036b0:	b480      	push	{r7}
 80036b2:	af00      	add	r7, sp, #0
  uwTick += uwTickFreq;
 80036b4:	4b05      	ldr	r3, [pc, #20]	; (80036cc <HAL_IncTick+0x1c>)
 80036b6:	781b      	ldrb	r3, [r3, #0]
 80036b8:	461a      	mov	r2, r3
 80036ba:	4b05      	ldr	r3, [pc, #20]	; (80036d0 <HAL_IncTick+0x20>)
 80036bc:	681b      	ldr	r3, [r3, #0]
 80036be:	4413      	add	r3, r2
 80036c0:	4a03      	ldr	r2, [pc, #12]	; (80036d0 <HAL_IncTick+0x20>)
 80036c2:	6013      	str	r3, [r2, #0]
}
 80036c4:	bf00      	nop
 80036c6:	46bd      	mov	sp, r7
 80036c8:	bc80      	pop	{r7}
 80036ca:	4770      	bx	lr
 80036cc:	20000018 	.word	0x20000018
 80036d0:	20000434 	.word	0x20000434

080036d4 <HAL_GetTick>:
  * @note  This function is declared as __weak to be overwritten in case of other
  *       implementations in user file.
  * @retval tick value
  */
__weak uint32_t HAL_GetTick(void)
{
 80036d4:	b480      	push	{r7}
 80036d6:	af00      	add	r7, sp, #0
  return uwTick;
 80036d8:	4b02      	ldr	r3, [pc, #8]	; (80036e4 <HAL_GetTick+0x10>)
 80036da:	681b      	ldr	r3, [r3, #0]
}
 80036dc:	4618      	mov	r0, r3
 80036de:	46bd      	mov	sp, r7
 80036e0:	bc80      	pop	{r7}
 80036e2:	4770      	bx	lr
 80036e4:	20000434 	.word	0x20000434

080036e8 <HAL_Delay>:
  *       implementations in user file.
  * @param Delay specifies the delay time length, in milliseconds.
  * @retval None
  */
__weak void HAL_Delay(uint32_t Delay)
{
 80036e8:	b580      	push	{r7, lr}
 80036ea:	b084      	sub	sp, #16
 80036ec:	af00      	add	r7, sp, #0
 80036ee:	6078      	str	r0, [r7, #4]
  uint32_t tickstart = HAL_GetTick();
 80036f0:	f7ff fff0 	bl	80036d4 <HAL_GetTick>
 80036f4:	60b8      	str	r0, [r7, #8]
  uint32_t wait = Delay;
 80036f6:	687b      	ldr	r3, [r7, #4]
 80036f8:	60fb      	str	r3, [r7, #12]

  /* Add a freq to guarantee minimum wait */
  if (wait < HAL_MAX_DELAY)
 80036fa:	68fb      	ldr	r3, [r7, #12]
 80036fc:	f1b3 3fff 	cmp.w	r3, #4294967295
 8003700:	d005      	beq.n	800370e <HAL_Delay+0x26>
  {
    wait += (uint32_t)(uwTickFreq);
 8003702:	4b0a      	ldr	r3, [pc, #40]	; (800372c <HAL_Delay+0x44>)
 8003704:	781b      	ldrb	r3, [r3, #0]
 8003706:	461a      	mov	r2, r3
 8003708:	68fb      	ldr	r3, [r7, #12]
 800370a:	4413      	add	r3, r2
 800370c:	60fb      	str	r3, [r7, #12]
  }

  while ((HAL_GetTick() - tickstart) < wait)
 800370e:	bf00      	nop
 8003710:	f7ff ffe0 	bl	80036d4 <HAL_GetTick>
 8003714:	4602      	mov	r2, r0
 8003716:	68bb      	ldr	r3, [r7, #8]
 8003718:	1ad3      	subs	r3, r2, r3
 800371a:	68fa      	ldr	r2, [r7, #12]
 800371c:	429a      	cmp	r2, r3
 800371e:	d8f7      	bhi.n	8003710 <HAL_Delay+0x28>
  {
  }
}
 8003720:	bf00      	nop
 8003722:	bf00      	nop
 8003724:	3710      	adds	r7, #16
 8003726:	46bd      	mov	sp, r7
 8003728:	bd80      	pop	{r7, pc}
 800372a:	bf00      	nop
 800372c:	20000018 	.word	0x20000018

08003730 <HAL_ADC_Init>:
  *         of structure "ADC_InitTypeDef".
  * @param  hadc: ADC handle
  * @retval HAL status
  */
HAL_StatusTypeDef HAL_ADC_Init(ADC_HandleTypeDef* hadc)
{
 8003730:	b580      	push	{r7, lr}
 8003732:	b086      	sub	sp, #24
 8003734:	af00      	add	r7, sp, #0
 8003736:	6078      	str	r0, [r7, #4]
  HAL_StatusTypeDef tmp_hal_status = HAL_OK;
 8003738:	2300      	movs	r3, #0
 800373a:	75fb      	strb	r3, [r7, #23]
  uint32_t tmp_cr1 = 0U;
 800373c:	2300      	movs	r3, #0
 800373e:	613b      	str	r3, [r7, #16]
  uint32_t tmp_cr2 = 0U;
 8003740:	2300      	movs	r3, #0
 8003742:	60bb      	str	r3, [r7, #8]
  uint32_t tmp_sqr1 = 0U;
 8003744:	2300      	movs	r3, #0
 8003746:	60fb      	str	r3, [r7, #12]
  
  /* Check ADC handle */
  if(hadc == NULL)
 8003748:	687b      	ldr	r3, [r7, #4]
 800374a:	2b00      	cmp	r3, #0
 800374c:	d101      	bne.n	8003752 <HAL_ADC_Init+0x22>
  {
    return HAL_ERROR;
 800374e:	2301      	movs	r3, #1
 8003750:	e0be      	b.n	80038d0 <HAL_ADC_Init+0x1a0>
  assert_param(IS_ADC_DATA_ALIGN(hadc->Init.DataAlign));
  assert_param(IS_ADC_SCAN_MODE(hadc->Init.ScanConvMode));
  assert_param(IS_FUNCTIONAL_STATE(hadc->Init.ContinuousConvMode));
  assert_param(IS_ADC_EXTTRIG(hadc->Init.ExternalTrigConv));
  
  if(hadc->Init.ScanConvMode != ADC_SCAN_DISABLE)
 8003752:	687b      	ldr	r3, [r7, #4]
 8003754:	689b      	ldr	r3, [r3, #8]
 8003756:	2b00      	cmp	r3, #0
  /* Refer to header of this file for more details on clock enabling          */
  /* procedure.                                                               */

  /* Actions performed only if ADC is coming from state reset:                */
  /* - Initialization of ADC MSP                                              */
  if (hadc->State == HAL_ADC_STATE_RESET)
 8003758:	687b      	ldr	r3, [r7, #4]
 800375a:	6a9b      	ldr	r3, [r3, #40]	; 0x28
 800375c:	2b00      	cmp	r3, #0
 800375e:	d109      	bne.n	8003774 <HAL_ADC_Init+0x44>
  {
    /* Initialize ADC error code */
    ADC_CLEAR_ERRORCODE(hadc);
 8003760:	687b      	ldr	r3, [r7, #4]
 8003762:	2200      	movs	r2, #0
 8003764:	62da      	str	r2, [r3, #44]	; 0x2c
    
    /* Allocate lock resource and initialize it */
    hadc->Lock = HAL_UNLOCKED;
 8003766:	687b      	ldr	r3, [r7, #4]
 8003768:	2200      	movs	r2, #0
 800376a:	f883 2024 	strb.w	r2, [r3, #36]	; 0x24
    
    /* Init the low level hardware */
    hadc->MspInitCallback(hadc);
#else
    /* Init the low level hardware */
    HAL_ADC_MspInit(hadc);
 800376e:	6878      	ldr	r0, [r7, #4]
 8003770:	f7ff f8da 	bl	8002928 <HAL_ADC_MspInit>
  /* Stop potential conversion on going, on regular and injected groups */
  /* Disable ADC peripheral */
  /* Note: In case of ADC already enabled, precaution to not launch an        */
  /*       unwanted conversion while modifying register CR2 by writing 1 to   */
  /*       bit ADON.                                                          */
  tmp_hal_status = ADC_ConversionStop_Disable(hadc);
 8003774:	6878      	ldr	r0, [r7, #4]
 8003776:	f000 fcc7 	bl	8004108 <ADC_ConversionStop_Disable>
 800377a:	4603      	mov	r3, r0
 800377c:	75fb      	strb	r3, [r7, #23]
  
  
  /* Configuration of ADC parameters if previous preliminary actions are      */ 
  /* correctly completed.                                                     */
  if (HAL_IS_BIT_CLR(hadc->State, HAL_ADC_STATE_ERROR_INTERNAL) &&
 800377e:	687b      	ldr	r3, [r7, #4]
 8003780:	6a9b      	ldr	r3, [r3, #40]	; 0x28
 8003782:	f003 0310 	and.w	r3, r3, #16
 8003786:	2b00      	cmp	r3, #0
 8003788:	f040 8099 	bne.w	80038be <HAL_ADC_Init+0x18e>
 800378c:	7dfb      	ldrb	r3, [r7, #23]
 800378e:	2b00      	cmp	r3, #0
 8003790:	f040 8095 	bne.w	80038be <HAL_ADC_Init+0x18e>
      (tmp_hal_status == HAL_OK)                                  )
  {
    /* Set ADC state */
    ADC_STATE_CLR_SET(hadc->State,
 8003794:	687b      	ldr	r3, [r7, #4]
 8003796:	6a9b      	ldr	r3, [r3, #40]	; 0x28
 8003798:	f423 5388 	bic.w	r3, r3, #4352	; 0x1100
 800379c:	f023 0302 	bic.w	r3, r3, #2
 80037a0:	f043 0202 	orr.w	r2, r3, #2
 80037a4:	687b      	ldr	r3, [r7, #4]
 80037a6:	629a      	str	r2, [r3, #40]	; 0x28
    /*  - continuous conversion mode                                          */
    /* Note: External trigger polarity (ADC_CR2_EXTTRIG) is set into          */
    /*       HAL_ADC_Start_xxx functions because if set in this function,     */
    /*       a conversion on injected group would start a conversion also on  */
    /*       regular group after ADC enabling.                                */
    tmp_cr2 |= (hadc->Init.DataAlign                                          |
 80037a8:	687b      	ldr	r3, [r7, #4]
 80037aa:	685a      	ldr	r2, [r3, #4]
                ADC_CFGR_EXTSEL(hadc, hadc->Init.ExternalTrigConv)            |
 80037ac:	687b      	ldr	r3, [r7, #4]
 80037ae:	69db      	ldr	r3, [r3, #28]
    tmp_cr2 |= (hadc->Init.DataAlign                                          |
 80037b0:	431a      	orrs	r2, r3
                ADC_CR2_CONTINUOUS((uint32_t)hadc->Init.ContinuousConvMode)   );
 80037b2:	687b      	ldr	r3, [r7, #4]
 80037b4:	7b1b      	ldrb	r3, [r3, #12]
 80037b6:	005b      	lsls	r3, r3, #1
                ADC_CFGR_EXTSEL(hadc, hadc->Init.ExternalTrigConv)            |
 80037b8:	4313      	orrs	r3, r2
    tmp_cr2 |= (hadc->Init.DataAlign                                          |
 80037ba:	68ba      	ldr	r2, [r7, #8]
 80037bc:	4313      	orrs	r3, r2
 80037be:	60bb      	str	r3, [r7, #8]

    /* Configuration of ADC:                                                  */
    /*  - scan mode                                                           */
    /*  - discontinuous mode disable/enable                                   */
    /*  - discontinuous mode number of conversions                            */
    tmp_cr1 |= (ADC_CR1_SCAN_SET(hadc->Init.ScanConvMode));
 80037c0:	687b      	ldr	r3, [r7, #4]
 80037c2:	689b      	ldr	r3, [r3, #8]
 80037c4:	f5b3 7f80 	cmp.w	r3, #256	; 0x100
 80037c8:	d003      	beq.n	80037d2 <HAL_ADC_Init+0xa2>
 80037ca:	687b      	ldr	r3, [r7, #4]
 80037cc:	689b      	ldr	r3, [r3, #8]
 80037ce:	2b01      	cmp	r3, #1
 80037d0:	d102      	bne.n	80037d8 <HAL_ADC_Init+0xa8>
 80037d2:	f44f 7380 	mov.w	r3, #256	; 0x100
 80037d6:	e000      	b.n	80037da <HAL_ADC_Init+0xaa>
 80037d8:	2300      	movs	r3, #0
 80037da:	693a      	ldr	r2, [r7, #16]
 80037dc:	4313      	orrs	r3, r2
 80037de:	613b      	str	r3, [r7, #16]
    
    /* Enable discontinuous mode only if continuous mode is disabled */
    /* Note: If parameter "Init.ScanConvMode" is set to disable, parameter    */
    /*       discontinuous is set anyway, but will have no effect on ADC HW.  */
    if (hadc->Init.DiscontinuousConvMode == ENABLE)
 80037e0:	687b      	ldr	r3, [r7, #4]
 80037e2:	7d1b      	ldrb	r3, [r3, #20]
 80037e4:	2b01      	cmp	r3, #1
 80037e6:	d119      	bne.n	800381c <HAL_ADC_Init+0xec>
    {
      if (hadc->Init.ContinuousConvMode == DISABLE)
 80037e8:	687b      	ldr	r3, [r7, #4]
 80037ea:	7b1b      	ldrb	r3, [r3, #12]
 80037ec:	2b00      	cmp	r3, #0
 80037ee:	d109      	bne.n	8003804 <HAL_ADC_Init+0xd4>
      {
        /* Enable the selected ADC regular discontinuous mode */
        /* Set the number of channels to be converted in discontinuous mode */
        SET_BIT(tmp_cr1, ADC_CR1_DISCEN                                            |
 80037f0:	687b      	ldr	r3, [r7, #4]
 80037f2:	699b      	ldr	r3, [r3, #24]
 80037f4:	3b01      	subs	r3, #1
 80037f6:	035a      	lsls	r2, r3, #13
 80037f8:	693b      	ldr	r3, [r7, #16]
 80037fa:	4313      	orrs	r3, r2
 80037fc:	f443 6300 	orr.w	r3, r3, #2048	; 0x800
 8003800:	613b      	str	r3, [r7, #16]
 8003802:	e00b      	b.n	800381c <HAL_ADC_Init+0xec>
      {
        /* ADC regular group settings continuous and sequencer discontinuous*/
        /* cannot be enabled simultaneously.                                */
        
        /* Update ADC state machine to error */
        SET_BIT(hadc->State, HAL_ADC_STATE_ERROR_CONFIG);
 8003804:	687b      	ldr	r3, [r7, #4]
 8003806:	6a9b      	ldr	r3, [r3, #40]	; 0x28
 8003808:	f043 0220 	orr.w	r2, r3, #32
 800380c:	687b      	ldr	r3, [r7, #4]
 800380e:	629a      	str	r2, [r3, #40]	; 0x28
        
        /* Set ADC error code to ADC IP internal error */
        SET_BIT(hadc->ErrorCode, HAL_ADC_ERROR_INTERNAL);
 8003810:	687b      	ldr	r3, [r7, #4]
 8003812:	6adb      	ldr	r3, [r3, #44]	; 0x2c
 8003814:	f043 0201 	orr.w	r2, r3, #1
 8003818:	687b      	ldr	r3, [r7, #4]
 800381a:	62da      	str	r2, [r3, #44]	; 0x2c
      }
    }
    
    /* Update ADC configuration register CR1 with previous settings */
      MODIFY_REG(hadc->Instance->CR1,
 800381c:	687b      	ldr	r3, [r7, #4]
 800381e:	681b      	ldr	r3, [r3, #0]
 8003820:	685b      	ldr	r3, [r3, #4]
 8003822:	f423 4169 	bic.w	r1, r3, #59648	; 0xe900
 8003826:	687b      	ldr	r3, [r7, #4]
 8003828:	681b      	ldr	r3, [r3, #0]
 800382a:	693a      	ldr	r2, [r7, #16]
 800382c:	430a      	orrs	r2, r1
 800382e:	605a      	str	r2, [r3, #4]
                 ADC_CR1_DISCEN  |
                 ADC_CR1_DISCNUM    ,
                 tmp_cr1             );
    
    /* Update ADC configuration register CR2 with previous settings */
      MODIFY_REG(hadc->Instance->CR2,
 8003830:	687b      	ldr	r3, [r7, #4]
 8003832:	681b      	ldr	r3, [r3, #0]
 8003834:	689a      	ldr	r2, [r3, #8]
 8003836:	4b28      	ldr	r3, [pc, #160]	; (80038d8 <HAL_ADC_Init+0x1a8>)
 8003838:	4013      	ands	r3, r2
 800383a:	687a      	ldr	r2, [r7, #4]
 800383c:	6812      	ldr	r2, [r2, #0]
 800383e:	68b9      	ldr	r1, [r7, #8]
 8003840:	430b      	orrs	r3, r1
 8003842:	6093      	str	r3, [r2, #8]
    /*   Note: Scan mode is present by hardware on this device and, if        */
    /*   disabled, discards automatically nb of conversions. Anyway, nb of    */
    /*   conversions is forced to 0x00 for alignment over all STM32 devices.  */
    /* - if scan mode is enabled, regular channels sequence length is set to  */
    /*   parameter "NbrOfConversion"                                          */
    if (ADC_CR1_SCAN_SET(hadc->Init.ScanConvMode) == ADC_SCAN_ENABLE)
 8003844:	687b      	ldr	r3, [r7, #4]
 8003846:	689b      	ldr	r3, [r3, #8]
 8003848:	f5b3 7f80 	cmp.w	r3, #256	; 0x100
 800384c:	d003      	beq.n	8003856 <HAL_ADC_Init+0x126>
 800384e:	687b      	ldr	r3, [r7, #4]
 8003850:	689b      	ldr	r3, [r3, #8]
 8003852:	2b01      	cmp	r3, #1
 8003854:	d104      	bne.n	8003860 <HAL_ADC_Init+0x130>
    {
      tmp_sqr1 = ADC_SQR1_L_SHIFT(hadc->Init.NbrOfConversion);
 8003856:	687b      	ldr	r3, [r7, #4]
 8003858:	691b      	ldr	r3, [r3, #16]
 800385a:	3b01      	subs	r3, #1
 800385c:	051b      	lsls	r3, r3, #20
 800385e:	60fb      	str	r3, [r7, #12]
    }
      
    MODIFY_REG(hadc->Instance->SQR1,
 8003860:	687b      	ldr	r3, [r7, #4]
 8003862:	681b      	ldr	r3, [r3, #0]
 8003864:	6adb      	ldr	r3, [r3, #44]	; 0x2c
 8003866:	f423 0170 	bic.w	r1, r3, #15728640	; 0xf00000
 800386a:	687b      	ldr	r3, [r7, #4]
 800386c:	681b      	ldr	r3, [r3, #0]
 800386e:	68fa      	ldr	r2, [r7, #12]
 8003870:	430a      	orrs	r2, r1
 8003872:	62da      	str	r2, [r3, #44]	; 0x2c
    /* ensure of no potential problem of ADC core IP clocking.                */
    /* Check through register CR2 (excluding bits set in other functions:     */
    /* execution control bits (ADON, JSWSTART, SWSTART), regular group bits   */
    /* (DMA), injected group bits (JEXTTRIG and JEXTSEL), channel internal    */
    /* measurement path bit (TSVREFE).                                        */
    if (READ_BIT(hadc->Instance->CR2, ~(ADC_CR2_ADON | ADC_CR2_DMA |
 8003874:	687b      	ldr	r3, [r7, #4]
 8003876:	681b      	ldr	r3, [r3, #0]
 8003878:	689a      	ldr	r2, [r3, #8]
 800387a:	4b18      	ldr	r3, [pc, #96]	; (80038dc <HAL_ADC_Init+0x1ac>)
 800387c:	4013      	ands	r3, r2
 800387e:	68ba      	ldr	r2, [r7, #8]
 8003880:	429a      	cmp	r2, r3
 8003882:	d10b      	bne.n	800389c <HAL_ADC_Init+0x16c>
                                        ADC_CR2_JEXTTRIG | ADC_CR2_JEXTSEL |
                                        ADC_CR2_TSVREFE                     ))
         == tmp_cr2)
    {
      /* Set ADC error code to none */
      ADC_CLEAR_ERRORCODE(hadc);
 8003884:	687b      	ldr	r3, [r7, #4]
 8003886:	2200      	movs	r2, #0
 8003888:	62da      	str	r2, [r3, #44]	; 0x2c
      
      /* Set the ADC state */
      ADC_STATE_CLR_SET(hadc->State,
 800388a:	687b      	ldr	r3, [r7, #4]
 800388c:	6a9b      	ldr	r3, [r3, #40]	; 0x28
 800388e:	f023 0303 	bic.w	r3, r3, #3
 8003892:	f043 0201 	orr.w	r2, r3, #1
 8003896:	687b      	ldr	r3, [r7, #4]
 8003898:	629a      	str	r2, [r3, #40]	; 0x28
    if (READ_BIT(hadc->Instance->CR2, ~(ADC_CR2_ADON | ADC_CR2_DMA |
 800389a:	e018      	b.n	80038ce <HAL_ADC_Init+0x19e>
                        HAL_ADC_STATE_READY);
    }
    else
    {
      /* Update ADC state machine to error */
      ADC_STATE_CLR_SET(hadc->State,
 800389c:	687b      	ldr	r3, [r7, #4]
 800389e:	6a9b      	ldr	r3, [r3, #40]	; 0x28
 80038a0:	f023 0312 	bic.w	r3, r3, #18
 80038a4:	f043 0210 	orr.w	r2, r3, #16
 80038a8:	687b      	ldr	r3, [r7, #4]
 80038aa:	629a      	str	r2, [r3, #40]	; 0x28
                        HAL_ADC_STATE_BUSY_INTERNAL,
                        HAL_ADC_STATE_ERROR_INTERNAL);
      
      /* Set ADC error code to ADC IP internal error */
      SET_BIT(hadc->ErrorCode, HAL_ADC_ERROR_INTERNAL);
 80038ac:	687b      	ldr	r3, [r7, #4]
 80038ae:	6adb      	ldr	r3, [r3, #44]	; 0x2c
 80038b0:	f043 0201 	orr.w	r2, r3, #1
 80038b4:	687b      	ldr	r3, [r7, #4]
 80038b6:	62da      	str	r2, [r3, #44]	; 0x2c
      
      tmp_hal_status = HAL_ERROR;
 80038b8:	2301      	movs	r3, #1
 80038ba:	75fb      	strb	r3, [r7, #23]
    if (READ_BIT(hadc->Instance->CR2, ~(ADC_CR2_ADON | ADC_CR2_DMA |
 80038bc:	e007      	b.n	80038ce <HAL_ADC_Init+0x19e>
  
  }
  else
  {
    /* Update ADC state machine to error */
    SET_BIT(hadc->State, HAL_ADC_STATE_ERROR_INTERNAL);
 80038be:	687b      	ldr	r3, [r7, #4]
 80038c0:	6a9b      	ldr	r3, [r3, #40]	; 0x28
 80038c2:	f043 0210 	orr.w	r2, r3, #16
 80038c6:	687b      	ldr	r3, [r7, #4]
 80038c8:	629a      	str	r2, [r3, #40]	; 0x28
        
    tmp_hal_status = HAL_ERROR;
 80038ca:	2301      	movs	r3, #1
 80038cc:	75fb      	strb	r3, [r7, #23]
  }
  
  /* Return function status */
  return tmp_hal_status;
 80038ce:	7dfb      	ldrb	r3, [r7, #23]
}
 80038d0:	4618      	mov	r0, r3
 80038d2:	3718      	adds	r7, #24
 80038d4:	46bd      	mov	sp, r7
 80038d6:	bd80      	pop	{r7, pc}
 80038d8:	ffe1f7fd 	.word	0xffe1f7fd
 80038dc:	ff1f0efe 	.word	0xff1f0efe

080038e0 <HAL_ADC_Start>:
  *         Interruptions enabled in this function: None.
  * @param  hadc: ADC handle
  * @retval HAL status
  */
HAL_StatusTypeDef HAL_ADC_Start(ADC_HandleTypeDef* hadc)
{
 80038e0:	b580      	push	{r7, lr}
 80038e2:	b084      	sub	sp, #16
 80038e4:	af00      	add	r7, sp, #0
 80038e6:	6078      	str	r0, [r7, #4]
  HAL_StatusTypeDef tmp_hal_status = HAL_OK;
 80038e8:	2300      	movs	r3, #0
 80038ea:	73fb      	strb	r3, [r7, #15]
  
  /* Check the parameters */
  assert_param(IS_ADC_ALL_INSTANCE(hadc->Instance));
  
  /* Process locked */
  __HAL_LOCK(hadc);
 80038ec:	687b      	ldr	r3, [r7, #4]
 80038ee:	f893 3024 	ldrb.w	r3, [r3, #36]	; 0x24
 80038f2:	2b01      	cmp	r3, #1
 80038f4:	d101      	bne.n	80038fa <HAL_ADC_Start+0x1a>
 80038f6:	2302      	movs	r3, #2
 80038f8:	e098      	b.n	8003a2c <HAL_ADC_Start+0x14c>
 80038fa:	687b      	ldr	r3, [r7, #4]
 80038fc:	2201      	movs	r2, #1
 80038fe:	f883 2024 	strb.w	r2, [r3, #36]	; 0x24
   
  /* Enable the ADC peripheral */
  tmp_hal_status = ADC_Enable(hadc);
 8003902:	6878      	ldr	r0, [r7, #4]
 8003904:	f000 fba6 	bl	8004054 <ADC_Enable>
 8003908:	4603      	mov	r3, r0
 800390a:	73fb      	strb	r3, [r7, #15]
  
  /* Start conversion if ADC is effectively enabled */
  if (tmp_hal_status == HAL_OK)
 800390c:	7bfb      	ldrb	r3, [r7, #15]
 800390e:	2b00      	cmp	r3, #0
 8003910:	f040 8087 	bne.w	8003a22 <HAL_ADC_Start+0x142>
  {
    /* Set ADC state                                                          */
    /* - Clear state bitfield related to regular group conversion results     */
    /* - Set state bitfield related to regular operation                      */
    ADC_STATE_CLR_SET(hadc->State,
 8003914:	687b      	ldr	r3, [r7, #4]
 8003916:	6a9b      	ldr	r3, [r3, #40]	; 0x28
 8003918:	f423 7340 	bic.w	r3, r3, #768	; 0x300
 800391c:	f023 0301 	bic.w	r3, r3, #1
 8003920:	f443 7280 	orr.w	r2, r3, #256	; 0x100
 8003924:	687b      	ldr	r3, [r7, #4]
 8003926:	629a      	str	r2, [r3, #40]	; 0x28
                      HAL_ADC_STATE_REG_BUSY);
    
    /* Set group injected state (from auto-injection) and multimode state     */
    /* for all cases of multimode: independent mode, multimode ADC master     */
    /* or multimode ADC slave (for devices with several ADCs):                */
    if (ADC_NONMULTIMODE_OR_MULTIMODEMASTER(hadc))
 8003928:	687b      	ldr	r3, [r7, #4]
 800392a:	681b      	ldr	r3, [r3, #0]
 800392c:	4a41      	ldr	r2, [pc, #260]	; (8003a34 <HAL_ADC_Start+0x154>)
 800392e:	4293      	cmp	r3, r2
 8003930:	d105      	bne.n	800393e <HAL_ADC_Start+0x5e>
 8003932:	4b41      	ldr	r3, [pc, #260]	; (8003a38 <HAL_ADC_Start+0x158>)
 8003934:	685b      	ldr	r3, [r3, #4]
 8003936:	f403 2370 	and.w	r3, r3, #983040	; 0xf0000
 800393a:	2b00      	cmp	r3, #0
 800393c:	d115      	bne.n	800396a <HAL_ADC_Start+0x8a>
    {
      /* Set ADC state (ADC independent or master) */
      CLEAR_BIT(hadc->State, HAL_ADC_STATE_MULTIMODE_SLAVE);
 800393e:	687b      	ldr	r3, [r7, #4]
 8003940:	6a9b      	ldr	r3, [r3, #40]	; 0x28
 8003942:	f423 1280 	bic.w	r2, r3, #1048576	; 0x100000
 8003946:	687b      	ldr	r3, [r7, #4]
 8003948:	629a      	str	r2, [r3, #40]	; 0x28
      
      /* If conversions on group regular are also triggering group injected,  */
      /* update ADC state.                                                    */
      if (READ_BIT(hadc->Instance->CR1, ADC_CR1_JAUTO) != RESET)
 800394a:	687b      	ldr	r3, [r7, #4]
 800394c:	681b      	ldr	r3, [r3, #0]
 800394e:	685b      	ldr	r3, [r3, #4]
 8003950:	f403 6380 	and.w	r3, r3, #1024	; 0x400
 8003954:	2b00      	cmp	r3, #0
 8003956:	d026      	beq.n	80039a6 <HAL_ADC_Start+0xc6>
      {
        ADC_STATE_CLR_SET(hadc->State, HAL_ADC_STATE_INJ_EOC, HAL_ADC_STATE_INJ_BUSY);  
 8003958:	687b      	ldr	r3, [r7, #4]
 800395a:	6a9b      	ldr	r3, [r3, #40]	; 0x28
 800395c:	f423 5340 	bic.w	r3, r3, #12288	; 0x3000
 8003960:	f443 5280 	orr.w	r2, r3, #4096	; 0x1000
 8003964:	687b      	ldr	r3, [r7, #4]
 8003966:	629a      	str	r2, [r3, #40]	; 0x28
      if (READ_BIT(hadc->Instance->CR1, ADC_CR1_JAUTO) != RESET)
 8003968:	e01d      	b.n	80039a6 <HAL_ADC_Start+0xc6>
      }
    }
    else
    {
      /* Set ADC state (ADC slave) */
      SET_BIT(hadc->State, HAL_ADC_STATE_MULTIMODE_SLAVE);
 800396a:	687b      	ldr	r3, [r7, #4]
 800396c:	6a9b      	ldr	r3, [r3, #40]	; 0x28
 800396e:	f443 1280 	orr.w	r2, r3, #1048576	; 0x100000
 8003972:	687b      	ldr	r3, [r7, #4]
 8003974:	629a      	str	r2, [r3, #40]	; 0x28
      
      /* If conversions on group regular are also triggering group injected,  */
      /* update ADC state.                                                    */
      if (ADC_MULTIMODE_AUTO_INJECTED(hadc))
 8003976:	687b      	ldr	r3, [r7, #4]
 8003978:	681b      	ldr	r3, [r3, #0]
 800397a:	4a2f      	ldr	r2, [pc, #188]	; (8003a38 <HAL_ADC_Start+0x158>)
 800397c:	4293      	cmp	r3, r2
 800397e:	d004      	beq.n	800398a <HAL_ADC_Start+0xaa>
 8003980:	687b      	ldr	r3, [r7, #4]
 8003982:	681b      	ldr	r3, [r3, #0]
 8003984:	4a2b      	ldr	r2, [pc, #172]	; (8003a34 <HAL_ADC_Start+0x154>)
 8003986:	4293      	cmp	r3, r2
 8003988:	d10d      	bne.n	80039a6 <HAL_ADC_Start+0xc6>
 800398a:	4b2b      	ldr	r3, [pc, #172]	; (8003a38 <HAL_ADC_Start+0x158>)
 800398c:	685b      	ldr	r3, [r3, #4]
 800398e:	f403 6380 	and.w	r3, r3, #1024	; 0x400
 8003992:	2b00      	cmp	r3, #0
 8003994:	d007      	beq.n	80039a6 <HAL_ADC_Start+0xc6>
      {
        ADC_STATE_CLR_SET(hadc->State, HAL_ADC_STATE_INJ_EOC, HAL_ADC_STATE_INJ_BUSY);
 8003996:	687b      	ldr	r3, [r7, #4]
 8003998:	6a9b      	ldr	r3, [r3, #40]	; 0x28
 800399a:	f423 5340 	bic.w	r3, r3, #12288	; 0x3000
 800399e:	f443 5280 	orr.w	r2, r3, #4096	; 0x1000
 80039a2:	687b      	ldr	r3, [r7, #4]
 80039a4:	629a      	str	r2, [r3, #40]	; 0x28
      }
    }
    
    /* State machine update: Check if an injected conversion is ongoing */
    if (HAL_IS_BIT_SET(hadc->State, HAL_ADC_STATE_INJ_BUSY))
 80039a6:	687b      	ldr	r3, [r7, #4]
 80039a8:	6a9b      	ldr	r3, [r3, #40]	; 0x28
 80039aa:	f403 5380 	and.w	r3, r3, #4096	; 0x1000
 80039ae:	2b00      	cmp	r3, #0
 80039b0:	d006      	beq.n	80039c0 <HAL_ADC_Start+0xe0>
    {
      /* Reset ADC error code fields related to conversions on group regular */
      CLEAR_BIT(hadc->ErrorCode, (HAL_ADC_ERROR_OVR | HAL_ADC_ERROR_DMA));         
 80039b2:	687b      	ldr	r3, [r7, #4]
 80039b4:	6adb      	ldr	r3, [r3, #44]	; 0x2c
 80039b6:	f023 0206 	bic.w	r2, r3, #6
 80039ba:	687b      	ldr	r3, [r7, #4]
 80039bc:	62da      	str	r2, [r3, #44]	; 0x2c
 80039be:	e002      	b.n	80039c6 <HAL_ADC_Start+0xe6>
    }
    else
    {
      /* Reset ADC all error code fields */
      ADC_CLEAR_ERRORCODE(hadc);
 80039c0:	687b      	ldr	r3, [r7, #4]
 80039c2:	2200      	movs	r2, #0
 80039c4:	62da      	str	r2, [r3, #44]	; 0x2c
    }
    
    /* Process unlocked */
    /* Unlock before starting ADC conversions: in case of potential           */
    /* interruption, to let the process to ADC IRQ Handler.                   */
    __HAL_UNLOCK(hadc);
 80039c6:	687b      	ldr	r3, [r7, #4]
 80039c8:	2200      	movs	r2, #0
 80039ca:	f883 2024 	strb.w	r2, [r3, #36]	; 0x24
  
    /* Clear regular group conversion flag */
    /* (To ensure of no unknown state from potential previous ADC operations) */
    __HAL_ADC_CLEAR_FLAG(hadc, ADC_FLAG_EOC);
 80039ce:	687b      	ldr	r3, [r7, #4]
 80039d0:	681b      	ldr	r3, [r3, #0]
 80039d2:	f06f 0202 	mvn.w	r2, #2
 80039d6:	601a      	str	r2, [r3, #0]
    /*  - if ADC is slave, ADC is enabled only (conversion is not started).   */
    /*  - if ADC is master, ADC is enabled and conversion is started.         */
    /* If ADC is master, ADC is enabled and conversion is started.            */
    /* Note: Alternate trigger for single conversion could be to force an     */
    /*       additional set of bit ADON "hadc->Instance->CR2 |= ADC_CR2_ADON;"*/
    if (ADC_IS_SOFTWARE_START_REGULAR(hadc)      &&
 80039d8:	687b      	ldr	r3, [r7, #4]
 80039da:	681b      	ldr	r3, [r3, #0]
 80039dc:	689b      	ldr	r3, [r3, #8]
 80039de:	f403 2360 	and.w	r3, r3, #917504	; 0xe0000
 80039e2:	f5b3 2f60 	cmp.w	r3, #917504	; 0xe0000
 80039e6:	d113      	bne.n	8003a10 <HAL_ADC_Start+0x130>
        ADC_NONMULTIMODE_OR_MULTIMODEMASTER(hadc)  )
 80039e8:	687b      	ldr	r3, [r7, #4]
 80039ea:	681b      	ldr	r3, [r3, #0]
    if (ADC_IS_SOFTWARE_START_REGULAR(hadc)      &&
 80039ec:	4a11      	ldr	r2, [pc, #68]	; (8003a34 <HAL_ADC_Start+0x154>)
 80039ee:	4293      	cmp	r3, r2
 80039f0:	d105      	bne.n	80039fe <HAL_ADC_Start+0x11e>
        ADC_NONMULTIMODE_OR_MULTIMODEMASTER(hadc)  )
 80039f2:	4b11      	ldr	r3, [pc, #68]	; (8003a38 <HAL_ADC_Start+0x158>)
 80039f4:	685b      	ldr	r3, [r3, #4]
 80039f6:	f403 2370 	and.w	r3, r3, #983040	; 0xf0000
    if (ADC_IS_SOFTWARE_START_REGULAR(hadc)      &&
 80039fa:	2b00      	cmp	r3, #0
 80039fc:	d108      	bne.n	8003a10 <HAL_ADC_Start+0x130>
    {
      /* Start ADC conversion on regular group with SW start */
      SET_BIT(hadc->Instance->CR2, (ADC_CR2_SWSTART | ADC_CR2_EXTTRIG));
 80039fe:	687b      	ldr	r3, [r7, #4]
 8003a00:	681b      	ldr	r3, [r3, #0]
 8003a02:	689a      	ldr	r2, [r3, #8]
 8003a04:	687b      	ldr	r3, [r7, #4]
 8003a06:	681b      	ldr	r3, [r3, #0]
 8003a08:	f442 02a0 	orr.w	r2, r2, #5242880	; 0x500000
 8003a0c:	609a      	str	r2, [r3, #8]
 8003a0e:	e00c      	b.n	8003a2a <HAL_ADC_Start+0x14a>
    }
    else
    {
      /* Start ADC conversion on regular group with external trigger */
      SET_BIT(hadc->Instance->CR2, ADC_CR2_EXTTRIG);
 8003a10:	687b      	ldr	r3, [r7, #4]
 8003a12:	681b      	ldr	r3, [r3, #0]
 8003a14:	689a      	ldr	r2, [r3, #8]
 8003a16:	687b      	ldr	r3, [r7, #4]
 8003a18:	681b      	ldr	r3, [r3, #0]
 8003a1a:	f442 1280 	orr.w	r2, r2, #1048576	; 0x100000
 8003a1e:	609a      	str	r2, [r3, #8]
 8003a20:	e003      	b.n	8003a2a <HAL_ADC_Start+0x14a>
    }
  }
  else
  {
    /* Process unlocked */
    __HAL_UNLOCK(hadc);
 8003a22:	687b      	ldr	r3, [r7, #4]
 8003a24:	2200      	movs	r2, #0
 8003a26:	f883 2024 	strb.w	r2, [r3, #36]	; 0x24
  }
    
  /* Return function status */
  return tmp_hal_status;
 8003a2a:	7bfb      	ldrb	r3, [r7, #15]
}
 8003a2c:	4618      	mov	r0, r3
 8003a2e:	3710      	adds	r7, #16
 8003a30:	46bd      	mov	sp, r7
 8003a32:	bd80      	pop	{r7, pc}
 8003a34:	40012800 	.word	0x40012800
 8003a38:	40012400 	.word	0x40012400

08003a3c <HAL_ADC_Stop>:
  *         should be preliminarily stopped using HAL_ADCEx_InjectedStop function.
  * @param  hadc: ADC handle
  * @retval HAL status.
  */
HAL_StatusTypeDef HAL_ADC_Stop(ADC_HandleTypeDef* hadc)
{
 8003a3c:	b580      	push	{r7, lr}
 8003a3e:	b084      	sub	sp, #16
 8003a40:	af00      	add	r7, sp, #0
 8003a42:	6078      	str	r0, [r7, #4]
  HAL_StatusTypeDef tmp_hal_status = HAL_OK;
 8003a44:	2300      	movs	r3, #0
 8003a46:	73fb      	strb	r3, [r7, #15]
  
  /* Check the parameters */
  assert_param(IS_ADC_ALL_INSTANCE(hadc->Instance));
     
  /* Process locked */
  __HAL_LOCK(hadc);
 8003a48:	687b      	ldr	r3, [r7, #4]
 8003a4a:	f893 3024 	ldrb.w	r3, [r3, #36]	; 0x24
 8003a4e:	2b01      	cmp	r3, #1
 8003a50:	d101      	bne.n	8003a56 <HAL_ADC_Stop+0x1a>
 8003a52:	2302      	movs	r3, #2
 8003a54:	e01a      	b.n	8003a8c <HAL_ADC_Stop+0x50>
 8003a56:	687b      	ldr	r3, [r7, #4]
 8003a58:	2201      	movs	r2, #1
 8003a5a:	f883 2024 	strb.w	r2, [r3, #36]	; 0x24
  
  /* Stop potential conversion on going, on regular and injected groups */
  /* Disable ADC peripheral */
  tmp_hal_status = ADC_ConversionStop_Disable(hadc);
 8003a5e:	6878      	ldr	r0, [r7, #4]
 8003a60:	f000 fb52 	bl	8004108 <ADC_ConversionStop_Disable>
 8003a64:	4603      	mov	r3, r0
 8003a66:	73fb      	strb	r3, [r7, #15]
  
  /* Check if ADC is effectively disabled */
  if (tmp_hal_status == HAL_OK)
 8003a68:	7bfb      	ldrb	r3, [r7, #15]
 8003a6a:	2b00      	cmp	r3, #0
 8003a6c:	d109      	bne.n	8003a82 <HAL_ADC_Stop+0x46>
  {
    /* Set ADC state */
    ADC_STATE_CLR_SET(hadc->State,
 8003a6e:	687b      	ldr	r3, [r7, #4]
 8003a70:	6a9b      	ldr	r3, [r3, #40]	; 0x28
 8003a72:	f423 5388 	bic.w	r3, r3, #4352	; 0x1100
 8003a76:	f023 0301 	bic.w	r3, r3, #1
 8003a7a:	f043 0201 	orr.w	r2, r3, #1
 8003a7e:	687b      	ldr	r3, [r7, #4]
 8003a80:	629a      	str	r2, [r3, #40]	; 0x28
                      HAL_ADC_STATE_REG_BUSY | HAL_ADC_STATE_INJ_BUSY,
                      HAL_ADC_STATE_READY);
  }
  
  /* Process unlocked */
  __HAL_UNLOCK(hadc);
 8003a82:	687b      	ldr	r3, [r7, #4]
 8003a84:	2200      	movs	r2, #0
 8003a86:	f883 2024 	strb.w	r2, [r3, #36]	; 0x24
  
  /* Return function status */
  return tmp_hal_status;
 8003a8a:	7bfb      	ldrb	r3, [r7, #15]
}
 8003a8c:	4618      	mov	r0, r3
 8003a8e:	3710      	adds	r7, #16
 8003a90:	46bd      	mov	sp, r7
 8003a92:	bd80      	pop	{r7, pc}

08003a94 <HAL_ADC_PollForConversion>:
  * @param  hadc: ADC handle
  * @param  Timeout: Timeout value in millisecond.
  * @retval HAL status
  */
HAL_StatusTypeDef HAL_ADC_PollForConversion(ADC_HandleTypeDef* hadc, uint32_t Timeout)
{
 8003a94:	b590      	push	{r4, r7, lr}
 8003a96:	b087      	sub	sp, #28
 8003a98:	af00      	add	r7, sp, #0
 8003a9a:	6078      	str	r0, [r7, #4]
 8003a9c:	6039      	str	r1, [r7, #0]
  uint32_t tickstart = 0U;
 8003a9e:	2300      	movs	r3, #0
 8003aa0:	617b      	str	r3, [r7, #20]
  
  /* Variables for polling in case of scan mode enabled and polling for each  */
  /* conversion.                                                              */
  __IO uint32_t Conversion_Timeout_CPU_cycles = 0U;
 8003aa2:	2300      	movs	r3, #0
 8003aa4:	60fb      	str	r3, [r7, #12]
  uint32_t Conversion_Timeout_CPU_cycles_max = 0U;
 8003aa6:	2300      	movs	r3, #0
 8003aa8:	613b      	str	r3, [r7, #16]
 
  /* Check the parameters */
  assert_param(IS_ADC_ALL_INSTANCE(hadc->Instance));
  
  /* Get tick count */
  tickstart = HAL_GetTick();
 8003aaa:	f7ff fe13 	bl	80036d4 <HAL_GetTick>
 8003aae:	6178      	str	r0, [r7, #20]
  
  /* Verification that ADC configuration is compliant with polling for        */
  /* each conversion:                                                         */
  /* Particular case is ADC configured in DMA mode                            */
  if (HAL_IS_BIT_SET(hadc->Instance->CR2, ADC_CR2_DMA))
 8003ab0:	687b      	ldr	r3, [r7, #4]
 8003ab2:	681b      	ldr	r3, [r3, #0]
 8003ab4:	689b      	ldr	r3, [r3, #8]
 8003ab6:	f403 7380 	and.w	r3, r3, #256	; 0x100
 8003aba:	2b00      	cmp	r3, #0
 8003abc:	d00b      	beq.n	8003ad6 <HAL_ADC_PollForConversion+0x42>
  {
    /* Update ADC state machine to error */
    SET_BIT(hadc->State, HAL_ADC_STATE_ERROR_CONFIG);
 8003abe:	687b      	ldr	r3, [r7, #4]
 8003ac0:	6a9b      	ldr	r3, [r3, #40]	; 0x28
 8003ac2:	f043 0220 	orr.w	r2, r3, #32
 8003ac6:	687b      	ldr	r3, [r7, #4]
 8003ac8:	629a      	str	r2, [r3, #40]	; 0x28
    
    /* Process unlocked */
    __HAL_UNLOCK(hadc);
 8003aca:	687b      	ldr	r3, [r7, #4]
 8003acc:	2200      	movs	r2, #0
 8003ace:	f883 2024 	strb.w	r2, [r3, #36]	; 0x24
    
    return HAL_ERROR;
 8003ad2:	2301      	movs	r3, #1
 8003ad4:	e0d3      	b.n	8003c7e <HAL_ADC_PollForConversion+0x1ea>
  /*    from ADC conversion time (selected sampling time + conversion time of */
  /*    12.5 ADC clock cycles) and APB2/ADC clock prescalers (depending on    */
  /*    settings, conversion time range can be from 28 to 32256 CPU cycles).  */
  /*    As flag EOC is not set after each conversion, no timeout status can   */
  /*    be set.                                                               */
  if (HAL_IS_BIT_CLR(hadc->Instance->CR1, ADC_CR1_SCAN) &&
 8003ad6:	687b      	ldr	r3, [r7, #4]
 8003ad8:	681b      	ldr	r3, [r3, #0]
 8003ada:	685b      	ldr	r3, [r3, #4]
 8003adc:	f403 7380 	and.w	r3, r3, #256	; 0x100
 8003ae0:	2b00      	cmp	r3, #0
 8003ae2:	d131      	bne.n	8003b48 <HAL_ADC_PollForConversion+0xb4>
      HAL_IS_BIT_CLR(hadc->Instance->SQR1, ADC_SQR1_L)    )
 8003ae4:	687b      	ldr	r3, [r7, #4]
 8003ae6:	681b      	ldr	r3, [r3, #0]
 8003ae8:	6adb      	ldr	r3, [r3, #44]	; 0x2c
 8003aea:	f403 0370 	and.w	r3, r3, #15728640	; 0xf00000
  if (HAL_IS_BIT_CLR(hadc->Instance->CR1, ADC_CR1_SCAN) &&
 8003aee:	2b00      	cmp	r3, #0
 8003af0:	d12a      	bne.n	8003b48 <HAL_ADC_PollForConversion+0xb4>
  {
    /* Wait until End of Conversion flag is raised */
    while(HAL_IS_BIT_CLR(hadc->Instance->SR, ADC_FLAG_EOC))
 8003af2:	e021      	b.n	8003b38 <HAL_ADC_PollForConversion+0xa4>
    {
      /* Check if timeout is disabled (set to infinite wait) */
      if(Timeout != HAL_MAX_DELAY)
 8003af4:	683b      	ldr	r3, [r7, #0]
 8003af6:	f1b3 3fff 	cmp.w	r3, #4294967295
 8003afa:	d01d      	beq.n	8003b38 <HAL_ADC_PollForConversion+0xa4>
      {
        if((Timeout == 0U) || ((HAL_GetTick() - tickstart ) > Timeout))
 8003afc:	683b      	ldr	r3, [r7, #0]
 8003afe:	2b00      	cmp	r3, #0
 8003b00:	d007      	beq.n	8003b12 <HAL_ADC_PollForConversion+0x7e>
 8003b02:	f7ff fde7 	bl	80036d4 <HAL_GetTick>
 8003b06:	4602      	mov	r2, r0
 8003b08:	697b      	ldr	r3, [r7, #20]
 8003b0a:	1ad3      	subs	r3, r2, r3
 8003b0c:	683a      	ldr	r2, [r7, #0]
 8003b0e:	429a      	cmp	r2, r3
 8003b10:	d212      	bcs.n	8003b38 <HAL_ADC_PollForConversion+0xa4>
        {
          /* New check to avoid false timeout detection in case of preemption */
          if(HAL_IS_BIT_CLR(hadc->Instance->SR, ADC_FLAG_EOC))
 8003b12:	687b      	ldr	r3, [r7, #4]
 8003b14:	681b      	ldr	r3, [r3, #0]
 8003b16:	681b      	ldr	r3, [r3, #0]
 8003b18:	f003 0302 	and.w	r3, r3, #2
 8003b1c:	2b00      	cmp	r3, #0
 8003b1e:	d10b      	bne.n	8003b38 <HAL_ADC_PollForConversion+0xa4>
          {
            /* Update ADC state machine to timeout */
            SET_BIT(hadc->State, HAL_ADC_STATE_TIMEOUT);
 8003b20:	687b      	ldr	r3, [r7, #4]
 8003b22:	6a9b      	ldr	r3, [r3, #40]	; 0x28
 8003b24:	f043 0204 	orr.w	r2, r3, #4
 8003b28:	687b      	ldr	r3, [r7, #4]
 8003b2a:	629a      	str	r2, [r3, #40]	; 0x28
            
            /* Process unlocked */
            __HAL_UNLOCK(hadc);
 8003b2c:	687b      	ldr	r3, [r7, #4]
 8003b2e:	2200      	movs	r2, #0
 8003b30:	f883 2024 	strb.w	r2, [r3, #36]	; 0x24
            
            return HAL_TIMEOUT;
 8003b34:	2303      	movs	r3, #3
 8003b36:	e0a2      	b.n	8003c7e <HAL_ADC_PollForConversion+0x1ea>
    while(HAL_IS_BIT_CLR(hadc->Instance->SR, ADC_FLAG_EOC))
 8003b38:	687b      	ldr	r3, [r7, #4]
 8003b3a:	681b      	ldr	r3, [r3, #0]
 8003b3c:	681b      	ldr	r3, [r3, #0]
 8003b3e:	f003 0302 	and.w	r3, r3, #2
 8003b42:	2b00      	cmp	r3, #0
 8003b44:	d0d6      	beq.n	8003af4 <HAL_ADC_PollForConversion+0x60>
  if (HAL_IS_BIT_CLR(hadc->Instance->CR1, ADC_CR1_SCAN) &&
 8003b46:	e070      	b.n	8003c2a <HAL_ADC_PollForConversion+0x196>
    /* Replace polling by wait for maximum conversion time */
    /*  - Computation of CPU clock cycles corresponding to ADC clock cycles   */
    /*    and ADC maximum conversion cycles on all channels.                  */
    /*  - Wait for the expected ADC clock cycles delay                        */
    Conversion_Timeout_CPU_cycles_max = ((SystemCoreClock
                                          / HAL_RCCEx_GetPeriphCLKFreq(RCC_PERIPHCLK_ADC))
 8003b48:	4b4f      	ldr	r3, [pc, #316]	; (8003c88 <HAL_ADC_PollForConversion+0x1f4>)
 8003b4a:	681c      	ldr	r4, [r3, #0]
 8003b4c:	2002      	movs	r0, #2
 8003b4e:	f001 fc39 	bl	80053c4 <HAL_RCCEx_GetPeriphCLKFreq>
 8003b52:	4603      	mov	r3, r0
 8003b54:	fbb4 f2f3 	udiv	r2, r4, r3
                                         * ADC_CONVCYCLES_MAX_RANGE(hadc)                 );
 8003b58:	687b      	ldr	r3, [r7, #4]
 8003b5a:	681b      	ldr	r3, [r3, #0]
 8003b5c:	6919      	ldr	r1, [r3, #16]
 8003b5e:	4b4b      	ldr	r3, [pc, #300]	; (8003c8c <HAL_ADC_PollForConversion+0x1f8>)
 8003b60:	400b      	ands	r3, r1
 8003b62:	2b00      	cmp	r3, #0
 8003b64:	d118      	bne.n	8003b98 <HAL_ADC_PollForConversion+0x104>
 8003b66:	687b      	ldr	r3, [r7, #4]
 8003b68:	681b      	ldr	r3, [r3, #0]
 8003b6a:	68d9      	ldr	r1, [r3, #12]
 8003b6c:	4b48      	ldr	r3, [pc, #288]	; (8003c90 <HAL_ADC_PollForConversion+0x1fc>)
 8003b6e:	400b      	ands	r3, r1
 8003b70:	2b00      	cmp	r3, #0
 8003b72:	d111      	bne.n	8003b98 <HAL_ADC_PollForConversion+0x104>
 8003b74:	687b      	ldr	r3, [r7, #4]
 8003b76:	681b      	ldr	r3, [r3, #0]
 8003b78:	6919      	ldr	r1, [r3, #16]
 8003b7a:	4b46      	ldr	r3, [pc, #280]	; (8003c94 <HAL_ADC_PollForConversion+0x200>)
 8003b7c:	400b      	ands	r3, r1
 8003b7e:	2b00      	cmp	r3, #0
 8003b80:	d108      	bne.n	8003b94 <HAL_ADC_PollForConversion+0x100>
 8003b82:	687b      	ldr	r3, [r7, #4]
 8003b84:	681b      	ldr	r3, [r3, #0]
 8003b86:	68d9      	ldr	r1, [r3, #12]
 8003b88:	4b43      	ldr	r3, [pc, #268]	; (8003c98 <HAL_ADC_PollForConversion+0x204>)
 8003b8a:	400b      	ands	r3, r1
 8003b8c:	2b00      	cmp	r3, #0
 8003b8e:	d101      	bne.n	8003b94 <HAL_ADC_PollForConversion+0x100>
 8003b90:	2314      	movs	r3, #20
 8003b92:	e020      	b.n	8003bd6 <HAL_ADC_PollForConversion+0x142>
 8003b94:	2329      	movs	r3, #41	; 0x29
 8003b96:	e01e      	b.n	8003bd6 <HAL_ADC_PollForConversion+0x142>
 8003b98:	687b      	ldr	r3, [r7, #4]
 8003b9a:	681b      	ldr	r3, [r3, #0]
 8003b9c:	6919      	ldr	r1, [r3, #16]
 8003b9e:	4b3d      	ldr	r3, [pc, #244]	; (8003c94 <HAL_ADC_PollForConversion+0x200>)
 8003ba0:	400b      	ands	r3, r1
 8003ba2:	2b00      	cmp	r3, #0
 8003ba4:	d106      	bne.n	8003bb4 <HAL_ADC_PollForConversion+0x120>
 8003ba6:	687b      	ldr	r3, [r7, #4]
 8003ba8:	681b      	ldr	r3, [r3, #0]
 8003baa:	68d9      	ldr	r1, [r3, #12]
 8003bac:	4b3a      	ldr	r3, [pc, #232]	; (8003c98 <HAL_ADC_PollForConversion+0x204>)
 8003bae:	400b      	ands	r3, r1
 8003bb0:	2b00      	cmp	r3, #0
 8003bb2:	d00d      	beq.n	8003bd0 <HAL_ADC_PollForConversion+0x13c>
 8003bb4:	687b      	ldr	r3, [r7, #4]
 8003bb6:	681b      	ldr	r3, [r3, #0]
 8003bb8:	6919      	ldr	r1, [r3, #16]
 8003bba:	4b38      	ldr	r3, [pc, #224]	; (8003c9c <HAL_ADC_PollForConversion+0x208>)
 8003bbc:	400b      	ands	r3, r1
 8003bbe:	2b00      	cmp	r3, #0
 8003bc0:	d108      	bne.n	8003bd4 <HAL_ADC_PollForConversion+0x140>
 8003bc2:	687b      	ldr	r3, [r7, #4]
 8003bc4:	681b      	ldr	r3, [r3, #0]
 8003bc6:	68d9      	ldr	r1, [r3, #12]
 8003bc8:	4b34      	ldr	r3, [pc, #208]	; (8003c9c <HAL_ADC_PollForConversion+0x208>)
 8003bca:	400b      	ands	r3, r1
 8003bcc:	2b00      	cmp	r3, #0
 8003bce:	d101      	bne.n	8003bd4 <HAL_ADC_PollForConversion+0x140>
 8003bd0:	2354      	movs	r3, #84	; 0x54
 8003bd2:	e000      	b.n	8003bd6 <HAL_ADC_PollForConversion+0x142>
 8003bd4:	23fc      	movs	r3, #252	; 0xfc
    Conversion_Timeout_CPU_cycles_max = ((SystemCoreClock
 8003bd6:	fb02 f303 	mul.w	r3, r2, r3
 8003bda:	613b      	str	r3, [r7, #16]
    
    while(Conversion_Timeout_CPU_cycles < Conversion_Timeout_CPU_cycles_max)
 8003bdc:	e021      	b.n	8003c22 <HAL_ADC_PollForConversion+0x18e>
    {
      /* Check if timeout is disabled (set to infinite wait) */
      if(Timeout != HAL_MAX_DELAY)
 8003bde:	683b      	ldr	r3, [r7, #0]
 8003be0:	f1b3 3fff 	cmp.w	r3, #4294967295
 8003be4:	d01a      	beq.n	8003c1c <HAL_ADC_PollForConversion+0x188>
      {
        if((Timeout == 0U) || ((HAL_GetTick() - tickstart) > Timeout))
 8003be6:	683b      	ldr	r3, [r7, #0]
 8003be8:	2b00      	cmp	r3, #0
 8003bea:	d007      	beq.n	8003bfc <HAL_ADC_PollForConversion+0x168>
 8003bec:	f7ff fd72 	bl	80036d4 <HAL_GetTick>
 8003bf0:	4602      	mov	r2, r0
 8003bf2:	697b      	ldr	r3, [r7, #20]
 8003bf4:	1ad3      	subs	r3, r2, r3
 8003bf6:	683a      	ldr	r2, [r7, #0]
 8003bf8:	429a      	cmp	r2, r3
 8003bfa:	d20f      	bcs.n	8003c1c <HAL_ADC_PollForConversion+0x188>
        {
          /* New check to avoid false timeout detection in case of preemption */
          if(Conversion_Timeout_CPU_cycles < Conversion_Timeout_CPU_cycles_max)
 8003bfc:	68fb      	ldr	r3, [r7, #12]
 8003bfe:	693a      	ldr	r2, [r7, #16]
 8003c00:	429a      	cmp	r2, r3
 8003c02:	d90b      	bls.n	8003c1c <HAL_ADC_PollForConversion+0x188>
          {
            /* Update ADC state machine to timeout */
            SET_BIT(hadc->State, HAL_ADC_STATE_TIMEOUT);
 8003c04:	687b      	ldr	r3, [r7, #4]
 8003c06:	6a9b      	ldr	r3, [r3, #40]	; 0x28
 8003c08:	f043 0204 	orr.w	r2, r3, #4
 8003c0c:	687b      	ldr	r3, [r7, #4]
 8003c0e:	629a      	str	r2, [r3, #40]	; 0x28

            /* Process unlocked */
            __HAL_UNLOCK(hadc);
 8003c10:	687b      	ldr	r3, [r7, #4]
 8003c12:	2200      	movs	r2, #0
 8003c14:	f883 2024 	strb.w	r2, [r3, #36]	; 0x24

            return HAL_TIMEOUT;
 8003c18:	2303      	movs	r3, #3
 8003c1a:	e030      	b.n	8003c7e <HAL_ADC_PollForConversion+0x1ea>
          }
        }
      }
      Conversion_Timeout_CPU_cycles ++;
 8003c1c:	68fb      	ldr	r3, [r7, #12]
 8003c1e:	3301      	adds	r3, #1
 8003c20:	60fb      	str	r3, [r7, #12]
    while(Conversion_Timeout_CPU_cycles < Conversion_Timeout_CPU_cycles_max)
 8003c22:	68fb      	ldr	r3, [r7, #12]
 8003c24:	693a      	ldr	r2, [r7, #16]
 8003c26:	429a      	cmp	r2, r3
 8003c28:	d8d9      	bhi.n	8003bde <HAL_ADC_PollForConversion+0x14a>
    }
  }
  
  /* Clear regular group conversion flag */
  __HAL_ADC_CLEAR_FLAG(hadc, ADC_FLAG_STRT | ADC_FLAG_EOC);
 8003c2a:	687b      	ldr	r3, [r7, #4]
 8003c2c:	681b      	ldr	r3, [r3, #0]
 8003c2e:	f06f 0212 	mvn.w	r2, #18
 8003c32:	601a      	str	r2, [r3, #0]
  
  /* Update ADC state machine */
  SET_BIT(hadc->State, HAL_ADC_STATE_REG_EOC);
 8003c34:	687b      	ldr	r3, [r7, #4]
 8003c36:	6a9b      	ldr	r3, [r3, #40]	; 0x28
 8003c38:	f443 7200 	orr.w	r2, r3, #512	; 0x200
 8003c3c:	687b      	ldr	r3, [r7, #4]
 8003c3e:	629a      	str	r2, [r3, #40]	; 0x28
  /* Determine whether any further conversion upcoming on group regular       */
  /* by external trigger, continuous mode or scan sequence on going.          */
  /* Note: On STM32F1 devices, in case of sequencer enabled                   */
  /*       (several ranks selected), end of conversion flag is raised         */
  /*       at the end of the sequence.                                        */
  if(ADC_IS_SOFTWARE_START_REGULAR(hadc)        && 
 8003c40:	687b      	ldr	r3, [r7, #4]
 8003c42:	681b      	ldr	r3, [r3, #0]
 8003c44:	689b      	ldr	r3, [r3, #8]
 8003c46:	f403 2360 	and.w	r3, r3, #917504	; 0xe0000
 8003c4a:	f5b3 2f60 	cmp.w	r3, #917504	; 0xe0000
 8003c4e:	d115      	bne.n	8003c7c <HAL_ADC_PollForConversion+0x1e8>
     (hadc->Init.ContinuousConvMode == DISABLE)   )
 8003c50:	687b      	ldr	r3, [r7, #4]
 8003c52:	7b1b      	ldrb	r3, [r3, #12]
  if(ADC_IS_SOFTWARE_START_REGULAR(hadc)        && 
 8003c54:	2b00      	cmp	r3, #0
 8003c56:	d111      	bne.n	8003c7c <HAL_ADC_PollForConversion+0x1e8>
  {   
    /* Set ADC state */
    CLEAR_BIT(hadc->State, HAL_ADC_STATE_REG_BUSY);   
 8003c58:	687b      	ldr	r3, [r7, #4]
 8003c5a:	6a9b      	ldr	r3, [r3, #40]	; 0x28
 8003c5c:	f423 7280 	bic.w	r2, r3, #256	; 0x100
 8003c60:	687b      	ldr	r3, [r7, #4]
 8003c62:	629a      	str	r2, [r3, #40]	; 0x28

    if (HAL_IS_BIT_CLR(hadc->State, HAL_ADC_STATE_INJ_BUSY))
 8003c64:	687b      	ldr	r3, [r7, #4]
 8003c66:	6a9b      	ldr	r3, [r3, #40]	; 0x28
 8003c68:	f403 5380 	and.w	r3, r3, #4096	; 0x1000
 8003c6c:	2b00      	cmp	r3, #0
 8003c6e:	d105      	bne.n	8003c7c <HAL_ADC_PollForConversion+0x1e8>
    { 
      SET_BIT(hadc->State, HAL_ADC_STATE_READY);
 8003c70:	687b      	ldr	r3, [r7, #4]
 8003c72:	6a9b      	ldr	r3, [r3, #40]	; 0x28
 8003c74:	f043 0201 	orr.w	r2, r3, #1
 8003c78:	687b      	ldr	r3, [r7, #4]
 8003c7a:	629a      	str	r2, [r3, #40]	; 0x28
    }
  }
  
  /* Return ADC state */
  return HAL_OK;
 8003c7c:	2300      	movs	r3, #0
}
 8003c7e:	4618      	mov	r0, r3
 8003c80:	371c      	adds	r7, #28
 8003c82:	46bd      	mov	sp, r7
 8003c84:	bd90      	pop	{r4, r7, pc}
 8003c86:	bf00      	nop
 8003c88:	20000010 	.word	0x20000010
 8003c8c:	24924924 	.word	0x24924924
 8003c90:	00924924 	.word	0x00924924
 8003c94:	12492492 	.word	0x12492492
 8003c98:	00492492 	.word	0x00492492
 8003c9c:	00249249 	.word	0x00249249

08003ca0 <HAL_ADC_GetValue>:
  *         or @ref __HAL_ADC_CLEAR_FLAG(&hadc, ADC_FLAG_EOS).
  * @param  hadc: ADC handle
  * @retval ADC group regular conversion data
  */
uint32_t HAL_ADC_GetValue(ADC_HandleTypeDef* hadc)
{
 8003ca0:	b480      	push	{r7}
 8003ca2:	b083      	sub	sp, #12
 8003ca4:	af00      	add	r7, sp, #0
 8003ca6:	6078      	str	r0, [r7, #4]

  /* Note: EOC flag is not cleared here by software because automatically     */
  /*       cleared by hardware when reading register DR.                      */
  
  /* Return ADC converted value */ 
  return hadc->Instance->DR;
 8003ca8:	687b      	ldr	r3, [r7, #4]
 8003caa:	681b      	ldr	r3, [r3, #0]
 8003cac:	6cdb      	ldr	r3, [r3, #76]	; 0x4c
}
 8003cae:	4618      	mov	r0, r3
 8003cb0:	370c      	adds	r7, #12
 8003cb2:	46bd      	mov	sp, r7
 8003cb4:	bc80      	pop	{r7}
 8003cb6:	4770      	bx	lr

08003cb8 <HAL_ADC_IRQHandler>:
  * @brief  Handles ADC interrupt request  
  * @param  hadc: ADC handle
  * @retval None
  */
void HAL_ADC_IRQHandler(ADC_HandleTypeDef* hadc)
{
 8003cb8:	b580      	push	{r7, lr}
 8003cba:	b082      	sub	sp, #8
 8003cbc:	af00      	add	r7, sp, #0
 8003cbe:	6078      	str	r0, [r7, #4]
  assert_param(IS_FUNCTIONAL_STATE(hadc->Init.ContinuousConvMode));
  assert_param(IS_ADC_REGULAR_NB_CONV(hadc->Init.NbrOfConversion));
  
  
  /* ========== Check End of Conversion flag for regular group ========== */
  if(__HAL_ADC_GET_IT_SOURCE(hadc, ADC_IT_EOC))
 8003cc0:	687b      	ldr	r3, [r7, #4]
 8003cc2:	681b      	ldr	r3, [r3, #0]
 8003cc4:	685b      	ldr	r3, [r3, #4]
 8003cc6:	f003 0320 	and.w	r3, r3, #32
 8003cca:	2b20      	cmp	r3, #32
 8003ccc:	d140      	bne.n	8003d50 <HAL_ADC_IRQHandler+0x98>
  {
    if(__HAL_ADC_GET_FLAG(hadc, ADC_FLAG_EOC) )
 8003cce:	687b      	ldr	r3, [r7, #4]
 8003cd0:	681b      	ldr	r3, [r3, #0]
 8003cd2:	681b      	ldr	r3, [r3, #0]
 8003cd4:	f003 0302 	and.w	r3, r3, #2
 8003cd8:	2b02      	cmp	r3, #2
 8003cda:	d139      	bne.n	8003d50 <HAL_ADC_IRQHandler+0x98>
    {
      /* Update state machine on conversion status if not in error state */
      if (HAL_IS_BIT_CLR(hadc->State, HAL_ADC_STATE_ERROR_INTERNAL))
 8003cdc:	687b      	ldr	r3, [r7, #4]
 8003cde:	6a9b      	ldr	r3, [r3, #40]	; 0x28
 8003ce0:	f003 0310 	and.w	r3, r3, #16
 8003ce4:	2b00      	cmp	r3, #0
 8003ce6:	d105      	bne.n	8003cf4 <HAL_ADC_IRQHandler+0x3c>
      {
        /* Set ADC state */
        SET_BIT(hadc->State, HAL_ADC_STATE_REG_EOC); 
 8003ce8:	687b      	ldr	r3, [r7, #4]
 8003cea:	6a9b      	ldr	r3, [r3, #40]	; 0x28
 8003cec:	f443 7200 	orr.w	r2, r3, #512	; 0x200
 8003cf0:	687b      	ldr	r3, [r7, #4]
 8003cf2:	629a      	str	r2, [r3, #40]	; 0x28
      /* Determine whether any further conversion upcoming on group regular   */
      /* by external trigger, continuous mode or scan sequence on going.      */
      /* Note: On STM32F1 devices, in case of sequencer enabled               */
      /*       (several ranks selected), end of conversion flag is raised     */
      /*       at the end of the sequence.                                    */
      if(ADC_IS_SOFTWARE_START_REGULAR(hadc)        && 
 8003cf4:	687b      	ldr	r3, [r7, #4]
 8003cf6:	681b      	ldr	r3, [r3, #0]
 8003cf8:	689b      	ldr	r3, [r3, #8]
 8003cfa:	f403 2360 	and.w	r3, r3, #917504	; 0xe0000
 8003cfe:	f5b3 2f60 	cmp.w	r3, #917504	; 0xe0000
 8003d02:	d11d      	bne.n	8003d40 <HAL_ADC_IRQHandler+0x88>
         (hadc->Init.ContinuousConvMode == DISABLE)   )
 8003d04:	687b      	ldr	r3, [r7, #4]
 8003d06:	7b1b      	ldrb	r3, [r3, #12]
      if(ADC_IS_SOFTWARE_START_REGULAR(hadc)        && 
 8003d08:	2b00      	cmp	r3, #0
 8003d0a:	d119      	bne.n	8003d40 <HAL_ADC_IRQHandler+0x88>
      {
        /* Disable ADC end of conversion interrupt on group regular */
        __HAL_ADC_DISABLE_IT(hadc, ADC_IT_EOC);
 8003d0c:	687b      	ldr	r3, [r7, #4]
 8003d0e:	681b      	ldr	r3, [r3, #0]
 8003d10:	685a      	ldr	r2, [r3, #4]
 8003d12:	687b      	ldr	r3, [r7, #4]
 8003d14:	681b      	ldr	r3, [r3, #0]
 8003d16:	f022 0220 	bic.w	r2, r2, #32
 8003d1a:	605a      	str	r2, [r3, #4]
        
        /* Set ADC state */
        CLEAR_BIT(hadc->State, HAL_ADC_STATE_REG_BUSY);   
 8003d1c:	687b      	ldr	r3, [r7, #4]
 8003d1e:	6a9b      	ldr	r3, [r3, #40]	; 0x28
 8003d20:	f423 7280 	bic.w	r2, r3, #256	; 0x100
 8003d24:	687b      	ldr	r3, [r7, #4]
 8003d26:	629a      	str	r2, [r3, #40]	; 0x28
        
        if (HAL_IS_BIT_CLR(hadc->State, HAL_ADC_STATE_INJ_BUSY))
 8003d28:	687b      	ldr	r3, [r7, #4]
 8003d2a:	6a9b      	ldr	r3, [r3, #40]	; 0x28
 8003d2c:	f403 5380 	and.w	r3, r3, #4096	; 0x1000
 8003d30:	2b00      	cmp	r3, #0
 8003d32:	d105      	bne.n	8003d40 <HAL_ADC_IRQHandler+0x88>
        {
          SET_BIT(hadc->State, HAL_ADC_STATE_READY);
 8003d34:	687b      	ldr	r3, [r7, #4]
 8003d36:	6a9b      	ldr	r3, [r3, #40]	; 0x28
 8003d38:	f043 0201 	orr.w	r2, r3, #1
 8003d3c:	687b      	ldr	r3, [r7, #4]
 8003d3e:	629a      	str	r2, [r3, #40]	; 0x28

      /* Conversion complete callback */
#if (USE_HAL_ADC_REGISTER_CALLBACKS == 1)
      hadc->ConvCpltCallback(hadc);
#else
      HAL_ADC_ConvCpltCallback(hadc);
 8003d40:	6878      	ldr	r0, [r7, #4]
 8003d42:	f000 f87c 	bl	8003e3e <HAL_ADC_ConvCpltCallback>
#endif /* USE_HAL_ADC_REGISTER_CALLBACKS */
      
      /* Clear regular group conversion flag */
      __HAL_ADC_CLEAR_FLAG(hadc, ADC_FLAG_STRT | ADC_FLAG_EOC);
 8003d46:	687b      	ldr	r3, [r7, #4]
 8003d48:	681b      	ldr	r3, [r3, #0]
 8003d4a:	f06f 0212 	mvn.w	r2, #18
 8003d4e:	601a      	str	r2, [r3, #0]
    }
  }
  
  /* ========== Check End of Conversion flag for injected group ========== */
  if(__HAL_ADC_GET_IT_SOURCE(hadc, ADC_IT_JEOC))
 8003d50:	687b      	ldr	r3, [r7, #4]
 8003d52:	681b      	ldr	r3, [r3, #0]
 8003d54:	685b      	ldr	r3, [r3, #4]
 8003d56:	f003 0380 	and.w	r3, r3, #128	; 0x80
 8003d5a:	2b80      	cmp	r3, #128	; 0x80
 8003d5c:	d14f      	bne.n	8003dfe <HAL_ADC_IRQHandler+0x146>
  {
    if(__HAL_ADC_GET_FLAG(hadc, ADC_FLAG_JEOC))
 8003d5e:	687b      	ldr	r3, [r7, #4]
 8003d60:	681b      	ldr	r3, [r3, #0]
 8003d62:	681b      	ldr	r3, [r3, #0]
 8003d64:	f003 0304 	and.w	r3, r3, #4
 8003d68:	2b04      	cmp	r3, #4
 8003d6a:	d148      	bne.n	8003dfe <HAL_ADC_IRQHandler+0x146>
    {
      /* Update state machine on conversion status if not in error state */
      if (HAL_IS_BIT_CLR(hadc->State, HAL_ADC_STATE_ERROR_INTERNAL))
 8003d6c:	687b      	ldr	r3, [r7, #4]
 8003d6e:	6a9b      	ldr	r3, [r3, #40]	; 0x28
 8003d70:	f003 0310 	and.w	r3, r3, #16
 8003d74:	2b00      	cmp	r3, #0
 8003d76:	d105      	bne.n	8003d84 <HAL_ADC_IRQHandler+0xcc>
      {
        /* Set ADC state */
        SET_BIT(hadc->State, HAL_ADC_STATE_INJ_EOC);
 8003d78:	687b      	ldr	r3, [r7, #4]
 8003d7a:	6a9b      	ldr	r3, [r3, #40]	; 0x28
 8003d7c:	f443 5200 	orr.w	r2, r3, #8192	; 0x2000
 8003d80:	687b      	ldr	r3, [r7, #4]
 8003d82:	629a      	str	r2, [r3, #40]	; 0x28
      /* conversion from group regular (same conditions as group regular      */
      /* interruption disabling above).                                       */
      /* Note: On STM32F1 devices, in case of sequencer enabled               */
      /*       (several ranks selected), end of conversion flag is raised     */
      /*       at the end of the sequence.                                    */
      if(ADC_IS_SOFTWARE_START_INJECTED(hadc)                     || 
 8003d84:	687b      	ldr	r3, [r7, #4]
 8003d86:	681b      	ldr	r3, [r3, #0]
 8003d88:	689b      	ldr	r3, [r3, #8]
 8003d8a:	f403 43e0 	and.w	r3, r3, #28672	; 0x7000
 8003d8e:	f5b3 4fe0 	cmp.w	r3, #28672	; 0x7000
 8003d92:	d012      	beq.n	8003dba <HAL_ADC_IRQHandler+0x102>
         (HAL_IS_BIT_CLR(hadc->Instance->CR1, ADC_CR1_JAUTO) &&     
 8003d94:	687b      	ldr	r3, [r7, #4]
 8003d96:	681b      	ldr	r3, [r3, #0]
 8003d98:	685b      	ldr	r3, [r3, #4]
 8003d9a:	f403 6380 	and.w	r3, r3, #1024	; 0x400
      if(ADC_IS_SOFTWARE_START_INJECTED(hadc)                     || 
 8003d9e:	2b00      	cmp	r3, #0
 8003da0:	d125      	bne.n	8003dee <HAL_ADC_IRQHandler+0x136>
         (ADC_IS_SOFTWARE_START_REGULAR(hadc)        &&
 8003da2:	687b      	ldr	r3, [r7, #4]
 8003da4:	681b      	ldr	r3, [r3, #0]
 8003da6:	689b      	ldr	r3, [r3, #8]
 8003da8:	f403 2360 	and.w	r3, r3, #917504	; 0xe0000
         (HAL_IS_BIT_CLR(hadc->Instance->CR1, ADC_CR1_JAUTO) &&     
 8003dac:	f5b3 2f60 	cmp.w	r3, #917504	; 0xe0000
 8003db0:	d11d      	bne.n	8003dee <HAL_ADC_IRQHandler+0x136>
          (hadc->Init.ContinuousConvMode == DISABLE)   )        )   )
 8003db2:	687b      	ldr	r3, [r7, #4]
 8003db4:	7b1b      	ldrb	r3, [r3, #12]
         (ADC_IS_SOFTWARE_START_REGULAR(hadc)        &&
 8003db6:	2b00      	cmp	r3, #0
 8003db8:	d119      	bne.n	8003dee <HAL_ADC_IRQHandler+0x136>
      {
        /* Disable ADC end of conversion interrupt on group injected */
        __HAL_ADC_DISABLE_IT(hadc, ADC_IT_JEOC);
 8003dba:	687b      	ldr	r3, [r7, #4]
 8003dbc:	681b      	ldr	r3, [r3, #0]
 8003dbe:	685a      	ldr	r2, [r3, #4]
 8003dc0:	687b      	ldr	r3, [r7, #4]
 8003dc2:	681b      	ldr	r3, [r3, #0]
 8003dc4:	f022 0280 	bic.w	r2, r2, #128	; 0x80
 8003dc8:	605a      	str	r2, [r3, #4]
        
        /* Set ADC state */
        CLEAR_BIT(hadc->State, HAL_ADC_STATE_INJ_BUSY);   
 8003dca:	687b      	ldr	r3, [r7, #4]
 8003dcc:	6a9b      	ldr	r3, [r3, #40]	; 0x28
 8003dce:	f423 5280 	bic.w	r2, r3, #4096	; 0x1000
 8003dd2:	687b      	ldr	r3, [r7, #4]
 8003dd4:	629a      	str	r2, [r3, #40]	; 0x28

        if (HAL_IS_BIT_CLR(hadc->State, HAL_ADC_STATE_REG_BUSY))
 8003dd6:	687b      	ldr	r3, [r7, #4]
 8003dd8:	6a9b      	ldr	r3, [r3, #40]	; 0x28
 8003dda:	f403 7380 	and.w	r3, r3, #256	; 0x100
 8003dde:	2b00      	cmp	r3, #0
 8003de0:	d105      	bne.n	8003dee <HAL_ADC_IRQHandler+0x136>
        { 
          SET_BIT(hadc->State, HAL_ADC_STATE_READY);
 8003de2:	687b      	ldr	r3, [r7, #4]
 8003de4:	6a9b      	ldr	r3, [r3, #40]	; 0x28
 8003de6:	f043 0201 	orr.w	r2, r3, #1
 8003dea:	687b      	ldr	r3, [r7, #4]
 8003dec:	629a      	str	r2, [r3, #40]	; 0x28

      /* Conversion complete callback */ 
#if (USE_HAL_ADC_REGISTER_CALLBACKS == 1)
      hadc->InjectedConvCpltCallback(hadc);
#else
      HAL_ADCEx_InjectedConvCpltCallback(hadc);
 8003dee:	6878      	ldr	r0, [r7, #4]
 8003df0:	f000 fa78 	bl	80042e4 <HAL_ADCEx_InjectedConvCpltCallback>
#endif /* USE_HAL_ADC_REGISTER_CALLBACKS */
      
      /* Clear injected group conversion flag */
      __HAL_ADC_CLEAR_FLAG(hadc, (ADC_FLAG_JSTRT | ADC_FLAG_JEOC));
 8003df4:	687b      	ldr	r3, [r7, #4]
 8003df6:	681b      	ldr	r3, [r3, #0]
 8003df8:	f06f 020c 	mvn.w	r2, #12
 8003dfc:	601a      	str	r2, [r3, #0]
    }
  }
   
  /* ========== Check Analog watchdog flags ========== */
  if(__HAL_ADC_GET_IT_SOURCE(hadc, ADC_IT_AWD))
 8003dfe:	687b      	ldr	r3, [r7, #4]
 8003e00:	681b      	ldr	r3, [r3, #0]
 8003e02:	685b      	ldr	r3, [r3, #4]
 8003e04:	f003 0340 	and.w	r3, r3, #64	; 0x40
 8003e08:	2b40      	cmp	r3, #64	; 0x40
 8003e0a:	d114      	bne.n	8003e36 <HAL_ADC_IRQHandler+0x17e>
  {
    if(__HAL_ADC_GET_FLAG(hadc, ADC_FLAG_AWD))
 8003e0c:	687b      	ldr	r3, [r7, #4]
 8003e0e:	681b      	ldr	r3, [r3, #0]
 8003e10:	681b      	ldr	r3, [r3, #0]
 8003e12:	f003 0301 	and.w	r3, r3, #1
 8003e16:	2b01      	cmp	r3, #1
 8003e18:	d10d      	bne.n	8003e36 <HAL_ADC_IRQHandler+0x17e>
    {
      /* Set ADC state */
      SET_BIT(hadc->State, HAL_ADC_STATE_AWD1);
 8003e1a:	687b      	ldr	r3, [r7, #4]
 8003e1c:	6a9b      	ldr	r3, [r3, #40]	; 0x28
 8003e1e:	f443 3280 	orr.w	r2, r3, #65536	; 0x10000
 8003e22:	687b      	ldr	r3, [r7, #4]
 8003e24:	629a      	str	r2, [r3, #40]	; 0x28
      
      /* Level out of window callback */ 
#if (USE_HAL_ADC_REGISTER_CALLBACKS == 1)
      hadc->LevelOutOfWindowCallback(hadc);
#else
      HAL_ADC_LevelOutOfWindowCallback(hadc);
 8003e26:	6878      	ldr	r0, [r7, #4]
 8003e28:	f000 f812 	bl	8003e50 <HAL_ADC_LevelOutOfWindowCallback>
#endif /* USE_HAL_ADC_REGISTER_CALLBACKS */
      
      /* Clear the ADC analog watchdog flag */
      __HAL_ADC_CLEAR_FLAG(hadc, ADC_FLAG_AWD);
 8003e2c:	687b      	ldr	r3, [r7, #4]
 8003e2e:	681b      	ldr	r3, [r3, #0]
 8003e30:	f06f 0201 	mvn.w	r2, #1
 8003e34:	601a      	str	r2, [r3, #0]
    }
  }
  
}
 8003e36:	bf00      	nop
 8003e38:	3708      	adds	r7, #8
 8003e3a:	46bd      	mov	sp, r7
 8003e3c:	bd80      	pop	{r7, pc}

08003e3e <HAL_ADC_ConvCpltCallback>:
  * @brief  Conversion complete callback in non blocking mode 
  * @param  hadc: ADC handle
  * @retval None
  */
__weak void HAL_ADC_ConvCpltCallback(ADC_HandleTypeDef* hadc)
{
 8003e3e:	b480      	push	{r7}
 8003e40:	b083      	sub	sp, #12
 8003e42:	af00      	add	r7, sp, #0
 8003e44:	6078      	str	r0, [r7, #4]
  /* Prevent unused argument(s) compilation warning */
  UNUSED(hadc);
  /* NOTE : This function should not be modified. When the callback is needed,
            function HAL_ADC_ConvCpltCallback must be implemented in the user file.
   */
}
 8003e46:	bf00      	nop
 8003e48:	370c      	adds	r7, #12
 8003e4a:	46bd      	mov	sp, r7
 8003e4c:	bc80      	pop	{r7}
 8003e4e:	4770      	bx	lr

08003e50 <HAL_ADC_LevelOutOfWindowCallback>:
  * @brief  Analog watchdog callback in non blocking mode. 
  * @param  hadc: ADC handle
  * @retval None
  */
__weak void HAL_ADC_LevelOutOfWindowCallback(ADC_HandleTypeDef* hadc)
{
 8003e50:	b480      	push	{r7}
 8003e52:	b083      	sub	sp, #12
 8003e54:	af00      	add	r7, sp, #0
 8003e56:	6078      	str	r0, [r7, #4]
  /* Prevent unused argument(s) compilation warning */
  UNUSED(hadc);
  /* NOTE : This function should not be modified. When the callback is needed,
            function HAL_ADC_LevelOutOfWindowCallback must be implemented in the user file.
  */
}
 8003e58:	bf00      	nop
 8003e5a:	370c      	adds	r7, #12
 8003e5c:	46bd      	mov	sp, r7
 8003e5e:	bc80      	pop	{r7}
 8003e60:	4770      	bx	lr
	...

08003e64 <HAL_ADC_ConfigChannel>:
  * @param  hadc: ADC handle
  * @param  sConfig: Structure of ADC channel for regular group.
  * @retval HAL status
  */
HAL_StatusTypeDef HAL_ADC_ConfigChannel(ADC_HandleTypeDef* hadc, ADC_ChannelConfTypeDef* sConfig)
{ 
 8003e64:	b480      	push	{r7}
 8003e66:	b085      	sub	sp, #20
 8003e68:	af00      	add	r7, sp, #0
 8003e6a:	6078      	str	r0, [r7, #4]
 8003e6c:	6039      	str	r1, [r7, #0]
  HAL_StatusTypeDef tmp_hal_status = HAL_OK;
 8003e6e:	2300      	movs	r3, #0
 8003e70:	73fb      	strb	r3, [r7, #15]
  __IO uint32_t wait_loop_index = 0U;
 8003e72:	2300      	movs	r3, #0
 8003e74:	60bb      	str	r3, [r7, #8]
  assert_param(IS_ADC_CHANNEL(sConfig->Channel));
  assert_param(IS_ADC_REGULAR_RANK(sConfig->Rank));
  assert_param(IS_ADC_SAMPLE_TIME(sConfig->SamplingTime));
  
  /* Process locked */
  __HAL_LOCK(hadc);
 8003e76:	687b      	ldr	r3, [r7, #4]
 8003e78:	f893 3024 	ldrb.w	r3, [r3, #36]	; 0x24
 8003e7c:	2b01      	cmp	r3, #1
 8003e7e:	d101      	bne.n	8003e84 <HAL_ADC_ConfigChannel+0x20>
 8003e80:	2302      	movs	r3, #2
 8003e82:	e0dc      	b.n	800403e <HAL_ADC_ConfigChannel+0x1da>
 8003e84:	687b      	ldr	r3, [r7, #4]
 8003e86:	2201      	movs	r2, #1
 8003e88:	f883 2024 	strb.w	r2, [r3, #36]	; 0x24
  
  
  /* Regular sequence configuration */
  /* For Rank 1 to 6 */
  if (sConfig->Rank < 7U)
 8003e8c:	683b      	ldr	r3, [r7, #0]
 8003e8e:	685b      	ldr	r3, [r3, #4]
 8003e90:	2b06      	cmp	r3, #6
 8003e92:	d81c      	bhi.n	8003ece <HAL_ADC_ConfigChannel+0x6a>
  {
    MODIFY_REG(hadc->Instance->SQR3                        ,
 8003e94:	687b      	ldr	r3, [r7, #4]
 8003e96:	681b      	ldr	r3, [r3, #0]
 8003e98:	6b59      	ldr	r1, [r3, #52]	; 0x34
 8003e9a:	683b      	ldr	r3, [r7, #0]
 8003e9c:	685a      	ldr	r2, [r3, #4]
 8003e9e:	4613      	mov	r3, r2
 8003ea0:	009b      	lsls	r3, r3, #2
 8003ea2:	4413      	add	r3, r2
 8003ea4:	3b05      	subs	r3, #5
 8003ea6:	221f      	movs	r2, #31
 8003ea8:	fa02 f303 	lsl.w	r3, r2, r3
 8003eac:	43db      	mvns	r3, r3
 8003eae:	4019      	ands	r1, r3
 8003eb0:	683b      	ldr	r3, [r7, #0]
 8003eb2:	6818      	ldr	r0, [r3, #0]
 8003eb4:	683b      	ldr	r3, [r7, #0]
 8003eb6:	685a      	ldr	r2, [r3, #4]
 8003eb8:	4613      	mov	r3, r2
 8003eba:	009b      	lsls	r3, r3, #2
 8003ebc:	4413      	add	r3, r2
 8003ebe:	3b05      	subs	r3, #5
 8003ec0:	fa00 f203 	lsl.w	r2, r0, r3
 8003ec4:	687b      	ldr	r3, [r7, #4]
 8003ec6:	681b      	ldr	r3, [r3, #0]
 8003ec8:	430a      	orrs	r2, r1
 8003eca:	635a      	str	r2, [r3, #52]	; 0x34
 8003ecc:	e03c      	b.n	8003f48 <HAL_ADC_ConfigChannel+0xe4>
               ADC_SQR3_RK(ADC_SQR3_SQ1, sConfig->Rank)    ,
               ADC_SQR3_RK(sConfig->Channel, sConfig->Rank) );
  }
  /* For Rank 7 to 12 */
  else if (sConfig->Rank < 13U)
 8003ece:	683b      	ldr	r3, [r7, #0]
 8003ed0:	685b      	ldr	r3, [r3, #4]
 8003ed2:	2b0c      	cmp	r3, #12
 8003ed4:	d81c      	bhi.n	8003f10 <HAL_ADC_ConfigChannel+0xac>
  {
    MODIFY_REG(hadc->Instance->SQR2                        ,
 8003ed6:	687b      	ldr	r3, [r7, #4]
 8003ed8:	681b      	ldr	r3, [r3, #0]
 8003eda:	6b19      	ldr	r1, [r3, #48]	; 0x30
 8003edc:	683b      	ldr	r3, [r7, #0]
 8003ede:	685a      	ldr	r2, [r3, #4]
 8003ee0:	4613      	mov	r3, r2
 8003ee2:	009b      	lsls	r3, r3, #2
 8003ee4:	4413      	add	r3, r2
 8003ee6:	3b23      	subs	r3, #35	; 0x23
 8003ee8:	221f      	movs	r2, #31
 8003eea:	fa02 f303 	lsl.w	r3, r2, r3
 8003eee:	43db      	mvns	r3, r3
 8003ef0:	4019      	ands	r1, r3
 8003ef2:	683b      	ldr	r3, [r7, #0]
 8003ef4:	6818      	ldr	r0, [r3, #0]
 8003ef6:	683b      	ldr	r3, [r7, #0]
 8003ef8:	685a      	ldr	r2, [r3, #4]
 8003efa:	4613      	mov	r3, r2
 8003efc:	009b      	lsls	r3, r3, #2
 8003efe:	4413      	add	r3, r2
 8003f00:	3b23      	subs	r3, #35	; 0x23
 8003f02:	fa00 f203 	lsl.w	r2, r0, r3
 8003f06:	687b      	ldr	r3, [r7, #4]
 8003f08:	681b      	ldr	r3, [r3, #0]
 8003f0a:	430a      	orrs	r2, r1
 8003f0c:	631a      	str	r2, [r3, #48]	; 0x30
 8003f0e:	e01b      	b.n	8003f48 <HAL_ADC_ConfigChannel+0xe4>
               ADC_SQR2_RK(sConfig->Channel, sConfig->Rank) );
  }
  /* For Rank 13 to 16 */
  else
  {
    MODIFY_REG(hadc->Instance->SQR1                        ,
 8003f10:	687b      	ldr	r3, [r7, #4]
 8003f12:	681b      	ldr	r3, [r3, #0]
 8003f14:	6ad9      	ldr	r1, [r3, #44]	; 0x2c
 8003f16:	683b      	ldr	r3, [r7, #0]
 8003f18:	685a      	ldr	r2, [r3, #4]
 8003f1a:	4613      	mov	r3, r2
 8003f1c:	009b      	lsls	r3, r3, #2
 8003f1e:	4413      	add	r3, r2
 8003f20:	3b41      	subs	r3, #65	; 0x41
 8003f22:	221f      	movs	r2, #31
 8003f24:	fa02 f303 	lsl.w	r3, r2, r3
 8003f28:	43db      	mvns	r3, r3
 8003f2a:	4019      	ands	r1, r3
 8003f2c:	683b      	ldr	r3, [r7, #0]
 8003f2e:	6818      	ldr	r0, [r3, #0]
 8003f30:	683b      	ldr	r3, [r7, #0]
 8003f32:	685a      	ldr	r2, [r3, #4]
 8003f34:	4613      	mov	r3, r2
 8003f36:	009b      	lsls	r3, r3, #2
 8003f38:	4413      	add	r3, r2
 8003f3a:	3b41      	subs	r3, #65	; 0x41
 8003f3c:	fa00 f203 	lsl.w	r2, r0, r3
 8003f40:	687b      	ldr	r3, [r7, #4]
 8003f42:	681b      	ldr	r3, [r3, #0]
 8003f44:	430a      	orrs	r2, r1
 8003f46:	62da      	str	r2, [r3, #44]	; 0x2c
  }
  
  
  /* Channel sampling time configuration */
  /* For channels 10 to 17 */
  if (sConfig->Channel >= ADC_CHANNEL_10)
 8003f48:	683b      	ldr	r3, [r7, #0]
 8003f4a:	681b      	ldr	r3, [r3, #0]
 8003f4c:	2b09      	cmp	r3, #9
 8003f4e:	d91c      	bls.n	8003f8a <HAL_ADC_ConfigChannel+0x126>
  {
    MODIFY_REG(hadc->Instance->SMPR1                             ,
 8003f50:	687b      	ldr	r3, [r7, #4]
 8003f52:	681b      	ldr	r3, [r3, #0]
 8003f54:	68d9      	ldr	r1, [r3, #12]
 8003f56:	683b      	ldr	r3, [r7, #0]
 8003f58:	681a      	ldr	r2, [r3, #0]
 8003f5a:	4613      	mov	r3, r2
 8003f5c:	005b      	lsls	r3, r3, #1
 8003f5e:	4413      	add	r3, r2
 8003f60:	3b1e      	subs	r3, #30
 8003f62:	2207      	movs	r2, #7
 8003f64:	fa02 f303 	lsl.w	r3, r2, r3
 8003f68:	43db      	mvns	r3, r3
 8003f6a:	4019      	ands	r1, r3
 8003f6c:	683b      	ldr	r3, [r7, #0]
 8003f6e:	6898      	ldr	r0, [r3, #8]
 8003f70:	683b      	ldr	r3, [r7, #0]
 8003f72:	681a      	ldr	r2, [r3, #0]
 8003f74:	4613      	mov	r3, r2
 8003f76:	005b      	lsls	r3, r3, #1
 8003f78:	4413      	add	r3, r2
 8003f7a:	3b1e      	subs	r3, #30
 8003f7c:	fa00 f203 	lsl.w	r2, r0, r3
 8003f80:	687b      	ldr	r3, [r7, #4]
 8003f82:	681b      	ldr	r3, [r3, #0]
 8003f84:	430a      	orrs	r2, r1
 8003f86:	60da      	str	r2, [r3, #12]
 8003f88:	e019      	b.n	8003fbe <HAL_ADC_ConfigChannel+0x15a>
               ADC_SMPR1(ADC_SMPR1_SMP10, sConfig->Channel)      ,
               ADC_SMPR1(sConfig->SamplingTime, sConfig->Channel) );
  }
  else /* For channels 0 to 9 */
  {
    MODIFY_REG(hadc->Instance->SMPR2                             ,
 8003f8a:	687b      	ldr	r3, [r7, #4]
 8003f8c:	681b      	ldr	r3, [r3, #0]
 8003f8e:	6919      	ldr	r1, [r3, #16]
 8003f90:	683b      	ldr	r3, [r7, #0]
 8003f92:	681a      	ldr	r2, [r3, #0]
 8003f94:	4613      	mov	r3, r2
 8003f96:	005b      	lsls	r3, r3, #1
 8003f98:	4413      	add	r3, r2
 8003f9a:	2207      	movs	r2, #7
 8003f9c:	fa02 f303 	lsl.w	r3, r2, r3
 8003fa0:	43db      	mvns	r3, r3
 8003fa2:	4019      	ands	r1, r3
 8003fa4:	683b      	ldr	r3, [r7, #0]
 8003fa6:	6898      	ldr	r0, [r3, #8]
 8003fa8:	683b      	ldr	r3, [r7, #0]
 8003faa:	681a      	ldr	r2, [r3, #0]
 8003fac:	4613      	mov	r3, r2
 8003fae:	005b      	lsls	r3, r3, #1
 8003fb0:	4413      	add	r3, r2
 8003fb2:	fa00 f203 	lsl.w	r2, r0, r3
 8003fb6:	687b      	ldr	r3, [r7, #4]
 8003fb8:	681b      	ldr	r3, [r3, #0]
 8003fba:	430a      	orrs	r2, r1
 8003fbc:	611a      	str	r2, [r3, #16]
               ADC_SMPR2(sConfig->SamplingTime, sConfig->Channel) );
  }
  
  /* If ADC1 Channel_16 or Channel_17 is selected, enable Temperature sensor  */
  /* and VREFINT measurement path.                                            */
  if ((sConfig->Channel == ADC_CHANNEL_TEMPSENSOR) ||
 8003fbe:	683b      	ldr	r3, [r7, #0]
 8003fc0:	681b      	ldr	r3, [r3, #0]
 8003fc2:	2b10      	cmp	r3, #16
 8003fc4:	d003      	beq.n	8003fce <HAL_ADC_ConfigChannel+0x16a>
      (sConfig->Channel == ADC_CHANNEL_VREFINT)      )
 8003fc6:	683b      	ldr	r3, [r7, #0]
 8003fc8:	681b      	ldr	r3, [r3, #0]
  if ((sConfig->Channel == ADC_CHANNEL_TEMPSENSOR) ||
 8003fca:	2b11      	cmp	r3, #17
 8003fcc:	d132      	bne.n	8004034 <HAL_ADC_ConfigChannel+0x1d0>
  {
    /* For STM32F1 devices with several ADC: Only ADC1 can access internal    */
    /* measurement channels (VrefInt/TempSensor). If these channels are       */
    /* intended to be set on other ADC instances, an error is reported.       */
    if (hadc->Instance == ADC1)
 8003fce:	687b      	ldr	r3, [r7, #4]
 8003fd0:	681b      	ldr	r3, [r3, #0]
 8003fd2:	4a1d      	ldr	r2, [pc, #116]	; (8004048 <HAL_ADC_ConfigChannel+0x1e4>)
 8003fd4:	4293      	cmp	r3, r2
 8003fd6:	d125      	bne.n	8004024 <HAL_ADC_ConfigChannel+0x1c0>
    {
      if (READ_BIT(hadc->Instance->CR2, ADC_CR2_TSVREFE) == RESET)
 8003fd8:	687b      	ldr	r3, [r7, #4]
 8003fda:	681b      	ldr	r3, [r3, #0]
 8003fdc:	689b      	ldr	r3, [r3, #8]
 8003fde:	f403 0300 	and.w	r3, r3, #8388608	; 0x800000
 8003fe2:	2b00      	cmp	r3, #0
 8003fe4:	d126      	bne.n	8004034 <HAL_ADC_ConfigChannel+0x1d0>
      {
        SET_BIT(hadc->Instance->CR2, ADC_CR2_TSVREFE);
 8003fe6:	687b      	ldr	r3, [r7, #4]
 8003fe8:	681b      	ldr	r3, [r3, #0]
 8003fea:	689a      	ldr	r2, [r3, #8]
 8003fec:	687b      	ldr	r3, [r7, #4]
 8003fee:	681b      	ldr	r3, [r3, #0]
 8003ff0:	f442 0200 	orr.w	r2, r2, #8388608	; 0x800000
 8003ff4:	609a      	str	r2, [r3, #8]
        
        if (sConfig->Channel == ADC_CHANNEL_TEMPSENSOR)
 8003ff6:	683b      	ldr	r3, [r7, #0]
 8003ff8:	681b      	ldr	r3, [r3, #0]
 8003ffa:	2b10      	cmp	r3, #16
 8003ffc:	d11a      	bne.n	8004034 <HAL_ADC_ConfigChannel+0x1d0>
        {
          /* Delay for temperature sensor stabilization time */
          /* Compute number of CPU cycles to wait for */
          wait_loop_index = (ADC_TEMPSENSOR_DELAY_US * (SystemCoreClock / 1000000U));
 8003ffe:	4b13      	ldr	r3, [pc, #76]	; (800404c <HAL_ADC_ConfigChannel+0x1e8>)
 8004000:	681b      	ldr	r3, [r3, #0]
 8004002:	4a13      	ldr	r2, [pc, #76]	; (8004050 <HAL_ADC_ConfigChannel+0x1ec>)
 8004004:	fba2 2303 	umull	r2, r3, r2, r3
 8004008:	0c9a      	lsrs	r2, r3, #18
 800400a:	4613      	mov	r3, r2
 800400c:	009b      	lsls	r3, r3, #2
 800400e:	4413      	add	r3, r2
 8004010:	005b      	lsls	r3, r3, #1
 8004012:	60bb      	str	r3, [r7, #8]
          while(wait_loop_index != 0U)
 8004014:	e002      	b.n	800401c <HAL_ADC_ConfigChannel+0x1b8>
          {
            wait_loop_index--;
 8004016:	68bb      	ldr	r3, [r7, #8]
 8004018:	3b01      	subs	r3, #1
 800401a:	60bb      	str	r3, [r7, #8]
          while(wait_loop_index != 0U)
 800401c:	68bb      	ldr	r3, [r7, #8]
 800401e:	2b00      	cmp	r3, #0
 8004020:	d1f9      	bne.n	8004016 <HAL_ADC_ConfigChannel+0x1b2>
 8004022:	e007      	b.n	8004034 <HAL_ADC_ConfigChannel+0x1d0>
      }
    }
    else
    {
      /* Update ADC state machine to error */
      SET_BIT(hadc->State, HAL_ADC_STATE_ERROR_CONFIG);
 8004024:	687b      	ldr	r3, [r7, #4]
 8004026:	6a9b      	ldr	r3, [r3, #40]	; 0x28
 8004028:	f043 0220 	orr.w	r2, r3, #32
 800402c:	687b      	ldr	r3, [r7, #4]
 800402e:	629a      	str	r2, [r3, #40]	; 0x28
      
      tmp_hal_status = HAL_ERROR;
 8004030:	2301      	movs	r3, #1
 8004032:	73fb      	strb	r3, [r7, #15]
    }
  }
  
  /* Process unlocked */
  __HAL_UNLOCK(hadc);
 8004034:	687b      	ldr	r3, [r7, #4]
 8004036:	2200      	movs	r2, #0
 8004038:	f883 2024 	strb.w	r2, [r3, #36]	; 0x24
  
  /* Return function status */
  return tmp_hal_status;
 800403c:	7bfb      	ldrb	r3, [r7, #15]
}
 800403e:	4618      	mov	r0, r3
 8004040:	3714      	adds	r7, #20
 8004042:	46bd      	mov	sp, r7
 8004044:	bc80      	pop	{r7}
 8004046:	4770      	bx	lr
 8004048:	40012400 	.word	0x40012400
 800404c:	20000010 	.word	0x20000010
 8004050:	431bde83 	.word	0x431bde83

08004054 <ADC_Enable>:
  *         and voltage regulator must be enabled (done into HAL_ADC_Init()).
  * @param  hadc: ADC handle
  * @retval HAL status.
  */
HAL_StatusTypeDef ADC_Enable(ADC_HandleTypeDef* hadc)
{
 8004054:	b580      	push	{r7, lr}
 8004056:	b084      	sub	sp, #16
 8004058:	af00      	add	r7, sp, #0
 800405a:	6078      	str	r0, [r7, #4]
  uint32_t tickstart = 0U;
 800405c:	2300      	movs	r3, #0
 800405e:	60fb      	str	r3, [r7, #12]
  __IO uint32_t wait_loop_index = 0U;
 8004060:	2300      	movs	r3, #0
 8004062:	60bb      	str	r3, [r7, #8]
  
  /* ADC enable and wait for ADC ready (in case of ADC is disabled or         */
  /* enabling phase not yet completed: flag ADC ready not yet set).           */
  /* Timeout implemented to not be stuck if ADC cannot be enabled (possible   */
  /* causes: ADC clock not running, ...).                                     */
  if (ADC_IS_ENABLE(hadc) == RESET)
 8004064:	687b      	ldr	r3, [r7, #4]
 8004066:	681b      	ldr	r3, [r3, #0]
 8004068:	689b      	ldr	r3, [r3, #8]
 800406a:	f003 0301 	and.w	r3, r3, #1
 800406e:	2b01      	cmp	r3, #1
 8004070:	d040      	beq.n	80040f4 <ADC_Enable+0xa0>
  {
    /* Enable the Peripheral */
    __HAL_ADC_ENABLE(hadc);
 8004072:	687b      	ldr	r3, [r7, #4]
 8004074:	681b      	ldr	r3, [r3, #0]
 8004076:	689a      	ldr	r2, [r3, #8]
 8004078:	687b      	ldr	r3, [r7, #4]
 800407a:	681b      	ldr	r3, [r3, #0]
 800407c:	f042 0201 	orr.w	r2, r2, #1
 8004080:	609a      	str	r2, [r3, #8]
    
    /* Delay for ADC stabilization time */
    /* Compute number of CPU cycles to wait for */
    wait_loop_index = (ADC_STAB_DELAY_US * (SystemCoreClock / 1000000U));
 8004082:	4b1f      	ldr	r3, [pc, #124]	; (8004100 <ADC_Enable+0xac>)
 8004084:	681b      	ldr	r3, [r3, #0]
 8004086:	4a1f      	ldr	r2, [pc, #124]	; (8004104 <ADC_Enable+0xb0>)
 8004088:	fba2 2303 	umull	r2, r3, r2, r3
 800408c:	0c9b      	lsrs	r3, r3, #18
 800408e:	60bb      	str	r3, [r7, #8]
    while(wait_loop_index != 0U)
 8004090:	e002      	b.n	8004098 <ADC_Enable+0x44>
    {
      wait_loop_index--;
 8004092:	68bb      	ldr	r3, [r7, #8]
 8004094:	3b01      	subs	r3, #1
 8004096:	60bb      	str	r3, [r7, #8]
    while(wait_loop_index != 0U)
 8004098:	68bb      	ldr	r3, [r7, #8]
 800409a:	2b00      	cmp	r3, #0
 800409c:	d1f9      	bne.n	8004092 <ADC_Enable+0x3e>
    }
    
    /* Get tick count */
    tickstart = HAL_GetTick();
 800409e:	f7ff fb19 	bl	80036d4 <HAL_GetTick>
 80040a2:	60f8      	str	r0, [r7, #12]

    /* Wait for ADC effectively enabled */
    while(ADC_IS_ENABLE(hadc) == RESET)
 80040a4:	e01f      	b.n	80040e6 <ADC_Enable+0x92>
    {
      if((HAL_GetTick() - tickstart) > ADC_ENABLE_TIMEOUT)
 80040a6:	f7ff fb15 	bl	80036d4 <HAL_GetTick>
 80040aa:	4602      	mov	r2, r0
 80040ac:	68fb      	ldr	r3, [r7, #12]
 80040ae:	1ad3      	subs	r3, r2, r3
 80040b0:	2b02      	cmp	r3, #2
 80040b2:	d918      	bls.n	80040e6 <ADC_Enable+0x92>
      {
        /* New check to avoid false timeout detection in case of preemption */
        if(ADC_IS_ENABLE(hadc) == RESET)
 80040b4:	687b      	ldr	r3, [r7, #4]
 80040b6:	681b      	ldr	r3, [r3, #0]
 80040b8:	689b      	ldr	r3, [r3, #8]
 80040ba:	f003 0301 	and.w	r3, r3, #1
 80040be:	2b01      	cmp	r3, #1
 80040c0:	d011      	beq.n	80040e6 <ADC_Enable+0x92>
        {
          /* Update ADC state machine to error */
          SET_BIT(hadc->State, HAL_ADC_STATE_ERROR_INTERNAL);
 80040c2:	687b      	ldr	r3, [r7, #4]
 80040c4:	6a9b      	ldr	r3, [r3, #40]	; 0x28
 80040c6:	f043 0210 	orr.w	r2, r3, #16
 80040ca:	687b      	ldr	r3, [r7, #4]
 80040cc:	629a      	str	r2, [r3, #40]	; 0x28

          /* Set ADC error code to ADC IP internal error */
          SET_BIT(hadc->ErrorCode, HAL_ADC_ERROR_INTERNAL);
 80040ce:	687b      	ldr	r3, [r7, #4]
 80040d0:	6adb      	ldr	r3, [r3, #44]	; 0x2c
 80040d2:	f043 0201 	orr.w	r2, r3, #1
 80040d6:	687b      	ldr	r3, [r7, #4]
 80040d8:	62da      	str	r2, [r3, #44]	; 0x2c

          /* Process unlocked */
          __HAL_UNLOCK(hadc);
 80040da:	687b      	ldr	r3, [r7, #4]
 80040dc:	2200      	movs	r2, #0
 80040de:	f883 2024 	strb.w	r2, [r3, #36]	; 0x24

          return HAL_ERROR;
 80040e2:	2301      	movs	r3, #1
 80040e4:	e007      	b.n	80040f6 <ADC_Enable+0xa2>
    while(ADC_IS_ENABLE(hadc) == RESET)
 80040e6:	687b      	ldr	r3, [r7, #4]
 80040e8:	681b      	ldr	r3, [r3, #0]
 80040ea:	689b      	ldr	r3, [r3, #8]
 80040ec:	f003 0301 	and.w	r3, r3, #1
 80040f0:	2b01      	cmp	r3, #1
 80040f2:	d1d8      	bne.n	80040a6 <ADC_Enable+0x52>
      }
    }
  }
   
  /* Return HAL status */
  return HAL_OK;
 80040f4:	2300      	movs	r3, #0
}
 80040f6:	4618      	mov	r0, r3
 80040f8:	3710      	adds	r7, #16
 80040fa:	46bd      	mov	sp, r7
 80040fc:	bd80      	pop	{r7, pc}
 80040fe:	bf00      	nop
 8004100:	20000010 	.word	0x20000010
 8004104:	431bde83 	.word	0x431bde83

08004108 <ADC_ConversionStop_Disable>:
  *         stopped to disable the ADC.
  * @param  hadc: ADC handle
  * @retval HAL status.
  */
HAL_StatusTypeDef ADC_ConversionStop_Disable(ADC_HandleTypeDef* hadc)
{
 8004108:	b580      	push	{r7, lr}
 800410a:	b084      	sub	sp, #16
 800410c:	af00      	add	r7, sp, #0
 800410e:	6078      	str	r0, [r7, #4]
  uint32_t tickstart = 0U;
 8004110:	2300      	movs	r3, #0
 8004112:	60fb      	str	r3, [r7, #12]
  
  /* Verification if ADC is not already disabled */
  if (ADC_IS_ENABLE(hadc) != RESET)
 8004114:	687b      	ldr	r3, [r7, #4]
 8004116:	681b      	ldr	r3, [r3, #0]
 8004118:	689b      	ldr	r3, [r3, #8]
 800411a:	f003 0301 	and.w	r3, r3, #1
 800411e:	2b01      	cmp	r3, #1
 8004120:	d12e      	bne.n	8004180 <ADC_ConversionStop_Disable+0x78>
  {
    /* Disable the ADC peripheral */
    __HAL_ADC_DISABLE(hadc);
 8004122:	687b      	ldr	r3, [r7, #4]
 8004124:	681b      	ldr	r3, [r3, #0]
 8004126:	689a      	ldr	r2, [r3, #8]
 8004128:	687b      	ldr	r3, [r7, #4]
 800412a:	681b      	ldr	r3, [r3, #0]
 800412c:	f022 0201 	bic.w	r2, r2, #1
 8004130:	609a      	str	r2, [r3, #8]
     
    /* Get tick count */
    tickstart = HAL_GetTick();
 8004132:	f7ff facf 	bl	80036d4 <HAL_GetTick>
 8004136:	60f8      	str	r0, [r7, #12]
    
    /* Wait for ADC effectively disabled */
    while(ADC_IS_ENABLE(hadc) != RESET)
 8004138:	e01b      	b.n	8004172 <ADC_ConversionStop_Disable+0x6a>
    {
      if((HAL_GetTick() - tickstart) > ADC_DISABLE_TIMEOUT)
 800413a:	f7ff facb 	bl	80036d4 <HAL_GetTick>
 800413e:	4602      	mov	r2, r0
 8004140:	68fb      	ldr	r3, [r7, #12]
 8004142:	1ad3      	subs	r3, r2, r3
 8004144:	2b02      	cmp	r3, #2
 8004146:	d914      	bls.n	8004172 <ADC_ConversionStop_Disable+0x6a>
      {
        /* New check to avoid false timeout detection in case of preemption */
        if(ADC_IS_ENABLE(hadc) != RESET)
 8004148:	687b      	ldr	r3, [r7, #4]
 800414a:	681b      	ldr	r3, [r3, #0]
 800414c:	689b      	ldr	r3, [r3, #8]
 800414e:	f003 0301 	and.w	r3, r3, #1
 8004152:	2b01      	cmp	r3, #1
 8004154:	d10d      	bne.n	8004172 <ADC_ConversionStop_Disable+0x6a>
        {
          /* Update ADC state machine to error */
          SET_BIT(hadc->State, HAL_ADC_STATE_ERROR_INTERNAL);
 8004156:	687b      	ldr	r3, [r7, #4]
 8004158:	6a9b      	ldr	r3, [r3, #40]	; 0x28
 800415a:	f043 0210 	orr.w	r2, r3, #16
 800415e:	687b      	ldr	r3, [r7, #4]
 8004160:	629a      	str	r2, [r3, #40]	; 0x28

          /* Set ADC error code to ADC IP internal error */
          SET_BIT(hadc->ErrorCode, HAL_ADC_ERROR_INTERNAL);
 8004162:	687b      	ldr	r3, [r7, #4]
 8004164:	6adb      	ldr	r3, [r3, #44]	; 0x2c
 8004166:	f043 0201 	orr.w	r2, r3, #1
 800416a:	687b      	ldr	r3, [r7, #4]
 800416c:	62da      	str	r2, [r3, #44]	; 0x2c

          return HAL_ERROR;
 800416e:	2301      	movs	r3, #1
 8004170:	e007      	b.n	8004182 <ADC_ConversionStop_Disable+0x7a>
    while(ADC_IS_ENABLE(hadc) != RESET)
 8004172:	687b      	ldr	r3, [r7, #4]
 8004174:	681b      	ldr	r3, [r3, #0]
 8004176:	689b      	ldr	r3, [r3, #8]
 8004178:	f003 0301 	and.w	r3, r3, #1
 800417c:	2b01      	cmp	r3, #1
 800417e:	d0dc      	beq.n	800413a <ADC_ConversionStop_Disable+0x32>
      }
    }
  }
  
  /* Return HAL status */
  return HAL_OK;
 8004180:	2300      	movs	r3, #0
}
 8004182:	4618      	mov	r0, r3
 8004184:	3710      	adds	r7, #16
 8004186:	46bd      	mov	sp, r7
 8004188:	bd80      	pop	{r7, pc}
	...

0800418c <HAL_ADCEx_Calibration_Start>:
  *         the completion of this function.
  * @param  hadc: ADC handle
  * @retval HAL status
  */
HAL_StatusTypeDef HAL_ADCEx_Calibration_Start(ADC_HandleTypeDef* hadc)
{
 800418c:	b590      	push	{r4, r7, lr}
 800418e:	b087      	sub	sp, #28
 8004190:	af00      	add	r7, sp, #0
 8004192:	6078      	str	r0, [r7, #4]
  HAL_StatusTypeDef tmp_hal_status = HAL_OK;
 8004194:	2300      	movs	r3, #0
 8004196:	75fb      	strb	r3, [r7, #23]
  uint32_t tickstart;
  __IO uint32_t wait_loop_index = 0U;
 8004198:	2300      	movs	r3, #0
 800419a:	60fb      	str	r3, [r7, #12]
  
  /* Check the parameters */
  assert_param(IS_ADC_ALL_INSTANCE(hadc->Instance));

  /* Process locked */
  __HAL_LOCK(hadc);
 800419c:	687b      	ldr	r3, [r7, #4]
 800419e:	f893 3024 	ldrb.w	r3, [r3, #36]	; 0x24
 80041a2:	2b01      	cmp	r3, #1
 80041a4:	d101      	bne.n	80041aa <HAL_ADCEx_Calibration_Start+0x1e>
 80041a6:	2302      	movs	r3, #2
 80041a8:	e095      	b.n	80042d6 <HAL_ADCEx_Calibration_Start+0x14a>
 80041aa:	687b      	ldr	r3, [r7, #4]
 80041ac:	2201      	movs	r2, #1
 80041ae:	f883 2024 	strb.w	r2, [r3, #36]	; 0x24
  /* 1. Calibration prerequisite:                                             */
  /*    - ADC must be disabled for at least two ADC clock cycles in disable   */
  /*      mode before ADC enable                                              */
  /* Stop potential conversion on going, on regular and injected groups       */
  /* Disable ADC peripheral */
  tmp_hal_status = ADC_ConversionStop_Disable(hadc);
 80041b2:	6878      	ldr	r0, [r7, #4]
 80041b4:	f7ff ffa8 	bl	8004108 <ADC_ConversionStop_Disable>
 80041b8:	4603      	mov	r3, r0
 80041ba:	75fb      	strb	r3, [r7, #23]
  
  /* Check if ADC is effectively disabled */
  if (tmp_hal_status == HAL_OK)
 80041bc:	7dfb      	ldrb	r3, [r7, #23]
 80041be:	2b00      	cmp	r3, #0
 80041c0:	f040 8084 	bne.w	80042cc <HAL_ADCEx_Calibration_Start+0x140>
  {
    /* Set ADC state */
    ADC_STATE_CLR_SET(hadc->State,
 80041c4:	687b      	ldr	r3, [r7, #4]
 80041c6:	6a9b      	ldr	r3, [r3, #40]	; 0x28
 80041c8:	f423 5388 	bic.w	r3, r3, #4352	; 0x1100
 80041cc:	f023 0302 	bic.w	r3, r3, #2
 80041d0:	f043 0202 	orr.w	r2, r3, #2
 80041d4:	687b      	ldr	r3, [r7, #4]
 80041d6:	629a      	str	r2, [r3, #40]	; 0x28
    
    /* Hardware prerequisite: delay before starting the calibration.          */
    /*  - Computation of CPU clock cycles corresponding to ADC clock cycles.  */
    /*  - Wait for the expected ADC clock cycles delay */
    wait_loop_index = ((SystemCoreClock
                        / HAL_RCCEx_GetPeriphCLKFreq(RCC_PERIPHCLK_ADC))
 80041d8:	4b41      	ldr	r3, [pc, #260]	; (80042e0 <HAL_ADCEx_Calibration_Start+0x154>)
 80041da:	681c      	ldr	r4, [r3, #0]
 80041dc:	2002      	movs	r0, #2
 80041de:	f001 f8f1 	bl	80053c4 <HAL_RCCEx_GetPeriphCLKFreq>
 80041e2:	4603      	mov	r3, r0
 80041e4:	fbb4 f3f3 	udiv	r3, r4, r3
                       * ADC_PRECALIBRATION_DELAY_ADCCLOCKCYCLES        );
 80041e8:	005b      	lsls	r3, r3, #1
    wait_loop_index = ((SystemCoreClock
 80041ea:	60fb      	str	r3, [r7, #12]

    while(wait_loop_index != 0U)
 80041ec:	e002      	b.n	80041f4 <HAL_ADCEx_Calibration_Start+0x68>
    {
      wait_loop_index--;
 80041ee:	68fb      	ldr	r3, [r7, #12]
 80041f0:	3b01      	subs	r3, #1
 80041f2:	60fb      	str	r3, [r7, #12]
    while(wait_loop_index != 0U)
 80041f4:	68fb      	ldr	r3, [r7, #12]
 80041f6:	2b00      	cmp	r3, #0
 80041f8:	d1f9      	bne.n	80041ee <HAL_ADCEx_Calibration_Start+0x62>
    }
    
    /* 2. Enable the ADC peripheral */
    ADC_Enable(hadc);
 80041fa:	6878      	ldr	r0, [r7, #4]
 80041fc:	f7ff ff2a 	bl	8004054 <ADC_Enable>
    
    /* 3. Resets ADC calibration registers */  
    SET_BIT(hadc->Instance->CR2, ADC_CR2_RSTCAL);
 8004200:	687b      	ldr	r3, [r7, #4]
 8004202:	681b      	ldr	r3, [r3, #0]
 8004204:	689a      	ldr	r2, [r3, #8]
 8004206:	687b      	ldr	r3, [r7, #4]
 8004208:	681b      	ldr	r3, [r3, #0]
 800420a:	f042 0208 	orr.w	r2, r2, #8
 800420e:	609a      	str	r2, [r3, #8]
    
    tickstart = HAL_GetTick();  
 8004210:	f7ff fa60 	bl	80036d4 <HAL_GetTick>
 8004214:	6138      	str	r0, [r7, #16]

    /* Wait for calibration reset completion */
    while(HAL_IS_BIT_SET(hadc->Instance->CR2, ADC_CR2_RSTCAL))
 8004216:	e01b      	b.n	8004250 <HAL_ADCEx_Calibration_Start+0xc4>
    {
      if((HAL_GetTick() - tickstart) > ADC_CALIBRATION_TIMEOUT)
 8004218:	f7ff fa5c 	bl	80036d4 <HAL_GetTick>
 800421c:	4602      	mov	r2, r0
 800421e:	693b      	ldr	r3, [r7, #16]
 8004220:	1ad3      	subs	r3, r2, r3
 8004222:	2b0a      	cmp	r3, #10
 8004224:	d914      	bls.n	8004250 <HAL_ADCEx_Calibration_Start+0xc4>
      {
        /* New check to avoid false timeout detection in case of preemption */
        if(HAL_IS_BIT_SET(hadc->Instance->CR2, ADC_CR2_RSTCAL))
 8004226:	687b      	ldr	r3, [r7, #4]
 8004228:	681b      	ldr	r3, [r3, #0]
 800422a:	689b      	ldr	r3, [r3, #8]
 800422c:	f003 0308 	and.w	r3, r3, #8
 8004230:	2b00      	cmp	r3, #0
 8004232:	d00d      	beq.n	8004250 <HAL_ADCEx_Calibration_Start+0xc4>
        {
          /* Update ADC state machine to error */
          ADC_STATE_CLR_SET(hadc->State,
 8004234:	687b      	ldr	r3, [r7, #4]
 8004236:	6a9b      	ldr	r3, [r3, #40]	; 0x28
 8004238:	f023 0312 	bic.w	r3, r3, #18
 800423c:	f043 0210 	orr.w	r2, r3, #16
 8004240:	687b      	ldr	r3, [r7, #4]
 8004242:	629a      	str	r2, [r3, #40]	; 0x28
                            HAL_ADC_STATE_BUSY_INTERNAL,
                            HAL_ADC_STATE_ERROR_INTERNAL);

          /* Process unlocked */
          __HAL_UNLOCK(hadc);
 8004244:	687b      	ldr	r3, [r7, #4]
 8004246:	2200      	movs	r2, #0
 8004248:	f883 2024 	strb.w	r2, [r3, #36]	; 0x24

          return HAL_ERROR;
 800424c:	2301      	movs	r3, #1
 800424e:	e042      	b.n	80042d6 <HAL_ADCEx_Calibration_Start+0x14a>
    while(HAL_IS_BIT_SET(hadc->Instance->CR2, ADC_CR2_RSTCAL))
 8004250:	687b      	ldr	r3, [r7, #4]
 8004252:	681b      	ldr	r3, [r3, #0]
 8004254:	689b      	ldr	r3, [r3, #8]
 8004256:	f003 0308 	and.w	r3, r3, #8
 800425a:	2b00      	cmp	r3, #0
 800425c:	d1dc      	bne.n	8004218 <HAL_ADCEx_Calibration_Start+0x8c>
        }
      }
    }
    
    /* 4. Start ADC calibration */
    SET_BIT(hadc->Instance->CR2, ADC_CR2_CAL);
 800425e:	687b      	ldr	r3, [r7, #4]
 8004260:	681b      	ldr	r3, [r3, #0]
 8004262:	689a      	ldr	r2, [r3, #8]
 8004264:	687b      	ldr	r3, [r7, #4]
 8004266:	681b      	ldr	r3, [r3, #0]
 8004268:	f042 0204 	orr.w	r2, r2, #4
 800426c:	609a      	str	r2, [r3, #8]
    
    tickstart = HAL_GetTick();  
 800426e:	f7ff fa31 	bl	80036d4 <HAL_GetTick>
 8004272:	6138      	str	r0, [r7, #16]

    /* Wait for calibration completion */
    while(HAL_IS_BIT_SET(hadc->Instance->CR2, ADC_CR2_CAL))
 8004274:	e01b      	b.n	80042ae <HAL_ADCEx_Calibration_Start+0x122>
    {
      if((HAL_GetTick() - tickstart) > ADC_CALIBRATION_TIMEOUT)
 8004276:	f7ff fa2d 	bl	80036d4 <HAL_GetTick>
 800427a:	4602      	mov	r2, r0
 800427c:	693b      	ldr	r3, [r7, #16]
 800427e:	1ad3      	subs	r3, r2, r3
 8004280:	2b0a      	cmp	r3, #10
 8004282:	d914      	bls.n	80042ae <HAL_ADCEx_Calibration_Start+0x122>
      {
        /* New check to avoid false timeout detection in case of preemption */
        if(HAL_IS_BIT_SET(hadc->Instance->CR2, ADC_CR2_CAL))
 8004284:	687b      	ldr	r3, [r7, #4]
 8004286:	681b      	ldr	r3, [r3, #0]
 8004288:	689b      	ldr	r3, [r3, #8]
 800428a:	f003 0304 	and.w	r3, r3, #4
 800428e:	2b00      	cmp	r3, #0
 8004290:	d00d      	beq.n	80042ae <HAL_ADCEx_Calibration_Start+0x122>
        {
          /* Update ADC state machine to error */
          ADC_STATE_CLR_SET(hadc->State,
 8004292:	687b      	ldr	r3, [r7, #4]
 8004294:	6a9b      	ldr	r3, [r3, #40]	; 0x28
 8004296:	f023 0312 	bic.w	r3, r3, #18
 800429a:	f043 0210 	orr.w	r2, r3, #16
 800429e:	687b      	ldr	r3, [r7, #4]
 80042a0:	629a      	str	r2, [r3, #40]	; 0x28
                            HAL_ADC_STATE_BUSY_INTERNAL,
                            HAL_ADC_STATE_ERROR_INTERNAL);

          /* Process unlocked */
          __HAL_UNLOCK(hadc);
 80042a2:	687b      	ldr	r3, [r7, #4]
 80042a4:	2200      	movs	r2, #0
 80042a6:	f883 2024 	strb.w	r2, [r3, #36]	; 0x24

          return HAL_ERROR;
 80042aa:	2301      	movs	r3, #1
 80042ac:	e013      	b.n	80042d6 <HAL_ADCEx_Calibration_Start+0x14a>
    while(HAL_IS_BIT_SET(hadc->Instance->CR2, ADC_CR2_CAL))
 80042ae:	687b      	ldr	r3, [r7, #4]
 80042b0:	681b      	ldr	r3, [r3, #0]
 80042b2:	689b      	ldr	r3, [r3, #8]
 80042b4:	f003 0304 	and.w	r3, r3, #4
 80042b8:	2b00      	cmp	r3, #0
 80042ba:	d1dc      	bne.n	8004276 <HAL_ADCEx_Calibration_Start+0xea>
        }
      }
    }
    
    /* Set ADC state */
    ADC_STATE_CLR_SET(hadc->State,
 80042bc:	687b      	ldr	r3, [r7, #4]
 80042be:	6a9b      	ldr	r3, [r3, #40]	; 0x28
 80042c0:	f023 0303 	bic.w	r3, r3, #3
 80042c4:	f043 0201 	orr.w	r2, r3, #1
 80042c8:	687b      	ldr	r3, [r7, #4]
 80042ca:	629a      	str	r2, [r3, #40]	; 0x28
                      HAL_ADC_STATE_BUSY_INTERNAL,
                      HAL_ADC_STATE_READY);
  }
  
  /* Process unlocked */
  __HAL_UNLOCK(hadc);
 80042cc:	687b      	ldr	r3, [r7, #4]
 80042ce:	2200      	movs	r2, #0
 80042d0:	f883 2024 	strb.w	r2, [r3, #36]	; 0x24
  
  /* Return function status */
  return tmp_hal_status;
 80042d4:	7dfb      	ldrb	r3, [r7, #23]
}
 80042d6:	4618      	mov	r0, r3
 80042d8:	371c      	adds	r7, #28
 80042da:	46bd      	mov	sp, r7
 80042dc:	bd90      	pop	{r4, r7, pc}
 80042de:	bf00      	nop
 80042e0:	20000010 	.word	0x20000010

080042e4 <HAL_ADCEx_InjectedConvCpltCallback>:
  * @brief  Injected conversion complete callback in non blocking mode 
  * @param  hadc: ADC handle
  * @retval None
  */
__weak void HAL_ADCEx_InjectedConvCpltCallback(ADC_HandleTypeDef* hadc)
{
 80042e4:	b480      	push	{r7}
 80042e6:	b083      	sub	sp, #12
 80042e8:	af00      	add	r7, sp, #0
 80042ea:	6078      	str	r0, [r7, #4]
  /* Prevent unused argument(s) compilation warning */
  UNUSED(hadc);
  /* NOTE : This function Should not be modified, when the callback is needed,
            the HAL_ADCEx_InjectedConvCpltCallback could be implemented in the user file
  */
}
 80042ec:	bf00      	nop
 80042ee:	370c      	adds	r7, #12
 80042f0:	46bd      	mov	sp, r7
 80042f2:	bc80      	pop	{r7}
 80042f4:	4770      	bx	lr
	...

080042f8 <__NVIC_SetPriorityGrouping>:
           In case of a conflict between priority grouping and available
           priority bits (__NVIC_PRIO_BITS), the smallest possible priority group is set.
  \param [in]      PriorityGroup  Priority grouping field.
 */
__STATIC_INLINE void __NVIC_SetPriorityGrouping(uint32_t PriorityGroup)
{
 80042f8:	b480      	push	{r7}
 80042fa:	b085      	sub	sp, #20
 80042fc:	af00      	add	r7, sp, #0
 80042fe:	6078      	str	r0, [r7, #4]
  uint32_t reg_value;
  uint32_t PriorityGroupTmp = (PriorityGroup & (uint32_t)0x07UL);             /* only values 0..7 are used          */
 8004300:	687b      	ldr	r3, [r7, #4]
 8004302:	f003 0307 	and.w	r3, r3, #7
 8004306:	60fb      	str	r3, [r7, #12]

  reg_value  =  SCB->AIRCR;                                                   /* read old register configuration    */
 8004308:	4b0c      	ldr	r3, [pc, #48]	; (800433c <__NVIC_SetPriorityGrouping+0x44>)
 800430a:	68db      	ldr	r3, [r3, #12]
 800430c:	60bb      	str	r3, [r7, #8]
  reg_value &= ~((uint32_t)(SCB_AIRCR_VECTKEY_Msk | SCB_AIRCR_PRIGROUP_Msk)); /* clear bits to change               */
 800430e:	68ba      	ldr	r2, [r7, #8]
 8004310:	f64f 03ff 	movw	r3, #63743	; 0xf8ff
 8004314:	4013      	ands	r3, r2
 8004316:	60bb      	str	r3, [r7, #8]
  reg_value  =  (reg_value                                   |
                ((uint32_t)0x5FAUL << SCB_AIRCR_VECTKEY_Pos) |
                (PriorityGroupTmp << SCB_AIRCR_PRIGROUP_Pos) );               /* Insert write key and priority group */
 8004318:	68fb      	ldr	r3, [r7, #12]
 800431a:	021a      	lsls	r2, r3, #8
                ((uint32_t)0x5FAUL << SCB_AIRCR_VECTKEY_Pos) |
 800431c:	68bb      	ldr	r3, [r7, #8]
 800431e:	4313      	orrs	r3, r2
  reg_value  =  (reg_value                                   |
 8004320:	f043 63bf 	orr.w	r3, r3, #100139008	; 0x5f80000
 8004324:	f443 3300 	orr.w	r3, r3, #131072	; 0x20000
 8004328:	60bb      	str	r3, [r7, #8]
  SCB->AIRCR =  reg_value;
 800432a:	4a04      	ldr	r2, [pc, #16]	; (800433c <__NVIC_SetPriorityGrouping+0x44>)
 800432c:	68bb      	ldr	r3, [r7, #8]
 800432e:	60d3      	str	r3, [r2, #12]
}
 8004330:	bf00      	nop
 8004332:	3714      	adds	r7, #20
 8004334:	46bd      	mov	sp, r7
 8004336:	bc80      	pop	{r7}
 8004338:	4770      	bx	lr
 800433a:	bf00      	nop
 800433c:	e000ed00 	.word	0xe000ed00

08004340 <__NVIC_GetPriorityGrouping>:
  \brief   Get Priority Grouping
  \details Reads the priority grouping field from the NVIC Interrupt Controller.
  \return                Priority grouping field (SCB->AIRCR [10:8] PRIGROUP field).
 */
__STATIC_INLINE uint32_t __NVIC_GetPriorityGrouping(void)
{
 8004340:	b480      	push	{r7}
 8004342:	af00      	add	r7, sp, #0
  return ((uint32_t)((SCB->AIRCR & SCB_AIRCR_PRIGROUP_Msk) >> SCB_AIRCR_PRIGROUP_Pos));
 8004344:	4b04      	ldr	r3, [pc, #16]	; (8004358 <__NVIC_GetPriorityGrouping+0x18>)
 8004346:	68db      	ldr	r3, [r3, #12]
 8004348:	0a1b      	lsrs	r3, r3, #8
 800434a:	f003 0307 	and.w	r3, r3, #7
}
 800434e:	4618      	mov	r0, r3
 8004350:	46bd      	mov	sp, r7
 8004352:	bc80      	pop	{r7}
 8004354:	4770      	bx	lr
 8004356:	bf00      	nop
 8004358:	e000ed00 	.word	0xe000ed00

0800435c <__NVIC_EnableIRQ>:
  \details Enables a device specific interrupt in the NVIC interrupt controller.
  \param [in]      IRQn  Device specific interrupt number.
  \note    IRQn must not be negative.
 */
__STATIC_INLINE void __NVIC_EnableIRQ(IRQn_Type IRQn)
{
 800435c:	b480      	push	{r7}
 800435e:	b083      	sub	sp, #12
 8004360:	af00      	add	r7, sp, #0
 8004362:	4603      	mov	r3, r0
 8004364:	71fb      	strb	r3, [r7, #7]
  if ((int32_t)(IRQn) >= 0)
 8004366:	f997 3007 	ldrsb.w	r3, [r7, #7]
 800436a:	2b00      	cmp	r3, #0
 800436c:	db0b      	blt.n	8004386 <__NVIC_EnableIRQ+0x2a>
  {
    NVIC->ISER[(((uint32_t)IRQn) >> 5UL)] = (uint32_t)(1UL << (((uint32_t)IRQn) & 0x1FUL));
 800436e:	79fb      	ldrb	r3, [r7, #7]
 8004370:	f003 021f 	and.w	r2, r3, #31
 8004374:	4906      	ldr	r1, [pc, #24]	; (8004390 <__NVIC_EnableIRQ+0x34>)
 8004376:	f997 3007 	ldrsb.w	r3, [r7, #7]
 800437a:	095b      	lsrs	r3, r3, #5
 800437c:	2001      	movs	r0, #1
 800437e:	fa00 f202 	lsl.w	r2, r0, r2
 8004382:	f841 2023 	str.w	r2, [r1, r3, lsl #2]
  }
}
 8004386:	bf00      	nop
 8004388:	370c      	adds	r7, #12
 800438a:	46bd      	mov	sp, r7
 800438c:	bc80      	pop	{r7}
 800438e:	4770      	bx	lr
 8004390:	e000e100 	.word	0xe000e100

08004394 <__NVIC_SetPriority>:
  \param [in]      IRQn  Interrupt number.
  \param [in]  priority  Priority to set.
  \note    The priority cannot be set for every processor exception.
 */
__STATIC_INLINE void __NVIC_SetPriority(IRQn_Type IRQn, uint32_t priority)
{
 8004394:	b480      	push	{r7}
 8004396:	b083      	sub	sp, #12
 8004398:	af00      	add	r7, sp, #0
 800439a:	4603      	mov	r3, r0
 800439c:	6039      	str	r1, [r7, #0]
 800439e:	71fb      	strb	r3, [r7, #7]
  if ((int32_t)(IRQn) >= 0)
 80043a0:	f997 3007 	ldrsb.w	r3, [r7, #7]
 80043a4:	2b00      	cmp	r3, #0
 80043a6:	db0a      	blt.n	80043be <__NVIC_SetPriority+0x2a>
  {
    NVIC->IP[((uint32_t)IRQn)]               = (uint8_t)((priority << (8U - __NVIC_PRIO_BITS)) & (uint32_t)0xFFUL);
 80043a8:	683b      	ldr	r3, [r7, #0]
 80043aa:	b2da      	uxtb	r2, r3
 80043ac:	490c      	ldr	r1, [pc, #48]	; (80043e0 <__NVIC_SetPriority+0x4c>)
 80043ae:	f997 3007 	ldrsb.w	r3, [r7, #7]
 80043b2:	0112      	lsls	r2, r2, #4
 80043b4:	b2d2      	uxtb	r2, r2
 80043b6:	440b      	add	r3, r1
 80043b8:	f883 2300 	strb.w	r2, [r3, #768]	; 0x300
  }
  else
  {
    SCB->SHP[(((uint32_t)IRQn) & 0xFUL)-4UL] = (uint8_t)((priority << (8U - __NVIC_PRIO_BITS)) & (uint32_t)0xFFUL);
  }
}
 80043bc:	e00a      	b.n	80043d4 <__NVIC_SetPriority+0x40>
    SCB->SHP[(((uint32_t)IRQn) & 0xFUL)-4UL] = (uint8_t)((priority << (8U - __NVIC_PRIO_BITS)) & (uint32_t)0xFFUL);
 80043be:	683b      	ldr	r3, [r7, #0]
 80043c0:	b2da      	uxtb	r2, r3
 80043c2:	4908      	ldr	r1, [pc, #32]	; (80043e4 <__NVIC_SetPriority+0x50>)
 80043c4:	79fb      	ldrb	r3, [r7, #7]
 80043c6:	f003 030f 	and.w	r3, r3, #15
 80043ca:	3b04      	subs	r3, #4
 80043cc:	0112      	lsls	r2, r2, #4
 80043ce:	b2d2      	uxtb	r2, r2
 80043d0:	440b      	add	r3, r1
 80043d2:	761a      	strb	r2, [r3, #24]
}
 80043d4:	bf00      	nop
 80043d6:	370c      	adds	r7, #12
 80043d8:	46bd      	mov	sp, r7
 80043da:	bc80      	pop	{r7}
 80043dc:	4770      	bx	lr
 80043de:	bf00      	nop
 80043e0:	e000e100 	.word	0xe000e100
 80043e4:	e000ed00 	.word	0xe000ed00

080043e8 <NVIC_EncodePriority>:
  \param [in]   PreemptPriority  Preemptive priority value (starting from 0).
  \param [in]       SubPriority  Subpriority value (starting from 0).
  \return                        Encoded priority. Value can be used in the function \ref NVIC_SetPriority().
 */
__STATIC_INLINE uint32_t NVIC_EncodePriority (uint32_t PriorityGroup, uint32_t PreemptPriority, uint32_t SubPriority)
{
 80043e8:	b480      	push	{r7}
 80043ea:	b089      	sub	sp, #36	; 0x24
 80043ec:	af00      	add	r7, sp, #0
 80043ee:	60f8      	str	r0, [r7, #12]
 80043f0:	60b9      	str	r1, [r7, #8]
 80043f2:	607a      	str	r2, [r7, #4]
  uint32_t PriorityGroupTmp = (PriorityGroup & (uint32_t)0x07UL);   /* only values 0..7 are used          */
 80043f4:	68fb      	ldr	r3, [r7, #12]
 80043f6:	f003 0307 	and.w	r3, r3, #7
 80043fa:	61fb      	str	r3, [r7, #28]
  uint32_t PreemptPriorityBits;
  uint32_t SubPriorityBits;

  PreemptPriorityBits = ((7UL - PriorityGroupTmp) > (uint32_t)(__NVIC_PRIO_BITS)) ? (uint32_t)(__NVIC_PRIO_BITS) : (uint32_t)(7UL - PriorityGroupTmp);
 80043fc:	69fb      	ldr	r3, [r7, #28]
 80043fe:	f1c3 0307 	rsb	r3, r3, #7
 8004402:	2b04      	cmp	r3, #4
 8004404:	bf28      	it	cs
 8004406:	2304      	movcs	r3, #4
 8004408:	61bb      	str	r3, [r7, #24]
  SubPriorityBits     = ((PriorityGroupTmp + (uint32_t)(__NVIC_PRIO_BITS)) < (uint32_t)7UL) ? (uint32_t)0UL : (uint32_t)((PriorityGroupTmp - 7UL) + (uint32_t)(__NVIC_PRIO_BITS));
 800440a:	69fb      	ldr	r3, [r7, #28]
 800440c:	3304      	adds	r3, #4
 800440e:	2b06      	cmp	r3, #6
 8004410:	d902      	bls.n	8004418 <NVIC_EncodePriority+0x30>
 8004412:	69fb      	ldr	r3, [r7, #28]
 8004414:	3b03      	subs	r3, #3
 8004416:	e000      	b.n	800441a <NVIC_EncodePriority+0x32>
 8004418:	2300      	movs	r3, #0
 800441a:	617b      	str	r3, [r7, #20]

  return (
           ((PreemptPriority & (uint32_t)((1UL << (PreemptPriorityBits)) - 1UL)) << SubPriorityBits) |
 800441c:	f04f 32ff 	mov.w	r2, #4294967295
 8004420:	69bb      	ldr	r3, [r7, #24]
 8004422:	fa02 f303 	lsl.w	r3, r2, r3
 8004426:	43da      	mvns	r2, r3
 8004428:	68bb      	ldr	r3, [r7, #8]
 800442a:	401a      	ands	r2, r3
 800442c:	697b      	ldr	r3, [r7, #20]
 800442e:	409a      	lsls	r2, r3
           ((SubPriority     & (uint32_t)((1UL << (SubPriorityBits    )) - 1UL)))
 8004430:	f04f 31ff 	mov.w	r1, #4294967295
 8004434:	697b      	ldr	r3, [r7, #20]
 8004436:	fa01 f303 	lsl.w	r3, r1, r3
 800443a:	43d9      	mvns	r1, r3
 800443c:	687b      	ldr	r3, [r7, #4]
 800443e:	400b      	ands	r3, r1
           ((PreemptPriority & (uint32_t)((1UL << (PreemptPriorityBits)) - 1UL)) << SubPriorityBits) |
 8004440:	4313      	orrs	r3, r2
         );
}
 8004442:	4618      	mov	r0, r3
 8004444:	3724      	adds	r7, #36	; 0x24
 8004446:	46bd      	mov	sp, r7
 8004448:	bc80      	pop	{r7}
 800444a:	4770      	bx	lr

0800444c <SysTick_Config>:
  \note    When the variable <b>__Vendor_SysTickConfig</b> is set to 1, then the
           function <b>SysTick_Config</b> is not included. In this case, the file <b><i>device</i>.h</b>
           must contain a vendor-specific implementation of this function.
 */
__STATIC_INLINE uint32_t SysTick_Config(uint32_t ticks)
{
 800444c:	b580      	push	{r7, lr}
 800444e:	b082      	sub	sp, #8
 8004450:	af00      	add	r7, sp, #0
 8004452:	6078      	str	r0, [r7, #4]
  if ((ticks - 1UL) > SysTick_LOAD_RELOAD_Msk)
 8004454:	687b      	ldr	r3, [r7, #4]
 8004456:	3b01      	subs	r3, #1
 8004458:	f1b3 7f80 	cmp.w	r3, #16777216	; 0x1000000
 800445c:	d301      	bcc.n	8004462 <SysTick_Config+0x16>
  {
    return (1UL);                                                   /* Reload value impossible */
 800445e:	2301      	movs	r3, #1
 8004460:	e00f      	b.n	8004482 <SysTick_Config+0x36>
  }

  SysTick->LOAD  = (uint32_t)(ticks - 1UL);                         /* set reload register */
 8004462:	4a0a      	ldr	r2, [pc, #40]	; (800448c <SysTick_Config+0x40>)
 8004464:	687b      	ldr	r3, [r7, #4]
 8004466:	3b01      	subs	r3, #1
 8004468:	6053      	str	r3, [r2, #4]
  NVIC_SetPriority (SysTick_IRQn, (1UL << __NVIC_PRIO_BITS) - 1UL); /* set Priority for Systick Interrupt */
 800446a:	210f      	movs	r1, #15
 800446c:	f04f 30ff 	mov.w	r0, #4294967295
 8004470:	f7ff ff90 	bl	8004394 <__NVIC_SetPriority>
  SysTick->VAL   = 0UL;                                             /* Load the SysTick Counter Value */
 8004474:	4b05      	ldr	r3, [pc, #20]	; (800448c <SysTick_Config+0x40>)
 8004476:	2200      	movs	r2, #0
 8004478:	609a      	str	r2, [r3, #8]
  SysTick->CTRL  = SysTick_CTRL_CLKSOURCE_Msk |
 800447a:	4b04      	ldr	r3, [pc, #16]	; (800448c <SysTick_Config+0x40>)
 800447c:	2207      	movs	r2, #7
 800447e:	601a      	str	r2, [r3, #0]
                   SysTick_CTRL_TICKINT_Msk   |
                   SysTick_CTRL_ENABLE_Msk;                         /* Enable SysTick IRQ and SysTick Timer */
  return (0UL);                                                     /* Function successful */
 8004480:	2300      	movs	r3, #0
}
 8004482:	4618      	mov	r0, r3
 8004484:	3708      	adds	r7, #8
 8004486:	46bd      	mov	sp, r7
 8004488:	bd80      	pop	{r7, pc}
 800448a:	bf00      	nop
 800448c:	e000e010 	.word	0xe000e010

08004490 <HAL_NVIC_SetPriorityGrouping>:
  * @note   When the NVIC_PriorityGroup_0 is selected, IRQ preemption is no more possible. 
  *         The pending IRQ priority will be managed only by the subpriority. 
  * @retval None
  */
void HAL_NVIC_SetPriorityGrouping(uint32_t PriorityGroup)
{
 8004490:	b580      	push	{r7, lr}
 8004492:	b082      	sub	sp, #8
 8004494:	af00      	add	r7, sp, #0
 8004496:	6078      	str	r0, [r7, #4]
  /* Check the parameters */
  assert_param(IS_NVIC_PRIORITY_GROUP(PriorityGroup));
  
  /* Set the PRIGROUP[10:8] bits according to the PriorityGroup parameter value */
  NVIC_SetPriorityGrouping(PriorityGroup);
 8004498:	6878      	ldr	r0, [r7, #4]
 800449a:	f7ff ff2d 	bl	80042f8 <__NVIC_SetPriorityGrouping>
}
 800449e:	bf00      	nop
 80044a0:	3708      	adds	r7, #8
 80044a2:	46bd      	mov	sp, r7
 80044a4:	bd80      	pop	{r7, pc}

080044a6 <HAL_NVIC_SetPriority>:
  *         This parameter can be a value between 0 and 15
  *         A lower priority value indicates a higher priority.          
  * @retval None
  */
void HAL_NVIC_SetPriority(IRQn_Type IRQn, uint32_t PreemptPriority, uint32_t SubPriority)
{ 
 80044a6:	b580      	push	{r7, lr}
 80044a8:	b086      	sub	sp, #24
 80044aa:	af00      	add	r7, sp, #0
 80044ac:	4603      	mov	r3, r0
 80044ae:	60b9      	str	r1, [r7, #8]
 80044b0:	607a      	str	r2, [r7, #4]
 80044b2:	73fb      	strb	r3, [r7, #15]
  uint32_t prioritygroup = 0x00U;
 80044b4:	2300      	movs	r3, #0
 80044b6:	617b      	str	r3, [r7, #20]
  
  /* Check the parameters */
  assert_param(IS_NVIC_SUB_PRIORITY(SubPriority));
  assert_param(IS_NVIC_PREEMPTION_PRIORITY(PreemptPriority));
  
  prioritygroup = NVIC_GetPriorityGrouping();
 80044b8:	f7ff ff42 	bl	8004340 <__NVIC_GetPriorityGrouping>
 80044bc:	6178      	str	r0, [r7, #20]
  
  NVIC_SetPriority(IRQn, NVIC_EncodePriority(prioritygroup, PreemptPriority, SubPriority));
 80044be:	687a      	ldr	r2, [r7, #4]
 80044c0:	68b9      	ldr	r1, [r7, #8]
 80044c2:	6978      	ldr	r0, [r7, #20]
 80044c4:	f7ff ff90 	bl	80043e8 <NVIC_EncodePriority>
 80044c8:	4602      	mov	r2, r0
 80044ca:	f997 300f 	ldrsb.w	r3, [r7, #15]
 80044ce:	4611      	mov	r1, r2
 80044d0:	4618      	mov	r0, r3
 80044d2:	f7ff ff5f 	bl	8004394 <__NVIC_SetPriority>
}
 80044d6:	bf00      	nop
 80044d8:	3718      	adds	r7, #24
 80044da:	46bd      	mov	sp, r7
 80044dc:	bd80      	pop	{r7, pc}

080044de <HAL_NVIC_EnableIRQ>:
  *         This parameter can be an enumerator of IRQn_Type enumeration
  *         (For the complete STM32 Devices IRQ Channels list, please refer to the appropriate CMSIS device file (stm32f10xxx.h))
  * @retval None
  */
void HAL_NVIC_EnableIRQ(IRQn_Type IRQn)
{
 80044de:	b580      	push	{r7, lr}
 80044e0:	b082      	sub	sp, #8
 80044e2:	af00      	add	r7, sp, #0
 80044e4:	4603      	mov	r3, r0
 80044e6:	71fb      	strb	r3, [r7, #7]
  /* Check the parameters */
  assert_param(IS_NVIC_DEVICE_IRQ(IRQn));

  /* Enable interrupt */
  NVIC_EnableIRQ(IRQn);
 80044e8:	f997 3007 	ldrsb.w	r3, [r7, #7]
 80044ec:	4618      	mov	r0, r3
 80044ee:	f7ff ff35 	bl	800435c <__NVIC_EnableIRQ>
}
 80044f2:	bf00      	nop
 80044f4:	3708      	adds	r7, #8
 80044f6:	46bd      	mov	sp, r7
 80044f8:	bd80      	pop	{r7, pc}

080044fa <HAL_SYSTICK_Config>:
  * @param  TicksNumb: Specifies the ticks Number of ticks between two interrupts.
  * @retval status:  - 0  Function succeeded.
  *                  - 1  Function failed.
  */
uint32_t HAL_SYSTICK_Config(uint32_t TicksNumb)
{
 80044fa:	b580      	push	{r7, lr}
 80044fc:	b082      	sub	sp, #8
 80044fe:	af00      	add	r7, sp, #0
 8004500:	6078      	str	r0, [r7, #4]
   return SysTick_Config(TicksNumb);
 8004502:	6878      	ldr	r0, [r7, #4]
 8004504:	f7ff ffa2 	bl	800444c <SysTick_Config>
 8004508:	4603      	mov	r3, r0
}
 800450a:	4618      	mov	r0, r3
 800450c:	3708      	adds	r7, #8
 800450e:	46bd      	mov	sp, r7
 8004510:	bd80      	pop	{r7, pc}

08004512 <HAL_DMA_Abort>:
  * @param  hdma: pointer to a DMA_HandleTypeDef structure that contains
  *               the configuration information for the specified DMA Channel.
  * @retval HAL status
  */
HAL_StatusTypeDef HAL_DMA_Abort(DMA_HandleTypeDef *hdma)
{
 8004512:	b480      	push	{r7}
 8004514:	b085      	sub	sp, #20
 8004516:	af00      	add	r7, sp, #0
 8004518:	6078      	str	r0, [r7, #4]
  HAL_StatusTypeDef status = HAL_OK;
 800451a:	2300      	movs	r3, #0
 800451c:	73fb      	strb	r3, [r7, #15]
  
  if(hdma->State != HAL_DMA_STATE_BUSY)
 800451e:	687b      	ldr	r3, [r7, #4]
 8004520:	f893 3021 	ldrb.w	r3, [r3, #33]	; 0x21
 8004524:	2b02      	cmp	r3, #2
 8004526:	d008      	beq.n	800453a <HAL_DMA_Abort+0x28>
  {
    /* no transfer ongoing */
    hdma->ErrorCode = HAL_DMA_ERROR_NO_XFER;
 8004528:	687b      	ldr	r3, [r7, #4]
 800452a:	2204      	movs	r2, #4
 800452c:	639a      	str	r2, [r3, #56]	; 0x38
    
    /* Process Unlocked */
    __HAL_UNLOCK(hdma);
 800452e:	687b      	ldr	r3, [r7, #4]
 8004530:	2200      	movs	r2, #0
 8004532:	f883 2020 	strb.w	r2, [r3, #32]
    
    return HAL_ERROR;
 8004536:	2301      	movs	r3, #1
 8004538:	e020      	b.n	800457c <HAL_DMA_Abort+0x6a>
  }
  else

  {
    /* Disable DMA IT */
    __HAL_DMA_DISABLE_IT(hdma, (DMA_IT_TC | DMA_IT_HT | DMA_IT_TE));
 800453a:	687b      	ldr	r3, [r7, #4]
 800453c:	681b      	ldr	r3, [r3, #0]
 800453e:	681a      	ldr	r2, [r3, #0]
 8004540:	687b      	ldr	r3, [r7, #4]
 8004542:	681b      	ldr	r3, [r3, #0]
 8004544:	f022 020e 	bic.w	r2, r2, #14
 8004548:	601a      	str	r2, [r3, #0]
      
    /* Disable the channel */
    __HAL_DMA_DISABLE(hdma);
 800454a:	687b      	ldr	r3, [r7, #4]
 800454c:	681b      	ldr	r3, [r3, #0]
 800454e:	681a      	ldr	r2, [r3, #0]
 8004550:	687b      	ldr	r3, [r7, #4]
 8004552:	681b      	ldr	r3, [r3, #0]
 8004554:	f022 0201 	bic.w	r2, r2, #1
 8004558:	601a      	str	r2, [r3, #0]
      
    /* Clear all flags */
    hdma->DmaBaseAddress->IFCR = (DMA_ISR_GIF1 << hdma->ChannelIndex);
 800455a:	687b      	ldr	r3, [r7, #4]
 800455c:	6c1a      	ldr	r2, [r3, #64]	; 0x40
 800455e:	687b      	ldr	r3, [r7, #4]
 8004560:	6bdb      	ldr	r3, [r3, #60]	; 0x3c
 8004562:	2101      	movs	r1, #1
 8004564:	fa01 f202 	lsl.w	r2, r1, r2
 8004568:	605a      	str	r2, [r3, #4]
  }
  /* Change the DMA state */
  hdma->State = HAL_DMA_STATE_READY;
 800456a:	687b      	ldr	r3, [r7, #4]
 800456c:	2201      	movs	r2, #1
 800456e:	f883 2021 	strb.w	r2, [r3, #33]	; 0x21

  /* Process Unlocked */
  __HAL_UNLOCK(hdma);      
 8004572:	687b      	ldr	r3, [r7, #4]
 8004574:	2200      	movs	r2, #0
 8004576:	f883 2020 	strb.w	r2, [r3, #32]
  
  return status; 
 800457a:	7bfb      	ldrb	r3, [r7, #15]
}
 800457c:	4618      	mov	r0, r3
 800457e:	3714      	adds	r7, #20
 8004580:	46bd      	mov	sp, r7
 8004582:	bc80      	pop	{r7}
 8004584:	4770      	bx	lr
	...

08004588 <HAL_DMA_Abort_IT>:
  * @param  hdma  : pointer to a DMA_HandleTypeDef structure that contains
  *                 the configuration information for the specified DMA Channel.
  * @retval HAL status
  */
HAL_StatusTypeDef HAL_DMA_Abort_IT(DMA_HandleTypeDef *hdma)
{  
 8004588:	b580      	push	{r7, lr}
 800458a:	b084      	sub	sp, #16
 800458c:	af00      	add	r7, sp, #0
 800458e:	6078      	str	r0, [r7, #4]
  HAL_StatusTypeDef status = HAL_OK;
 8004590:	2300      	movs	r3, #0
 8004592:	73fb      	strb	r3, [r7, #15]
  
  if(HAL_DMA_STATE_BUSY != hdma->State)
 8004594:	687b      	ldr	r3, [r7, #4]
 8004596:	f893 3021 	ldrb.w	r3, [r3, #33]	; 0x21
 800459a:	2b02      	cmp	r3, #2
 800459c:	d005      	beq.n	80045aa <HAL_DMA_Abort_IT+0x22>
  {
    /* no transfer ongoing */
    hdma->ErrorCode = HAL_DMA_ERROR_NO_XFER;
 800459e:	687b      	ldr	r3, [r7, #4]
 80045a0:	2204      	movs	r2, #4
 80045a2:	639a      	str	r2, [r3, #56]	; 0x38
        
    status = HAL_ERROR;
 80045a4:	2301      	movs	r3, #1
 80045a6:	73fb      	strb	r3, [r7, #15]
 80045a8:	e051      	b.n	800464e <HAL_DMA_Abort_IT+0xc6>
  }
  else
  { 
    /* Disable DMA IT */
    __HAL_DMA_DISABLE_IT(hdma, (DMA_IT_TC | DMA_IT_HT | DMA_IT_TE));
 80045aa:	687b      	ldr	r3, [r7, #4]
 80045ac:	681b      	ldr	r3, [r3, #0]
 80045ae:	681a      	ldr	r2, [r3, #0]
 80045b0:	687b      	ldr	r3, [r7, #4]
 80045b2:	681b      	ldr	r3, [r3, #0]
 80045b4:	f022 020e 	bic.w	r2, r2, #14
 80045b8:	601a      	str	r2, [r3, #0]

    /* Disable the channel */
    __HAL_DMA_DISABLE(hdma);
 80045ba:	687b      	ldr	r3, [r7, #4]
 80045bc:	681b      	ldr	r3, [r3, #0]
 80045be:	681a      	ldr	r2, [r3, #0]
 80045c0:	687b      	ldr	r3, [r7, #4]
 80045c2:	681b      	ldr	r3, [r3, #0]
 80045c4:	f022 0201 	bic.w	r2, r2, #1
 80045c8:	601a      	str	r2, [r3, #0]

    /* Clear all flags */
    __HAL_DMA_CLEAR_FLAG(hdma, __HAL_DMA_GET_GI_FLAG_INDEX(hdma));
 80045ca:	687b      	ldr	r3, [r7, #4]
 80045cc:	681b      	ldr	r3, [r3, #0]
 80045ce:	4a22      	ldr	r2, [pc, #136]	; (8004658 <HAL_DMA_Abort_IT+0xd0>)
 80045d0:	4293      	cmp	r3, r2
 80045d2:	d029      	beq.n	8004628 <HAL_DMA_Abort_IT+0xa0>
 80045d4:	687b      	ldr	r3, [r7, #4]
 80045d6:	681b      	ldr	r3, [r3, #0]
 80045d8:	4a20      	ldr	r2, [pc, #128]	; (800465c <HAL_DMA_Abort_IT+0xd4>)
 80045da:	4293      	cmp	r3, r2
 80045dc:	d022      	beq.n	8004624 <HAL_DMA_Abort_IT+0x9c>
 80045de:	687b      	ldr	r3, [r7, #4]
 80045e0:	681b      	ldr	r3, [r3, #0]
 80045e2:	4a1f      	ldr	r2, [pc, #124]	; (8004660 <HAL_DMA_Abort_IT+0xd8>)
 80045e4:	4293      	cmp	r3, r2
 80045e6:	d01a      	beq.n	800461e <HAL_DMA_Abort_IT+0x96>
 80045e8:	687b      	ldr	r3, [r7, #4]
 80045ea:	681b      	ldr	r3, [r3, #0]
 80045ec:	4a1d      	ldr	r2, [pc, #116]	; (8004664 <HAL_DMA_Abort_IT+0xdc>)
 80045ee:	4293      	cmp	r3, r2
 80045f0:	d012      	beq.n	8004618 <HAL_DMA_Abort_IT+0x90>
 80045f2:	687b      	ldr	r3, [r7, #4]
 80045f4:	681b      	ldr	r3, [r3, #0]
 80045f6:	4a1c      	ldr	r2, [pc, #112]	; (8004668 <HAL_DMA_Abort_IT+0xe0>)
 80045f8:	4293      	cmp	r3, r2
 80045fa:	d00a      	beq.n	8004612 <HAL_DMA_Abort_IT+0x8a>
 80045fc:	687b      	ldr	r3, [r7, #4]
 80045fe:	681b      	ldr	r3, [r3, #0]
 8004600:	4a1a      	ldr	r2, [pc, #104]	; (800466c <HAL_DMA_Abort_IT+0xe4>)
 8004602:	4293      	cmp	r3, r2
 8004604:	d102      	bne.n	800460c <HAL_DMA_Abort_IT+0x84>
 8004606:	f44f 1380 	mov.w	r3, #1048576	; 0x100000
 800460a:	e00e      	b.n	800462a <HAL_DMA_Abort_IT+0xa2>
 800460c:	f04f 7380 	mov.w	r3, #16777216	; 0x1000000
 8004610:	e00b      	b.n	800462a <HAL_DMA_Abort_IT+0xa2>
 8004612:	f44f 3380 	mov.w	r3, #65536	; 0x10000
 8004616:	e008      	b.n	800462a <HAL_DMA_Abort_IT+0xa2>
 8004618:	f44f 5380 	mov.w	r3, #4096	; 0x1000
 800461c:	e005      	b.n	800462a <HAL_DMA_Abort_IT+0xa2>
 800461e:	f44f 7380 	mov.w	r3, #256	; 0x100
 8004622:	e002      	b.n	800462a <HAL_DMA_Abort_IT+0xa2>
 8004624:	2310      	movs	r3, #16
 8004626:	e000      	b.n	800462a <HAL_DMA_Abort_IT+0xa2>
 8004628:	2301      	movs	r3, #1
 800462a:	4a11      	ldr	r2, [pc, #68]	; (8004670 <HAL_DMA_Abort_IT+0xe8>)
 800462c:	6053      	str	r3, [r2, #4]

    /* Change the DMA state */
    hdma->State = HAL_DMA_STATE_READY;
 800462e:	687b      	ldr	r3, [r7, #4]
 8004630:	2201      	movs	r2, #1
 8004632:	f883 2021 	strb.w	r2, [r3, #33]	; 0x21

    /* Process Unlocked */
    __HAL_UNLOCK(hdma);
 8004636:	687b      	ldr	r3, [r7, #4]
 8004638:	2200      	movs	r2, #0
 800463a:	f883 2020 	strb.w	r2, [r3, #32]

    /* Call User Abort callback */
    if(hdma->XferAbortCallback != NULL)
 800463e:	687b      	ldr	r3, [r7, #4]
 8004640:	6b5b      	ldr	r3, [r3, #52]	; 0x34
 8004642:	2b00      	cmp	r3, #0
 8004644:	d003      	beq.n	800464e <HAL_DMA_Abort_IT+0xc6>
    {
      hdma->XferAbortCallback(hdma);
 8004646:	687b      	ldr	r3, [r7, #4]
 8004648:	6b5b      	ldr	r3, [r3, #52]	; 0x34
 800464a:	6878      	ldr	r0, [r7, #4]
 800464c:	4798      	blx	r3
    } 
  }
  return status;
 800464e:	7bfb      	ldrb	r3, [r7, #15]
}
 8004650:	4618      	mov	r0, r3
 8004652:	3710      	adds	r7, #16
 8004654:	46bd      	mov	sp, r7
 8004656:	bd80      	pop	{r7, pc}
 8004658:	40020008 	.word	0x40020008
 800465c:	4002001c 	.word	0x4002001c
 8004660:	40020030 	.word	0x40020030
 8004664:	40020044 	.word	0x40020044
 8004668:	40020058 	.word	0x40020058
 800466c:	4002006c 	.word	0x4002006c
 8004670:	40020000 	.word	0x40020000

08004674 <HAL_GPIO_Init>:
  * @param  GPIO_Init: pointer to a GPIO_InitTypeDef structure that contains
  *         the configuration information for the specified GPIO peripheral.
  * @retval None
  */
void HAL_GPIO_Init(GPIO_TypeDef  *GPIOx, GPIO_InitTypeDef *GPIO_Init)
{
 8004674:	b480      	push	{r7}
 8004676:	b08b      	sub	sp, #44	; 0x2c
 8004678:	af00      	add	r7, sp, #0
 800467a:	6078      	str	r0, [r7, #4]
 800467c:	6039      	str	r1, [r7, #0]
  uint32_t position = 0x00u;
 800467e:	2300      	movs	r3, #0
 8004680:	627b      	str	r3, [r7, #36]	; 0x24
  uint32_t ioposition;
  uint32_t iocurrent;
  uint32_t temp;
  uint32_t config = 0x00u;
 8004682:	2300      	movs	r3, #0
 8004684:	623b      	str	r3, [r7, #32]
  assert_param(IS_GPIO_ALL_INSTANCE(GPIOx));
  assert_param(IS_GPIO_PIN(GPIO_Init->Pin));
  assert_param(IS_GPIO_MODE(GPIO_Init->Mode));

  /* Configure the port pins */
  while (((GPIO_Init->Pin) >> position) != 0x00u)
 8004686:	e169      	b.n	800495c <HAL_GPIO_Init+0x2e8>
  {
    /* Get the IO position */
    ioposition = (0x01uL << position);
 8004688:	2201      	movs	r2, #1
 800468a:	6a7b      	ldr	r3, [r7, #36]	; 0x24
 800468c:	fa02 f303 	lsl.w	r3, r2, r3
 8004690:	61fb      	str	r3, [r7, #28]

    /* Get the current IO position */
    iocurrent = (uint32_t)(GPIO_Init->Pin) & ioposition;
 8004692:	683b      	ldr	r3, [r7, #0]
 8004694:	681b      	ldr	r3, [r3, #0]
 8004696:	69fa      	ldr	r2, [r7, #28]
 8004698:	4013      	ands	r3, r2
 800469a:	61bb      	str	r3, [r7, #24]

    if (iocurrent == ioposition)
 800469c:	69ba      	ldr	r2, [r7, #24]
 800469e:	69fb      	ldr	r3, [r7, #28]
 80046a0:	429a      	cmp	r2, r3
 80046a2:	f040 8158 	bne.w	8004956 <HAL_GPIO_Init+0x2e2>
    {
      /* Check the Alternate function parameters */
      assert_param(IS_GPIO_AF_INSTANCE(GPIOx));

      /* Based on the required mode, filling config variable with MODEy[1:0] and CNFy[3:2] corresponding bits */
      switch (GPIO_Init->Mode)
 80046a6:	683b      	ldr	r3, [r7, #0]
 80046a8:	685b      	ldr	r3, [r3, #4]
 80046aa:	4a9a      	ldr	r2, [pc, #616]	; (8004914 <HAL_GPIO_Init+0x2a0>)
 80046ac:	4293      	cmp	r3, r2
 80046ae:	d05e      	beq.n	800476e <HAL_GPIO_Init+0xfa>
 80046b0:	4a98      	ldr	r2, [pc, #608]	; (8004914 <HAL_GPIO_Init+0x2a0>)
 80046b2:	4293      	cmp	r3, r2
 80046b4:	d875      	bhi.n	80047a2 <HAL_GPIO_Init+0x12e>
 80046b6:	4a98      	ldr	r2, [pc, #608]	; (8004918 <HAL_GPIO_Init+0x2a4>)
 80046b8:	4293      	cmp	r3, r2
 80046ba:	d058      	beq.n	800476e <HAL_GPIO_Init+0xfa>
 80046bc:	4a96      	ldr	r2, [pc, #600]	; (8004918 <HAL_GPIO_Init+0x2a4>)
 80046be:	4293      	cmp	r3, r2
 80046c0:	d86f      	bhi.n	80047a2 <HAL_GPIO_Init+0x12e>
 80046c2:	4a96      	ldr	r2, [pc, #600]	; (800491c <HAL_GPIO_Init+0x2a8>)
 80046c4:	4293      	cmp	r3, r2
 80046c6:	d052      	beq.n	800476e <HAL_GPIO_Init+0xfa>
 80046c8:	4a94      	ldr	r2, [pc, #592]	; (800491c <HAL_GPIO_Init+0x2a8>)
 80046ca:	4293      	cmp	r3, r2
 80046cc:	d869      	bhi.n	80047a2 <HAL_GPIO_Init+0x12e>
 80046ce:	4a94      	ldr	r2, [pc, #592]	; (8004920 <HAL_GPIO_Init+0x2ac>)
 80046d0:	4293      	cmp	r3, r2
 80046d2:	d04c      	beq.n	800476e <HAL_GPIO_Init+0xfa>
 80046d4:	4a92      	ldr	r2, [pc, #584]	; (8004920 <HAL_GPIO_Init+0x2ac>)
 80046d6:	4293      	cmp	r3, r2
 80046d8:	d863      	bhi.n	80047a2 <HAL_GPIO_Init+0x12e>
 80046da:	4a92      	ldr	r2, [pc, #584]	; (8004924 <HAL_GPIO_Init+0x2b0>)
 80046dc:	4293      	cmp	r3, r2
 80046de:	d046      	beq.n	800476e <HAL_GPIO_Init+0xfa>
 80046e0:	4a90      	ldr	r2, [pc, #576]	; (8004924 <HAL_GPIO_Init+0x2b0>)
 80046e2:	4293      	cmp	r3, r2
 80046e4:	d85d      	bhi.n	80047a2 <HAL_GPIO_Init+0x12e>
 80046e6:	2b12      	cmp	r3, #18
 80046e8:	d82a      	bhi.n	8004740 <HAL_GPIO_Init+0xcc>
 80046ea:	2b12      	cmp	r3, #18
 80046ec:	d859      	bhi.n	80047a2 <HAL_GPIO_Init+0x12e>
 80046ee:	a201      	add	r2, pc, #4	; (adr r2, 80046f4 <HAL_GPIO_Init+0x80>)
 80046f0:	f852 f023 	ldr.w	pc, [r2, r3, lsl #2]
 80046f4:	0800476f 	.word	0x0800476f
 80046f8:	08004749 	.word	0x08004749
 80046fc:	0800475b 	.word	0x0800475b
 8004700:	0800479d 	.word	0x0800479d
 8004704:	080047a3 	.word	0x080047a3
 8004708:	080047a3 	.word	0x080047a3
 800470c:	080047a3 	.word	0x080047a3
 8004710:	080047a3 	.word	0x080047a3
 8004714:	080047a3 	.word	0x080047a3
 8004718:	080047a3 	.word	0x080047a3
 800471c:	080047a3 	.word	0x080047a3
 8004720:	080047a3 	.word	0x080047a3
 8004724:	080047a3 	.word	0x080047a3
 8004728:	080047a3 	.word	0x080047a3
 800472c:	080047a3 	.word	0x080047a3
 8004730:	080047a3 	.word	0x080047a3
 8004734:	080047a3 	.word	0x080047a3
 8004738:	08004751 	.word	0x08004751
 800473c:	08004765 	.word	0x08004765
 8004740:	4a79      	ldr	r2, [pc, #484]	; (8004928 <HAL_GPIO_Init+0x2b4>)
 8004742:	4293      	cmp	r3, r2
 8004744:	d013      	beq.n	800476e <HAL_GPIO_Init+0xfa>
          config = GPIO_CR_MODE_INPUT + GPIO_CR_CNF_ANALOG;
          break;

        /* Parameters are checked with assert_param */
        default:
          break;
 8004746:	e02c      	b.n	80047a2 <HAL_GPIO_Init+0x12e>
          config = GPIO_Init->Speed + GPIO_CR_CNF_GP_OUTPUT_PP;
 8004748:	683b      	ldr	r3, [r7, #0]
 800474a:	68db      	ldr	r3, [r3, #12]
 800474c:	623b      	str	r3, [r7, #32]
          break;
 800474e:	e029      	b.n	80047a4 <HAL_GPIO_Init+0x130>
          config = GPIO_Init->Speed + GPIO_CR_CNF_GP_OUTPUT_OD;
 8004750:	683b      	ldr	r3, [r7, #0]
 8004752:	68db      	ldr	r3, [r3, #12]
 8004754:	3304      	adds	r3, #4
 8004756:	623b      	str	r3, [r7, #32]
          break;
 8004758:	e024      	b.n	80047a4 <HAL_GPIO_Init+0x130>
          config = GPIO_Init->Speed + GPIO_CR_CNF_AF_OUTPUT_PP;
 800475a:	683b      	ldr	r3, [r7, #0]
 800475c:	68db      	ldr	r3, [r3, #12]
 800475e:	3308      	adds	r3, #8
 8004760:	623b      	str	r3, [r7, #32]
          break;
 8004762:	e01f      	b.n	80047a4 <HAL_GPIO_Init+0x130>
          config = GPIO_Init->Speed + GPIO_CR_CNF_AF_OUTPUT_OD;
 8004764:	683b      	ldr	r3, [r7, #0]
 8004766:	68db      	ldr	r3, [r3, #12]
 8004768:	330c      	adds	r3, #12
 800476a:	623b      	str	r3, [r7, #32]
          break;
 800476c:	e01a      	b.n	80047a4 <HAL_GPIO_Init+0x130>
          if (GPIO_Init->Pull == GPIO_NOPULL)
 800476e:	683b      	ldr	r3, [r7, #0]
 8004770:	689b      	ldr	r3, [r3, #8]
 8004772:	2b00      	cmp	r3, #0
 8004774:	d102      	bne.n	800477c <HAL_GPIO_Init+0x108>
            config = GPIO_CR_MODE_INPUT + GPIO_CR_CNF_INPUT_FLOATING;
 8004776:	2304      	movs	r3, #4
 8004778:	623b      	str	r3, [r7, #32]
          break;
 800477a:	e013      	b.n	80047a4 <HAL_GPIO_Init+0x130>
          else if (GPIO_Init->Pull == GPIO_PULLUP)
 800477c:	683b      	ldr	r3, [r7, #0]
 800477e:	689b      	ldr	r3, [r3, #8]
 8004780:	2b01      	cmp	r3, #1
 8004782:	d105      	bne.n	8004790 <HAL_GPIO_Init+0x11c>
            config = GPIO_CR_MODE_INPUT + GPIO_CR_CNF_INPUT_PU_PD;
 8004784:	2308      	movs	r3, #8
 8004786:	623b      	str	r3, [r7, #32]
            GPIOx->BSRR = ioposition;
 8004788:	687b      	ldr	r3, [r7, #4]
 800478a:	69fa      	ldr	r2, [r7, #28]
 800478c:	611a      	str	r2, [r3, #16]
          break;
 800478e:	e009      	b.n	80047a4 <HAL_GPIO_Init+0x130>
            config = GPIO_CR_MODE_INPUT + GPIO_CR_CNF_INPUT_PU_PD;
 8004790:	2308      	movs	r3, #8
 8004792:	623b      	str	r3, [r7, #32]
            GPIOx->BRR = ioposition;
 8004794:	687b      	ldr	r3, [r7, #4]
 8004796:	69fa      	ldr	r2, [r7, #28]
 8004798:	615a      	str	r2, [r3, #20]
          break;
 800479a:	e003      	b.n	80047a4 <HAL_GPIO_Init+0x130>
          config = GPIO_CR_MODE_INPUT + GPIO_CR_CNF_ANALOG;
 800479c:	2300      	movs	r3, #0
 800479e:	623b      	str	r3, [r7, #32]
          break;
 80047a0:	e000      	b.n	80047a4 <HAL_GPIO_Init+0x130>
          break;
 80047a2:	bf00      	nop
      }

      /* Check if the current bit belongs to first half or last half of the pin count number
       in order to address CRH or CRL register*/
      configregister = (iocurrent < GPIO_PIN_8) ? &GPIOx->CRL     : &GPIOx->CRH;
 80047a4:	69bb      	ldr	r3, [r7, #24]
 80047a6:	2bff      	cmp	r3, #255	; 0xff
 80047a8:	d801      	bhi.n	80047ae <HAL_GPIO_Init+0x13a>
 80047aa:	687b      	ldr	r3, [r7, #4]
 80047ac:	e001      	b.n	80047b2 <HAL_GPIO_Init+0x13e>
 80047ae:	687b      	ldr	r3, [r7, #4]
 80047b0:	3304      	adds	r3, #4
 80047b2:	617b      	str	r3, [r7, #20]
      registeroffset = (iocurrent < GPIO_PIN_8) ? (position << 2u) : ((position - 8u) << 2u);
 80047b4:	69bb      	ldr	r3, [r7, #24]
 80047b6:	2bff      	cmp	r3, #255	; 0xff
 80047b8:	d802      	bhi.n	80047c0 <HAL_GPIO_Init+0x14c>
 80047ba:	6a7b      	ldr	r3, [r7, #36]	; 0x24
 80047bc:	009b      	lsls	r3, r3, #2
 80047be:	e002      	b.n	80047c6 <HAL_GPIO_Init+0x152>
 80047c0:	6a7b      	ldr	r3, [r7, #36]	; 0x24
 80047c2:	3b08      	subs	r3, #8
 80047c4:	009b      	lsls	r3, r3, #2
 80047c6:	613b      	str	r3, [r7, #16]

      /* Apply the new configuration of the pin to the register */
      MODIFY_REG((*configregister), ((GPIO_CRL_MODE0 | GPIO_CRL_CNF0) << registeroffset), (config << registeroffset));
 80047c8:	697b      	ldr	r3, [r7, #20]
 80047ca:	681a      	ldr	r2, [r3, #0]
 80047cc:	210f      	movs	r1, #15
 80047ce:	693b      	ldr	r3, [r7, #16]
 80047d0:	fa01 f303 	lsl.w	r3, r1, r3
 80047d4:	43db      	mvns	r3, r3
 80047d6:	401a      	ands	r2, r3
 80047d8:	6a39      	ldr	r1, [r7, #32]
 80047da:	693b      	ldr	r3, [r7, #16]
 80047dc:	fa01 f303 	lsl.w	r3, r1, r3
 80047e0:	431a      	orrs	r2, r3
 80047e2:	697b      	ldr	r3, [r7, #20]
 80047e4:	601a      	str	r2, [r3, #0]

      /*--------------------- EXTI Mode Configuration ------------------------*/
      /* Configure the External Interrupt or event for the current IO */
      if ((GPIO_Init->Mode & EXTI_MODE) == EXTI_MODE)
 80047e6:	683b      	ldr	r3, [r7, #0]
 80047e8:	685b      	ldr	r3, [r3, #4]
 80047ea:	f003 5380 	and.w	r3, r3, #268435456	; 0x10000000
 80047ee:	2b00      	cmp	r3, #0
 80047f0:	f000 80b1 	beq.w	8004956 <HAL_GPIO_Init+0x2e2>
      {
        /* Enable AFIO Clock */
        __HAL_RCC_AFIO_CLK_ENABLE();
 80047f4:	4b4d      	ldr	r3, [pc, #308]	; (800492c <HAL_GPIO_Init+0x2b8>)
 80047f6:	699b      	ldr	r3, [r3, #24]
 80047f8:	4a4c      	ldr	r2, [pc, #304]	; (800492c <HAL_GPIO_Init+0x2b8>)
 80047fa:	f043 0301 	orr.w	r3, r3, #1
 80047fe:	6193      	str	r3, [r2, #24]
 8004800:	4b4a      	ldr	r3, [pc, #296]	; (800492c <HAL_GPIO_Init+0x2b8>)
 8004802:	699b      	ldr	r3, [r3, #24]
 8004804:	f003 0301 	and.w	r3, r3, #1
 8004808:	60bb      	str	r3, [r7, #8]
 800480a:	68bb      	ldr	r3, [r7, #8]
        temp = AFIO->EXTICR[position >> 2u];
 800480c:	4a48      	ldr	r2, [pc, #288]	; (8004930 <HAL_GPIO_Init+0x2bc>)
 800480e:	6a7b      	ldr	r3, [r7, #36]	; 0x24
 8004810:	089b      	lsrs	r3, r3, #2
 8004812:	3302      	adds	r3, #2
 8004814:	f852 3023 	ldr.w	r3, [r2, r3, lsl #2]
 8004818:	60fb      	str	r3, [r7, #12]
        CLEAR_BIT(temp, (0x0Fu) << (4u * (position & 0x03u)));
 800481a:	6a7b      	ldr	r3, [r7, #36]	; 0x24
 800481c:	f003 0303 	and.w	r3, r3, #3
 8004820:	009b      	lsls	r3, r3, #2
 8004822:	220f      	movs	r2, #15
 8004824:	fa02 f303 	lsl.w	r3, r2, r3
 8004828:	43db      	mvns	r3, r3
 800482a:	68fa      	ldr	r2, [r7, #12]
 800482c:	4013      	ands	r3, r2
 800482e:	60fb      	str	r3, [r7, #12]
        SET_BIT(temp, (GPIO_GET_INDEX(GPIOx)) << (4u * (position & 0x03u)));
 8004830:	687b      	ldr	r3, [r7, #4]
 8004832:	4a40      	ldr	r2, [pc, #256]	; (8004934 <HAL_GPIO_Init+0x2c0>)
 8004834:	4293      	cmp	r3, r2
 8004836:	d013      	beq.n	8004860 <HAL_GPIO_Init+0x1ec>
 8004838:	687b      	ldr	r3, [r7, #4]
 800483a:	4a3f      	ldr	r2, [pc, #252]	; (8004938 <HAL_GPIO_Init+0x2c4>)
 800483c:	4293      	cmp	r3, r2
 800483e:	d00d      	beq.n	800485c <HAL_GPIO_Init+0x1e8>
 8004840:	687b      	ldr	r3, [r7, #4]
 8004842:	4a3e      	ldr	r2, [pc, #248]	; (800493c <HAL_GPIO_Init+0x2c8>)
 8004844:	4293      	cmp	r3, r2
 8004846:	d007      	beq.n	8004858 <HAL_GPIO_Init+0x1e4>
 8004848:	687b      	ldr	r3, [r7, #4]
 800484a:	4a3d      	ldr	r2, [pc, #244]	; (8004940 <HAL_GPIO_Init+0x2cc>)
 800484c:	4293      	cmp	r3, r2
 800484e:	d101      	bne.n	8004854 <HAL_GPIO_Init+0x1e0>
 8004850:	2303      	movs	r3, #3
 8004852:	e006      	b.n	8004862 <HAL_GPIO_Init+0x1ee>
 8004854:	2304      	movs	r3, #4
 8004856:	e004      	b.n	8004862 <HAL_GPIO_Init+0x1ee>
 8004858:	2302      	movs	r3, #2
 800485a:	e002      	b.n	8004862 <HAL_GPIO_Init+0x1ee>
 800485c:	2301      	movs	r3, #1
 800485e:	e000      	b.n	8004862 <HAL_GPIO_Init+0x1ee>
 8004860:	2300      	movs	r3, #0
 8004862:	6a7a      	ldr	r2, [r7, #36]	; 0x24
 8004864:	f002 0203 	and.w	r2, r2, #3
 8004868:	0092      	lsls	r2, r2, #2
 800486a:	4093      	lsls	r3, r2
 800486c:	68fa      	ldr	r2, [r7, #12]
 800486e:	4313      	orrs	r3, r2
 8004870:	60fb      	str	r3, [r7, #12]
        AFIO->EXTICR[position >> 2u] = temp;
 8004872:	492f      	ldr	r1, [pc, #188]	; (8004930 <HAL_GPIO_Init+0x2bc>)
 8004874:	6a7b      	ldr	r3, [r7, #36]	; 0x24
 8004876:	089b      	lsrs	r3, r3, #2
 8004878:	3302      	adds	r3, #2
 800487a:	68fa      	ldr	r2, [r7, #12]
 800487c:	f841 2023 	str.w	r2, [r1, r3, lsl #2]


        /* Configure the interrupt mask */
        if ((GPIO_Init->Mode & GPIO_MODE_IT) == GPIO_MODE_IT)
 8004880:	683b      	ldr	r3, [r7, #0]
 8004882:	685b      	ldr	r3, [r3, #4]
 8004884:	f403 3380 	and.w	r3, r3, #65536	; 0x10000
 8004888:	2b00      	cmp	r3, #0
 800488a:	d006      	beq.n	800489a <HAL_GPIO_Init+0x226>
        {
          SET_BIT(EXTI->IMR, iocurrent);
 800488c:	4b2d      	ldr	r3, [pc, #180]	; (8004944 <HAL_GPIO_Init+0x2d0>)
 800488e:	681a      	ldr	r2, [r3, #0]
 8004890:	492c      	ldr	r1, [pc, #176]	; (8004944 <HAL_GPIO_Init+0x2d0>)
 8004892:	69bb      	ldr	r3, [r7, #24]
 8004894:	4313      	orrs	r3, r2
 8004896:	600b      	str	r3, [r1, #0]
 8004898:	e006      	b.n	80048a8 <HAL_GPIO_Init+0x234>
        }
        else
        {
          CLEAR_BIT(EXTI->IMR, iocurrent);
 800489a:	4b2a      	ldr	r3, [pc, #168]	; (8004944 <HAL_GPIO_Init+0x2d0>)
 800489c:	681a      	ldr	r2, [r3, #0]
 800489e:	69bb      	ldr	r3, [r7, #24]
 80048a0:	43db      	mvns	r3, r3
 80048a2:	4928      	ldr	r1, [pc, #160]	; (8004944 <HAL_GPIO_Init+0x2d0>)
 80048a4:	4013      	ands	r3, r2
 80048a6:	600b      	str	r3, [r1, #0]
        }

        /* Configure the event mask */
        if ((GPIO_Init->Mode & GPIO_MODE_EVT) == GPIO_MODE_EVT)
 80048a8:	683b      	ldr	r3, [r7, #0]
 80048aa:	685b      	ldr	r3, [r3, #4]
 80048ac:	f403 3300 	and.w	r3, r3, #131072	; 0x20000
 80048b0:	2b00      	cmp	r3, #0
 80048b2:	d006      	beq.n	80048c2 <HAL_GPIO_Init+0x24e>
        {
          SET_BIT(EXTI->EMR, iocurrent);
 80048b4:	4b23      	ldr	r3, [pc, #140]	; (8004944 <HAL_GPIO_Init+0x2d0>)
 80048b6:	685a      	ldr	r2, [r3, #4]
 80048b8:	4922      	ldr	r1, [pc, #136]	; (8004944 <HAL_GPIO_Init+0x2d0>)
 80048ba:	69bb      	ldr	r3, [r7, #24]
 80048bc:	4313      	orrs	r3, r2
 80048be:	604b      	str	r3, [r1, #4]
 80048c0:	e006      	b.n	80048d0 <HAL_GPIO_Init+0x25c>
        }
        else
        {
          CLEAR_BIT(EXTI->EMR, iocurrent);
 80048c2:	4b20      	ldr	r3, [pc, #128]	; (8004944 <HAL_GPIO_Init+0x2d0>)
 80048c4:	685a      	ldr	r2, [r3, #4]
 80048c6:	69bb      	ldr	r3, [r7, #24]
 80048c8:	43db      	mvns	r3, r3
 80048ca:	491e      	ldr	r1, [pc, #120]	; (8004944 <HAL_GPIO_Init+0x2d0>)
 80048cc:	4013      	ands	r3, r2
 80048ce:	604b      	str	r3, [r1, #4]
        }

        /* Enable or disable the rising trigger */
        if ((GPIO_Init->Mode & RISING_EDGE) == RISING_EDGE)
 80048d0:	683b      	ldr	r3, [r7, #0]
 80048d2:	685b      	ldr	r3, [r3, #4]
 80048d4:	f403 1380 	and.w	r3, r3, #1048576	; 0x100000
 80048d8:	2b00      	cmp	r3, #0
 80048da:	d006      	beq.n	80048ea <HAL_GPIO_Init+0x276>
        {
          SET_BIT(EXTI->RTSR, iocurrent);
 80048dc:	4b19      	ldr	r3, [pc, #100]	; (8004944 <HAL_GPIO_Init+0x2d0>)
 80048de:	689a      	ldr	r2, [r3, #8]
 80048e0:	4918      	ldr	r1, [pc, #96]	; (8004944 <HAL_GPIO_Init+0x2d0>)
 80048e2:	69bb      	ldr	r3, [r7, #24]
 80048e4:	4313      	orrs	r3, r2
 80048e6:	608b      	str	r3, [r1, #8]
 80048e8:	e006      	b.n	80048f8 <HAL_GPIO_Init+0x284>
        }
        else
        {
          CLEAR_BIT(EXTI->RTSR, iocurrent);
 80048ea:	4b16      	ldr	r3, [pc, #88]	; (8004944 <HAL_GPIO_Init+0x2d0>)
 80048ec:	689a      	ldr	r2, [r3, #8]
 80048ee:	69bb      	ldr	r3, [r7, #24]
 80048f0:	43db      	mvns	r3, r3
 80048f2:	4914      	ldr	r1, [pc, #80]	; (8004944 <HAL_GPIO_Init+0x2d0>)
 80048f4:	4013      	ands	r3, r2
 80048f6:	608b      	str	r3, [r1, #8]
        }

        /* Enable or disable the falling trigger */
        if ((GPIO_Init->Mode & FALLING_EDGE) == FALLING_EDGE)
 80048f8:	683b      	ldr	r3, [r7, #0]
 80048fa:	685b      	ldr	r3, [r3, #4]
 80048fc:	f403 1300 	and.w	r3, r3, #2097152	; 0x200000
 8004900:	2b00      	cmp	r3, #0
 8004902:	d021      	beq.n	8004948 <HAL_GPIO_Init+0x2d4>
        {
          SET_BIT(EXTI->FTSR, iocurrent);
 8004904:	4b0f      	ldr	r3, [pc, #60]	; (8004944 <HAL_GPIO_Init+0x2d0>)
 8004906:	68da      	ldr	r2, [r3, #12]
 8004908:	490e      	ldr	r1, [pc, #56]	; (8004944 <HAL_GPIO_Init+0x2d0>)
 800490a:	69bb      	ldr	r3, [r7, #24]
 800490c:	4313      	orrs	r3, r2
 800490e:	60cb      	str	r3, [r1, #12]
 8004910:	e021      	b.n	8004956 <HAL_GPIO_Init+0x2e2>
 8004912:	bf00      	nop
 8004914:	10320000 	.word	0x10320000
 8004918:	10310000 	.word	0x10310000
 800491c:	10220000 	.word	0x10220000
 8004920:	10210000 	.word	0x10210000
 8004924:	10120000 	.word	0x10120000
 8004928:	10110000 	.word	0x10110000
 800492c:	40021000 	.word	0x40021000
 8004930:	40010000 	.word	0x40010000
 8004934:	40010800 	.word	0x40010800
 8004938:	40010c00 	.word	0x40010c00
 800493c:	40011000 	.word	0x40011000
 8004940:	40011400 	.word	0x40011400
 8004944:	40010400 	.word	0x40010400
        }
        else
        {
          CLEAR_BIT(EXTI->FTSR, iocurrent);
 8004948:	4b0b      	ldr	r3, [pc, #44]	; (8004978 <HAL_GPIO_Init+0x304>)
 800494a:	68da      	ldr	r2, [r3, #12]
 800494c:	69bb      	ldr	r3, [r7, #24]
 800494e:	43db      	mvns	r3, r3
 8004950:	4909      	ldr	r1, [pc, #36]	; (8004978 <HAL_GPIO_Init+0x304>)
 8004952:	4013      	ands	r3, r2
 8004954:	60cb      	str	r3, [r1, #12]
        }
      }
    }

	position++;
 8004956:	6a7b      	ldr	r3, [r7, #36]	; 0x24
 8004958:	3301      	adds	r3, #1
 800495a:	627b      	str	r3, [r7, #36]	; 0x24
  while (((GPIO_Init->Pin) >> position) != 0x00u)
 800495c:	683b      	ldr	r3, [r7, #0]
 800495e:	681a      	ldr	r2, [r3, #0]
 8004960:	6a7b      	ldr	r3, [r7, #36]	; 0x24
 8004962:	fa22 f303 	lsr.w	r3, r2, r3
 8004966:	2b00      	cmp	r3, #0
 8004968:	f47f ae8e 	bne.w	8004688 <HAL_GPIO_Init+0x14>
  }
}
 800496c:	bf00      	nop
 800496e:	bf00      	nop
 8004970:	372c      	adds	r7, #44	; 0x2c
 8004972:	46bd      	mov	sp, r7
 8004974:	bc80      	pop	{r7}
 8004976:	4770      	bx	lr
 8004978:	40010400 	.word	0x40010400

0800497c <HAL_GPIO_WritePin>:
  *            @arg GPIO_PIN_RESET: to clear the port pin
  *            @arg GPIO_PIN_SET: to set the port pin
  * @retval None
  */
void HAL_GPIO_WritePin(GPIO_TypeDef *GPIOx, uint16_t GPIO_Pin, GPIO_PinState PinState)
{
 800497c:	b480      	push	{r7}
 800497e:	b083      	sub	sp, #12
 8004980:	af00      	add	r7, sp, #0
 8004982:	6078      	str	r0, [r7, #4]
 8004984:	460b      	mov	r3, r1
 8004986:	807b      	strh	r3, [r7, #2]
 8004988:	4613      	mov	r3, r2
 800498a:	707b      	strb	r3, [r7, #1]
  /* Check the parameters */
  assert_param(IS_GPIO_PIN(GPIO_Pin));
  assert_param(IS_GPIO_PIN_ACTION(PinState));

  if (PinState != GPIO_PIN_RESET)
 800498c:	787b      	ldrb	r3, [r7, #1]
 800498e:	2b00      	cmp	r3, #0
 8004990:	d003      	beq.n	800499a <HAL_GPIO_WritePin+0x1e>
  {
    GPIOx->BSRR = GPIO_Pin;
 8004992:	887a      	ldrh	r2, [r7, #2]
 8004994:	687b      	ldr	r3, [r7, #4]
 8004996:	611a      	str	r2, [r3, #16]
  }
  else
  {
    GPIOx->BSRR = (uint32_t)GPIO_Pin << 16u;
  }
}
 8004998:	e003      	b.n	80049a2 <HAL_GPIO_WritePin+0x26>
    GPIOx->BSRR = (uint32_t)GPIO_Pin << 16u;
 800499a:	887b      	ldrh	r3, [r7, #2]
 800499c:	041a      	lsls	r2, r3, #16
 800499e:	687b      	ldr	r3, [r7, #4]
 80049a0:	611a      	str	r2, [r3, #16]
}
 80049a2:	bf00      	nop
 80049a4:	370c      	adds	r7, #12
 80049a6:	46bd      	mov	sp, r7
 80049a8:	bc80      	pop	{r7}
 80049aa:	4770      	bx	lr

080049ac <HAL_GPIO_TogglePin>:
  * @param  GPIOx: where x can be (A..G depending on device used) to select the GPIO peripheral
  * @param  GPIO_Pin: Specifies the pins to be toggled.
  * @retval None
  */
void HAL_GPIO_TogglePin(GPIO_TypeDef *GPIOx, uint16_t GPIO_Pin)
{
 80049ac:	b480      	push	{r7}
 80049ae:	b085      	sub	sp, #20
 80049b0:	af00      	add	r7, sp, #0
 80049b2:	6078      	str	r0, [r7, #4]
 80049b4:	460b      	mov	r3, r1
 80049b6:	807b      	strh	r3, [r7, #2]

  /* Check the parameters */
  assert_param(IS_GPIO_PIN(GPIO_Pin));

  /* get current Ouput Data Register value */
  odr = GPIOx->ODR;
 80049b8:	687b      	ldr	r3, [r7, #4]
 80049ba:	68db      	ldr	r3, [r3, #12]
 80049bc:	60fb      	str	r3, [r7, #12]

  /* Set selected pins that were at low level, and reset ones that were high */
  GPIOx->BSRR = ((odr & GPIO_Pin) << GPIO_NUMBER) | (~odr & GPIO_Pin);
 80049be:	887a      	ldrh	r2, [r7, #2]
 80049c0:	68fb      	ldr	r3, [r7, #12]
 80049c2:	4013      	ands	r3, r2
 80049c4:	041a      	lsls	r2, r3, #16
 80049c6:	68fb      	ldr	r3, [r7, #12]
 80049c8:	43d9      	mvns	r1, r3
 80049ca:	887b      	ldrh	r3, [r7, #2]
 80049cc:	400b      	ands	r3, r1
 80049ce:	431a      	orrs	r2, r3
 80049d0:	687b      	ldr	r3, [r7, #4]
 80049d2:	611a      	str	r2, [r3, #16]
}
 80049d4:	bf00      	nop
 80049d6:	3714      	adds	r7, #20
 80049d8:	46bd      	mov	sp, r7
 80049da:	bc80      	pop	{r7}
 80049dc:	4770      	bx	lr
	...

080049e0 <HAL_GPIO_EXTI_IRQHandler>:
  * @brief  This function handles EXTI interrupt request.
  * @param  GPIO_Pin: Specifies the pins connected EXTI line
  * @retval None
  */
void HAL_GPIO_EXTI_IRQHandler(uint16_t GPIO_Pin)
{
 80049e0:	b580      	push	{r7, lr}
 80049e2:	b082      	sub	sp, #8
 80049e4:	af00      	add	r7, sp, #0
 80049e6:	4603      	mov	r3, r0
 80049e8:	80fb      	strh	r3, [r7, #6]
  /* EXTI line interrupt detected */
  if (__HAL_GPIO_EXTI_GET_IT(GPIO_Pin) != 0x00u)
 80049ea:	4b08      	ldr	r3, [pc, #32]	; (8004a0c <HAL_GPIO_EXTI_IRQHandler+0x2c>)
 80049ec:	695a      	ldr	r2, [r3, #20]
 80049ee:	88fb      	ldrh	r3, [r7, #6]
 80049f0:	4013      	ands	r3, r2
 80049f2:	2b00      	cmp	r3, #0
 80049f4:	d006      	beq.n	8004a04 <HAL_GPIO_EXTI_IRQHandler+0x24>
  {
    __HAL_GPIO_EXTI_CLEAR_IT(GPIO_Pin);
 80049f6:	4a05      	ldr	r2, [pc, #20]	; (8004a0c <HAL_GPIO_EXTI_IRQHandler+0x2c>)
 80049f8:	88fb      	ldrh	r3, [r7, #6]
 80049fa:	6153      	str	r3, [r2, #20]
    HAL_GPIO_EXTI_Callback(GPIO_Pin);
 80049fc:	88fb      	ldrh	r3, [r7, #6]
 80049fe:	4618      	mov	r0, r3
 8004a00:	f000 f806 	bl	8004a10 <HAL_GPIO_EXTI_Callback>
  }
}
 8004a04:	bf00      	nop
 8004a06:	3708      	adds	r7, #8
 8004a08:	46bd      	mov	sp, r7
 8004a0a:	bd80      	pop	{r7, pc}
 8004a0c:	40010400 	.word	0x40010400

08004a10 <HAL_GPIO_EXTI_Callback>:
  * @brief  EXTI line detection callbacks.
  * @param  GPIO_Pin: Specifies the pins connected EXTI line
  * @retval None
  */
__weak void HAL_GPIO_EXTI_Callback(uint16_t GPIO_Pin)
{
 8004a10:	b480      	push	{r7}
 8004a12:	b083      	sub	sp, #12
 8004a14:	af00      	add	r7, sp, #0
 8004a16:	4603      	mov	r3, r0
 8004a18:	80fb      	strh	r3, [r7, #6]
  /* Prevent unused argument(s) compilation warning */
  UNUSED(GPIO_Pin);
  /* NOTE: This function Should not be modified, when the callback is needed,
           the HAL_GPIO_EXTI_Callback could be implemented in the user file
   */
}
 8004a1a:	bf00      	nop
 8004a1c:	370c      	adds	r7, #12
 8004a1e:	46bd      	mov	sp, r7
 8004a20:	bc80      	pop	{r7}
 8004a22:	4770      	bx	lr

08004a24 <HAL_RCC_OscConfig>:
  *         supported by this macro. User should request a transition to HSE Off
  *         first and then HSE On or HSE Bypass.
  * @retval HAL status
  */
HAL_StatusTypeDef HAL_RCC_OscConfig(RCC_OscInitTypeDef  *RCC_OscInitStruct)
{
 8004a24:	b580      	push	{r7, lr}
 8004a26:	b086      	sub	sp, #24
 8004a28:	af00      	add	r7, sp, #0
 8004a2a:	6078      	str	r0, [r7, #4]
  uint32_t tickstart;
  uint32_t pll_config;

  /* Check Null pointer */
  if (RCC_OscInitStruct == NULL)
 8004a2c:	687b      	ldr	r3, [r7, #4]
 8004a2e:	2b00      	cmp	r3, #0
 8004a30:	d101      	bne.n	8004a36 <HAL_RCC_OscConfig+0x12>
  {
    return HAL_ERROR;
 8004a32:	2301      	movs	r3, #1
 8004a34:	e272      	b.n	8004f1c <HAL_RCC_OscConfig+0x4f8>

  /* Check the parameters */
  assert_param(IS_RCC_OSCILLATORTYPE(RCC_OscInitStruct->OscillatorType));

  /*------------------------------- HSE Configuration ------------------------*/
  if (((RCC_OscInitStruct->OscillatorType) & RCC_OSCILLATORTYPE_HSE) == RCC_OSCILLATORTYPE_HSE)
 8004a36:	687b      	ldr	r3, [r7, #4]
 8004a38:	681b      	ldr	r3, [r3, #0]
 8004a3a:	f003 0301 	and.w	r3, r3, #1
 8004a3e:	2b00      	cmp	r3, #0
 8004a40:	f000 8087 	beq.w	8004b52 <HAL_RCC_OscConfig+0x12e>
  {
    /* Check the parameters */
    assert_param(IS_RCC_HSE(RCC_OscInitStruct->HSEState));

    /* When the HSE is used as system clock or clock source for PLL in these cases it is not allowed to be disabled */
    if ((__HAL_RCC_GET_SYSCLK_SOURCE() == RCC_SYSCLKSOURCE_STATUS_HSE)
 8004a44:	4b92      	ldr	r3, [pc, #584]	; (8004c90 <HAL_RCC_OscConfig+0x26c>)
 8004a46:	685b      	ldr	r3, [r3, #4]
 8004a48:	f003 030c 	and.w	r3, r3, #12
 8004a4c:	2b04      	cmp	r3, #4
 8004a4e:	d00c      	beq.n	8004a6a <HAL_RCC_OscConfig+0x46>
        || ((__HAL_RCC_GET_SYSCLK_SOURCE() == RCC_SYSCLKSOURCE_STATUS_PLLCLK) && (__HAL_RCC_GET_PLL_OSCSOURCE() == RCC_PLLSOURCE_HSE)))
 8004a50:	4b8f      	ldr	r3, [pc, #572]	; (8004c90 <HAL_RCC_OscConfig+0x26c>)
 8004a52:	685b      	ldr	r3, [r3, #4]
 8004a54:	f003 030c 	and.w	r3, r3, #12
 8004a58:	2b08      	cmp	r3, #8
 8004a5a:	d112      	bne.n	8004a82 <HAL_RCC_OscConfig+0x5e>
 8004a5c:	4b8c      	ldr	r3, [pc, #560]	; (8004c90 <HAL_RCC_OscConfig+0x26c>)
 8004a5e:	685b      	ldr	r3, [r3, #4]
 8004a60:	f403 3380 	and.w	r3, r3, #65536	; 0x10000
 8004a64:	f5b3 3f80 	cmp.w	r3, #65536	; 0x10000
 8004a68:	d10b      	bne.n	8004a82 <HAL_RCC_OscConfig+0x5e>
    {
      if ((__HAL_RCC_GET_FLAG(RCC_FLAG_HSERDY) != RESET) && (RCC_OscInitStruct->HSEState == RCC_HSE_OFF))
 8004a6a:	4b89      	ldr	r3, [pc, #548]	; (8004c90 <HAL_RCC_OscConfig+0x26c>)
 8004a6c:	681b      	ldr	r3, [r3, #0]
 8004a6e:	f403 3300 	and.w	r3, r3, #131072	; 0x20000
 8004a72:	2b00      	cmp	r3, #0
 8004a74:	d06c      	beq.n	8004b50 <HAL_RCC_OscConfig+0x12c>
 8004a76:	687b      	ldr	r3, [r7, #4]
 8004a78:	685b      	ldr	r3, [r3, #4]
 8004a7a:	2b00      	cmp	r3, #0
 8004a7c:	d168      	bne.n	8004b50 <HAL_RCC_OscConfig+0x12c>
      {
        return HAL_ERROR;
 8004a7e:	2301      	movs	r3, #1
 8004a80:	e24c      	b.n	8004f1c <HAL_RCC_OscConfig+0x4f8>
      }
    }
    else
    {
      /* Set the new HSE configuration ---------------------------------------*/
      __HAL_RCC_HSE_CONFIG(RCC_OscInitStruct->HSEState);
 8004a82:	687b      	ldr	r3, [r7, #4]
 8004a84:	685b      	ldr	r3, [r3, #4]
 8004a86:	f5b3 3f80 	cmp.w	r3, #65536	; 0x10000
 8004a8a:	d106      	bne.n	8004a9a <HAL_RCC_OscConfig+0x76>
 8004a8c:	4b80      	ldr	r3, [pc, #512]	; (8004c90 <HAL_RCC_OscConfig+0x26c>)
 8004a8e:	681b      	ldr	r3, [r3, #0]
 8004a90:	4a7f      	ldr	r2, [pc, #508]	; (8004c90 <HAL_RCC_OscConfig+0x26c>)
 8004a92:	f443 3380 	orr.w	r3, r3, #65536	; 0x10000
 8004a96:	6013      	str	r3, [r2, #0]
 8004a98:	e02e      	b.n	8004af8 <HAL_RCC_OscConfig+0xd4>
 8004a9a:	687b      	ldr	r3, [r7, #4]
 8004a9c:	685b      	ldr	r3, [r3, #4]
 8004a9e:	2b00      	cmp	r3, #0
 8004aa0:	d10c      	bne.n	8004abc <HAL_RCC_OscConfig+0x98>
 8004aa2:	4b7b      	ldr	r3, [pc, #492]	; (8004c90 <HAL_RCC_OscConfig+0x26c>)
 8004aa4:	681b      	ldr	r3, [r3, #0]
 8004aa6:	4a7a      	ldr	r2, [pc, #488]	; (8004c90 <HAL_RCC_OscConfig+0x26c>)
 8004aa8:	f423 3380 	bic.w	r3, r3, #65536	; 0x10000
 8004aac:	6013      	str	r3, [r2, #0]
 8004aae:	4b78      	ldr	r3, [pc, #480]	; (8004c90 <HAL_RCC_OscConfig+0x26c>)
 8004ab0:	681b      	ldr	r3, [r3, #0]
 8004ab2:	4a77      	ldr	r2, [pc, #476]	; (8004c90 <HAL_RCC_OscConfig+0x26c>)
 8004ab4:	f423 2380 	bic.w	r3, r3, #262144	; 0x40000
 8004ab8:	6013      	str	r3, [r2, #0]
 8004aba:	e01d      	b.n	8004af8 <HAL_RCC_OscConfig+0xd4>
 8004abc:	687b      	ldr	r3, [r7, #4]
 8004abe:	685b      	ldr	r3, [r3, #4]
 8004ac0:	f5b3 2fa0 	cmp.w	r3, #327680	; 0x50000
 8004ac4:	d10c      	bne.n	8004ae0 <HAL_RCC_OscConfig+0xbc>
 8004ac6:	4b72      	ldr	r3, [pc, #456]	; (8004c90 <HAL_RCC_OscConfig+0x26c>)
 8004ac8:	681b      	ldr	r3, [r3, #0]
 8004aca:	4a71      	ldr	r2, [pc, #452]	; (8004c90 <HAL_RCC_OscConfig+0x26c>)
 8004acc:	f443 2380 	orr.w	r3, r3, #262144	; 0x40000
 8004ad0:	6013      	str	r3, [r2, #0]
 8004ad2:	4b6f      	ldr	r3, [pc, #444]	; (8004c90 <HAL_RCC_OscConfig+0x26c>)
 8004ad4:	681b      	ldr	r3, [r3, #0]
 8004ad6:	4a6e      	ldr	r2, [pc, #440]	; (8004c90 <HAL_RCC_OscConfig+0x26c>)
 8004ad8:	f443 3380 	orr.w	r3, r3, #65536	; 0x10000
 8004adc:	6013      	str	r3, [r2, #0]
 8004ade:	e00b      	b.n	8004af8 <HAL_RCC_OscConfig+0xd4>
 8004ae0:	4b6b      	ldr	r3, [pc, #428]	; (8004c90 <HAL_RCC_OscConfig+0x26c>)
 8004ae2:	681b      	ldr	r3, [r3, #0]
 8004ae4:	4a6a      	ldr	r2, [pc, #424]	; (8004c90 <HAL_RCC_OscConfig+0x26c>)
 8004ae6:	f423 3380 	bic.w	r3, r3, #65536	; 0x10000
 8004aea:	6013      	str	r3, [r2, #0]
 8004aec:	4b68      	ldr	r3, [pc, #416]	; (8004c90 <HAL_RCC_OscConfig+0x26c>)
 8004aee:	681b      	ldr	r3, [r3, #0]
 8004af0:	4a67      	ldr	r2, [pc, #412]	; (8004c90 <HAL_RCC_OscConfig+0x26c>)
 8004af2:	f423 2380 	bic.w	r3, r3, #262144	; 0x40000
 8004af6:	6013      	str	r3, [r2, #0]


      /* Check the HSE State */
      if (RCC_OscInitStruct->HSEState != RCC_HSE_OFF)
 8004af8:	687b      	ldr	r3, [r7, #4]
 8004afa:	685b      	ldr	r3, [r3, #4]
 8004afc:	2b00      	cmp	r3, #0
 8004afe:	d013      	beq.n	8004b28 <HAL_RCC_OscConfig+0x104>
      {
        /* Get Start Tick */
        tickstart = HAL_GetTick();
 8004b00:	f7fe fde8 	bl	80036d4 <HAL_GetTick>
 8004b04:	6138      	str	r0, [r7, #16]

        /* Wait till HSE is ready */
        while (__HAL_RCC_GET_FLAG(RCC_FLAG_HSERDY) == RESET)
 8004b06:	e008      	b.n	8004b1a <HAL_RCC_OscConfig+0xf6>
        {
          if ((HAL_GetTick() - tickstart) > HSE_TIMEOUT_VALUE)
 8004b08:	f7fe fde4 	bl	80036d4 <HAL_GetTick>
 8004b0c:	4602      	mov	r2, r0
 8004b0e:	693b      	ldr	r3, [r7, #16]
 8004b10:	1ad3      	subs	r3, r2, r3
 8004b12:	2b64      	cmp	r3, #100	; 0x64
 8004b14:	d901      	bls.n	8004b1a <HAL_RCC_OscConfig+0xf6>
          {
            return HAL_TIMEOUT;
 8004b16:	2303      	movs	r3, #3
 8004b18:	e200      	b.n	8004f1c <HAL_RCC_OscConfig+0x4f8>
        while (__HAL_RCC_GET_FLAG(RCC_FLAG_HSERDY) == RESET)
 8004b1a:	4b5d      	ldr	r3, [pc, #372]	; (8004c90 <HAL_RCC_OscConfig+0x26c>)
 8004b1c:	681b      	ldr	r3, [r3, #0]
 8004b1e:	f403 3300 	and.w	r3, r3, #131072	; 0x20000
 8004b22:	2b00      	cmp	r3, #0
 8004b24:	d0f0      	beq.n	8004b08 <HAL_RCC_OscConfig+0xe4>
 8004b26:	e014      	b.n	8004b52 <HAL_RCC_OscConfig+0x12e>
        }
      }
      else
      {
        /* Get Start Tick */
        tickstart = HAL_GetTick();
 8004b28:	f7fe fdd4 	bl	80036d4 <HAL_GetTick>
 8004b2c:	6138      	str	r0, [r7, #16]

        /* Wait till HSE is disabled */
        while (__HAL_RCC_GET_FLAG(RCC_FLAG_HSERDY) != RESET)
 8004b2e:	e008      	b.n	8004b42 <HAL_RCC_OscConfig+0x11e>
        {
          if ((HAL_GetTick() - tickstart) > HSE_TIMEOUT_VALUE)
 8004b30:	f7fe fdd0 	bl	80036d4 <HAL_GetTick>
 8004b34:	4602      	mov	r2, r0
 8004b36:	693b      	ldr	r3, [r7, #16]
 8004b38:	1ad3      	subs	r3, r2, r3
 8004b3a:	2b64      	cmp	r3, #100	; 0x64
 8004b3c:	d901      	bls.n	8004b42 <HAL_RCC_OscConfig+0x11e>
          {
            return HAL_TIMEOUT;
 8004b3e:	2303      	movs	r3, #3
 8004b40:	e1ec      	b.n	8004f1c <HAL_RCC_OscConfig+0x4f8>
        while (__HAL_RCC_GET_FLAG(RCC_FLAG_HSERDY) != RESET)
 8004b42:	4b53      	ldr	r3, [pc, #332]	; (8004c90 <HAL_RCC_OscConfig+0x26c>)
 8004b44:	681b      	ldr	r3, [r3, #0]
 8004b46:	f403 3300 	and.w	r3, r3, #131072	; 0x20000
 8004b4a:	2b00      	cmp	r3, #0
 8004b4c:	d1f0      	bne.n	8004b30 <HAL_RCC_OscConfig+0x10c>
 8004b4e:	e000      	b.n	8004b52 <HAL_RCC_OscConfig+0x12e>
      if ((__HAL_RCC_GET_FLAG(RCC_FLAG_HSERDY) != RESET) && (RCC_OscInitStruct->HSEState == RCC_HSE_OFF))
 8004b50:	bf00      	nop
        }
      }
    }
  }
  /*----------------------------- HSI Configuration --------------------------*/
  if (((RCC_OscInitStruct->OscillatorType) & RCC_OSCILLATORTYPE_HSI) == RCC_OSCILLATORTYPE_HSI)
 8004b52:	687b      	ldr	r3, [r7, #4]
 8004b54:	681b      	ldr	r3, [r3, #0]
 8004b56:	f003 0302 	and.w	r3, r3, #2
 8004b5a:	2b00      	cmp	r3, #0
 8004b5c:	d063      	beq.n	8004c26 <HAL_RCC_OscConfig+0x202>
    /* Check the parameters */
    assert_param(IS_RCC_HSI(RCC_OscInitStruct->HSIState));
    assert_param(IS_RCC_CALIBRATION_VALUE(RCC_OscInitStruct->HSICalibrationValue));

    /* Check if HSI is used as system clock or as PLL source when PLL is selected as system clock */
    if ((__HAL_RCC_GET_SYSCLK_SOURCE() == RCC_SYSCLKSOURCE_STATUS_HSI)
 8004b5e:	4b4c      	ldr	r3, [pc, #304]	; (8004c90 <HAL_RCC_OscConfig+0x26c>)
 8004b60:	685b      	ldr	r3, [r3, #4]
 8004b62:	f003 030c 	and.w	r3, r3, #12
 8004b66:	2b00      	cmp	r3, #0
 8004b68:	d00b      	beq.n	8004b82 <HAL_RCC_OscConfig+0x15e>
        || ((__HAL_RCC_GET_SYSCLK_SOURCE() == RCC_SYSCLKSOURCE_STATUS_PLLCLK) && (__HAL_RCC_GET_PLL_OSCSOURCE() == RCC_PLLSOURCE_HSI_DIV2)))
 8004b6a:	4b49      	ldr	r3, [pc, #292]	; (8004c90 <HAL_RCC_OscConfig+0x26c>)
 8004b6c:	685b      	ldr	r3, [r3, #4]
 8004b6e:	f003 030c 	and.w	r3, r3, #12
 8004b72:	2b08      	cmp	r3, #8
 8004b74:	d11c      	bne.n	8004bb0 <HAL_RCC_OscConfig+0x18c>
 8004b76:	4b46      	ldr	r3, [pc, #280]	; (8004c90 <HAL_RCC_OscConfig+0x26c>)
 8004b78:	685b      	ldr	r3, [r3, #4]
 8004b7a:	f403 3380 	and.w	r3, r3, #65536	; 0x10000
 8004b7e:	2b00      	cmp	r3, #0
 8004b80:	d116      	bne.n	8004bb0 <HAL_RCC_OscConfig+0x18c>
    {
      /* When HSI is used as system clock it will not disabled */
      if ((__HAL_RCC_GET_FLAG(RCC_FLAG_HSIRDY) != RESET) && (RCC_OscInitStruct->HSIState != RCC_HSI_ON))
 8004b82:	4b43      	ldr	r3, [pc, #268]	; (8004c90 <HAL_RCC_OscConfig+0x26c>)
 8004b84:	681b      	ldr	r3, [r3, #0]
 8004b86:	f003 0302 	and.w	r3, r3, #2
 8004b8a:	2b00      	cmp	r3, #0
 8004b8c:	d005      	beq.n	8004b9a <HAL_RCC_OscConfig+0x176>
 8004b8e:	687b      	ldr	r3, [r7, #4]
 8004b90:	691b      	ldr	r3, [r3, #16]
 8004b92:	2b01      	cmp	r3, #1
 8004b94:	d001      	beq.n	8004b9a <HAL_RCC_OscConfig+0x176>
      {
        return HAL_ERROR;
 8004b96:	2301      	movs	r3, #1
 8004b98:	e1c0      	b.n	8004f1c <HAL_RCC_OscConfig+0x4f8>
      }
      /* Otherwise, just the calibration is allowed */
      else
      {
        /* Adjusts the Internal High Speed oscillator (HSI) calibration value.*/
        __HAL_RCC_HSI_CALIBRATIONVALUE_ADJUST(RCC_OscInitStruct->HSICalibrationValue);
 8004b9a:	4b3d      	ldr	r3, [pc, #244]	; (8004c90 <HAL_RCC_OscConfig+0x26c>)
 8004b9c:	681b      	ldr	r3, [r3, #0]
 8004b9e:	f023 02f8 	bic.w	r2, r3, #248	; 0xf8
 8004ba2:	687b      	ldr	r3, [r7, #4]
 8004ba4:	695b      	ldr	r3, [r3, #20]
 8004ba6:	00db      	lsls	r3, r3, #3
 8004ba8:	4939      	ldr	r1, [pc, #228]	; (8004c90 <HAL_RCC_OscConfig+0x26c>)
 8004baa:	4313      	orrs	r3, r2
 8004bac:	600b      	str	r3, [r1, #0]
      if ((__HAL_RCC_GET_FLAG(RCC_FLAG_HSIRDY) != RESET) && (RCC_OscInitStruct->HSIState != RCC_HSI_ON))
 8004bae:	e03a      	b.n	8004c26 <HAL_RCC_OscConfig+0x202>
      }
    }
    else
    {
      /* Check the HSI State */
      if (RCC_OscInitStruct->HSIState != RCC_HSI_OFF)
 8004bb0:	687b      	ldr	r3, [r7, #4]
 8004bb2:	691b      	ldr	r3, [r3, #16]
 8004bb4:	2b00      	cmp	r3, #0
 8004bb6:	d020      	beq.n	8004bfa <HAL_RCC_OscConfig+0x1d6>
      {
        /* Enable the Internal High Speed oscillator (HSI). */
        __HAL_RCC_HSI_ENABLE();
 8004bb8:	4b36      	ldr	r3, [pc, #216]	; (8004c94 <HAL_RCC_OscConfig+0x270>)
 8004bba:	2201      	movs	r2, #1
 8004bbc:	601a      	str	r2, [r3, #0]

        /* Get Start Tick */
        tickstart = HAL_GetTick();
 8004bbe:	f7fe fd89 	bl	80036d4 <HAL_GetTick>
 8004bc2:	6138      	str	r0, [r7, #16]

        /* Wait till HSI is ready */
        while (__HAL_RCC_GET_FLAG(RCC_FLAG_HSIRDY) == RESET)
 8004bc4:	e008      	b.n	8004bd8 <HAL_RCC_OscConfig+0x1b4>
        {
          if ((HAL_GetTick() - tickstart) > HSI_TIMEOUT_VALUE)
 8004bc6:	f7fe fd85 	bl	80036d4 <HAL_GetTick>
 8004bca:	4602      	mov	r2, r0
 8004bcc:	693b      	ldr	r3, [r7, #16]
 8004bce:	1ad3      	subs	r3, r2, r3
 8004bd0:	2b02      	cmp	r3, #2
 8004bd2:	d901      	bls.n	8004bd8 <HAL_RCC_OscConfig+0x1b4>
          {
            return HAL_TIMEOUT;
 8004bd4:	2303      	movs	r3, #3
 8004bd6:	e1a1      	b.n	8004f1c <HAL_RCC_OscConfig+0x4f8>
        while (__HAL_RCC_GET_FLAG(RCC_FLAG_HSIRDY) == RESET)
 8004bd8:	4b2d      	ldr	r3, [pc, #180]	; (8004c90 <HAL_RCC_OscConfig+0x26c>)
 8004bda:	681b      	ldr	r3, [r3, #0]
 8004bdc:	f003 0302 	and.w	r3, r3, #2
 8004be0:	2b00      	cmp	r3, #0
 8004be2:	d0f0      	beq.n	8004bc6 <HAL_RCC_OscConfig+0x1a2>
          }
        }

        /* Adjusts the Internal High Speed oscillator (HSI) calibration value.*/
        __HAL_RCC_HSI_CALIBRATIONVALUE_ADJUST(RCC_OscInitStruct->HSICalibrationValue);
 8004be4:	4b2a      	ldr	r3, [pc, #168]	; (8004c90 <HAL_RCC_OscConfig+0x26c>)
 8004be6:	681b      	ldr	r3, [r3, #0]
 8004be8:	f023 02f8 	bic.w	r2, r3, #248	; 0xf8
 8004bec:	687b      	ldr	r3, [r7, #4]
 8004bee:	695b      	ldr	r3, [r3, #20]
 8004bf0:	00db      	lsls	r3, r3, #3
 8004bf2:	4927      	ldr	r1, [pc, #156]	; (8004c90 <HAL_RCC_OscConfig+0x26c>)
 8004bf4:	4313      	orrs	r3, r2
 8004bf6:	600b      	str	r3, [r1, #0]
 8004bf8:	e015      	b.n	8004c26 <HAL_RCC_OscConfig+0x202>
      }
      else
      {
        /* Disable the Internal High Speed oscillator (HSI). */
        __HAL_RCC_HSI_DISABLE();
 8004bfa:	4b26      	ldr	r3, [pc, #152]	; (8004c94 <HAL_RCC_OscConfig+0x270>)
 8004bfc:	2200      	movs	r2, #0
 8004bfe:	601a      	str	r2, [r3, #0]

        /* Get Start Tick */
        tickstart = HAL_GetTick();
 8004c00:	f7fe fd68 	bl	80036d4 <HAL_GetTick>
 8004c04:	6138      	str	r0, [r7, #16]

        /* Wait till HSI is disabled */
        while (__HAL_RCC_GET_FLAG(RCC_FLAG_HSIRDY) != RESET)
 8004c06:	e008      	b.n	8004c1a <HAL_RCC_OscConfig+0x1f6>
        {
          if ((HAL_GetTick() - tickstart) > HSI_TIMEOUT_VALUE)
 8004c08:	f7fe fd64 	bl	80036d4 <HAL_GetTick>
 8004c0c:	4602      	mov	r2, r0
 8004c0e:	693b      	ldr	r3, [r7, #16]
 8004c10:	1ad3      	subs	r3, r2, r3
 8004c12:	2b02      	cmp	r3, #2
 8004c14:	d901      	bls.n	8004c1a <HAL_RCC_OscConfig+0x1f6>
          {
            return HAL_TIMEOUT;
 8004c16:	2303      	movs	r3, #3
 8004c18:	e180      	b.n	8004f1c <HAL_RCC_OscConfig+0x4f8>
        while (__HAL_RCC_GET_FLAG(RCC_FLAG_HSIRDY) != RESET)
 8004c1a:	4b1d      	ldr	r3, [pc, #116]	; (8004c90 <HAL_RCC_OscConfig+0x26c>)
 8004c1c:	681b      	ldr	r3, [r3, #0]
 8004c1e:	f003 0302 	and.w	r3, r3, #2
 8004c22:	2b00      	cmp	r3, #0
 8004c24:	d1f0      	bne.n	8004c08 <HAL_RCC_OscConfig+0x1e4>
        }
      }
    }
  }
  /*------------------------------ LSI Configuration -------------------------*/
  if (((RCC_OscInitStruct->OscillatorType) & RCC_OSCILLATORTYPE_LSI) == RCC_OSCILLATORTYPE_LSI)
 8004c26:	687b      	ldr	r3, [r7, #4]
 8004c28:	681b      	ldr	r3, [r3, #0]
 8004c2a:	f003 0308 	and.w	r3, r3, #8
 8004c2e:	2b00      	cmp	r3, #0
 8004c30:	d03a      	beq.n	8004ca8 <HAL_RCC_OscConfig+0x284>
  {
    /* Check the parameters */
    assert_param(IS_RCC_LSI(RCC_OscInitStruct->LSIState));

    /* Check the LSI State */
    if (RCC_OscInitStruct->LSIState != RCC_LSI_OFF)
 8004c32:	687b      	ldr	r3, [r7, #4]
 8004c34:	699b      	ldr	r3, [r3, #24]
 8004c36:	2b00      	cmp	r3, #0
 8004c38:	d019      	beq.n	8004c6e <HAL_RCC_OscConfig+0x24a>
    {
      /* Enable the Internal Low Speed oscillator (LSI). */
      __HAL_RCC_LSI_ENABLE();
 8004c3a:	4b17      	ldr	r3, [pc, #92]	; (8004c98 <HAL_RCC_OscConfig+0x274>)
 8004c3c:	2201      	movs	r2, #1
 8004c3e:	601a      	str	r2, [r3, #0]

      /* Get Start Tick */
      tickstart = HAL_GetTick();
 8004c40:	f7fe fd48 	bl	80036d4 <HAL_GetTick>
 8004c44:	6138      	str	r0, [r7, #16]

      /* Wait till LSI is ready */
      while (__HAL_RCC_GET_FLAG(RCC_FLAG_LSIRDY) == RESET)
 8004c46:	e008      	b.n	8004c5a <HAL_RCC_OscConfig+0x236>
      {
        if ((HAL_GetTick() - tickstart) > LSI_TIMEOUT_VALUE)
 8004c48:	f7fe fd44 	bl	80036d4 <HAL_GetTick>
 8004c4c:	4602      	mov	r2, r0
 8004c4e:	693b      	ldr	r3, [r7, #16]
 8004c50:	1ad3      	subs	r3, r2, r3
 8004c52:	2b02      	cmp	r3, #2
 8004c54:	d901      	bls.n	8004c5a <HAL_RCC_OscConfig+0x236>
        {
          return HAL_TIMEOUT;
 8004c56:	2303      	movs	r3, #3
 8004c58:	e160      	b.n	8004f1c <HAL_RCC_OscConfig+0x4f8>
      while (__HAL_RCC_GET_FLAG(RCC_FLAG_LSIRDY) == RESET)
 8004c5a:	4b0d      	ldr	r3, [pc, #52]	; (8004c90 <HAL_RCC_OscConfig+0x26c>)
 8004c5c:	6a5b      	ldr	r3, [r3, #36]	; 0x24
 8004c5e:	f003 0302 	and.w	r3, r3, #2
 8004c62:	2b00      	cmp	r3, #0
 8004c64:	d0f0      	beq.n	8004c48 <HAL_RCC_OscConfig+0x224>
        }
      }
      /*  To have a fully stabilized clock in the specified range, a software delay of 1ms
          should be added.*/
      RCC_Delay(1);
 8004c66:	2001      	movs	r0, #1
 8004c68:	f000 fad8 	bl	800521c <RCC_Delay>
 8004c6c:	e01c      	b.n	8004ca8 <HAL_RCC_OscConfig+0x284>
    }
    else
    {
      /* Disable the Internal Low Speed oscillator (LSI). */
      __HAL_RCC_LSI_DISABLE();
 8004c6e:	4b0a      	ldr	r3, [pc, #40]	; (8004c98 <HAL_RCC_OscConfig+0x274>)
 8004c70:	2200      	movs	r2, #0
 8004c72:	601a      	str	r2, [r3, #0]

      /* Get Start Tick */
      tickstart = HAL_GetTick();
 8004c74:	f7fe fd2e 	bl	80036d4 <HAL_GetTick>
 8004c78:	6138      	str	r0, [r7, #16]

      /* Wait till LSI is disabled */
      while (__HAL_RCC_GET_FLAG(RCC_FLAG_LSIRDY) != RESET)
 8004c7a:	e00f      	b.n	8004c9c <HAL_RCC_OscConfig+0x278>
      {
        if ((HAL_GetTick() - tickstart) > LSI_TIMEOUT_VALUE)
 8004c7c:	f7fe fd2a 	bl	80036d4 <HAL_GetTick>
 8004c80:	4602      	mov	r2, r0
 8004c82:	693b      	ldr	r3, [r7, #16]
 8004c84:	1ad3      	subs	r3, r2, r3
 8004c86:	2b02      	cmp	r3, #2
 8004c88:	d908      	bls.n	8004c9c <HAL_RCC_OscConfig+0x278>
        {
          return HAL_TIMEOUT;
 8004c8a:	2303      	movs	r3, #3
 8004c8c:	e146      	b.n	8004f1c <HAL_RCC_OscConfig+0x4f8>
 8004c8e:	bf00      	nop
 8004c90:	40021000 	.word	0x40021000
 8004c94:	42420000 	.word	0x42420000
 8004c98:	42420480 	.word	0x42420480
      while (__HAL_RCC_GET_FLAG(RCC_FLAG_LSIRDY) != RESET)
 8004c9c:	4b92      	ldr	r3, [pc, #584]	; (8004ee8 <HAL_RCC_OscConfig+0x4c4>)
 8004c9e:	6a5b      	ldr	r3, [r3, #36]	; 0x24
 8004ca0:	f003 0302 	and.w	r3, r3, #2
 8004ca4:	2b00      	cmp	r3, #0
 8004ca6:	d1e9      	bne.n	8004c7c <HAL_RCC_OscConfig+0x258>
        }
      }
    }
  }
  /*------------------------------ LSE Configuration -------------------------*/
  if (((RCC_OscInitStruct->OscillatorType) & RCC_OSCILLATORTYPE_LSE) == RCC_OSCILLATORTYPE_LSE)
 8004ca8:	687b      	ldr	r3, [r7, #4]
 8004caa:	681b      	ldr	r3, [r3, #0]
 8004cac:	f003 0304 	and.w	r3, r3, #4
 8004cb0:	2b00      	cmp	r3, #0
 8004cb2:	f000 80a6 	beq.w	8004e02 <HAL_RCC_OscConfig+0x3de>
  {
    FlagStatus       pwrclkchanged = RESET;
 8004cb6:	2300      	movs	r3, #0
 8004cb8:	75fb      	strb	r3, [r7, #23]
    /* Check the parameters */
    assert_param(IS_RCC_LSE(RCC_OscInitStruct->LSEState));

    /* Update LSE configuration in Backup Domain control register    */
    /* Requires to enable write access to Backup Domain of necessary */
    if (__HAL_RCC_PWR_IS_CLK_DISABLED())
 8004cba:	4b8b      	ldr	r3, [pc, #556]	; (8004ee8 <HAL_RCC_OscConfig+0x4c4>)
 8004cbc:	69db      	ldr	r3, [r3, #28]
 8004cbe:	f003 5380 	and.w	r3, r3, #268435456	; 0x10000000
 8004cc2:	2b00      	cmp	r3, #0
 8004cc4:	d10d      	bne.n	8004ce2 <HAL_RCC_OscConfig+0x2be>
    {
      __HAL_RCC_PWR_CLK_ENABLE();
 8004cc6:	4b88      	ldr	r3, [pc, #544]	; (8004ee8 <HAL_RCC_OscConfig+0x4c4>)
 8004cc8:	69db      	ldr	r3, [r3, #28]
 8004cca:	4a87      	ldr	r2, [pc, #540]	; (8004ee8 <HAL_RCC_OscConfig+0x4c4>)
 8004ccc:	f043 5380 	orr.w	r3, r3, #268435456	; 0x10000000
 8004cd0:	61d3      	str	r3, [r2, #28]
 8004cd2:	4b85      	ldr	r3, [pc, #532]	; (8004ee8 <HAL_RCC_OscConfig+0x4c4>)
 8004cd4:	69db      	ldr	r3, [r3, #28]
 8004cd6:	f003 5380 	and.w	r3, r3, #268435456	; 0x10000000
 8004cda:	60bb      	str	r3, [r7, #8]
 8004cdc:	68bb      	ldr	r3, [r7, #8]
      pwrclkchanged = SET;
 8004cde:	2301      	movs	r3, #1
 8004ce0:	75fb      	strb	r3, [r7, #23]
    }

    if (HAL_IS_BIT_CLR(PWR->CR, PWR_CR_DBP))
 8004ce2:	4b82      	ldr	r3, [pc, #520]	; (8004eec <HAL_RCC_OscConfig+0x4c8>)
 8004ce4:	681b      	ldr	r3, [r3, #0]
 8004ce6:	f403 7380 	and.w	r3, r3, #256	; 0x100
 8004cea:	2b00      	cmp	r3, #0
 8004cec:	d118      	bne.n	8004d20 <HAL_RCC_OscConfig+0x2fc>
    {
      /* Enable write access to Backup domain */
      SET_BIT(PWR->CR, PWR_CR_DBP);
 8004cee:	4b7f      	ldr	r3, [pc, #508]	; (8004eec <HAL_RCC_OscConfig+0x4c8>)
 8004cf0:	681b      	ldr	r3, [r3, #0]
 8004cf2:	4a7e      	ldr	r2, [pc, #504]	; (8004eec <HAL_RCC_OscConfig+0x4c8>)
 8004cf4:	f443 7380 	orr.w	r3, r3, #256	; 0x100
 8004cf8:	6013      	str	r3, [r2, #0]

      /* Wait for Backup domain Write protection disable */
      tickstart = HAL_GetTick();
 8004cfa:	f7fe fceb 	bl	80036d4 <HAL_GetTick>
 8004cfe:	6138      	str	r0, [r7, #16]

      while (HAL_IS_BIT_CLR(PWR->CR, PWR_CR_DBP))
 8004d00:	e008      	b.n	8004d14 <HAL_RCC_OscConfig+0x2f0>
      {
        if ((HAL_GetTick() - tickstart) > RCC_DBP_TIMEOUT_VALUE)
 8004d02:	f7fe fce7 	bl	80036d4 <HAL_GetTick>
 8004d06:	4602      	mov	r2, r0
 8004d08:	693b      	ldr	r3, [r7, #16]
 8004d0a:	1ad3      	subs	r3, r2, r3
 8004d0c:	2b64      	cmp	r3, #100	; 0x64
 8004d0e:	d901      	bls.n	8004d14 <HAL_RCC_OscConfig+0x2f0>
        {
          return HAL_TIMEOUT;
 8004d10:	2303      	movs	r3, #3
 8004d12:	e103      	b.n	8004f1c <HAL_RCC_OscConfig+0x4f8>
      while (HAL_IS_BIT_CLR(PWR->CR, PWR_CR_DBP))
 8004d14:	4b75      	ldr	r3, [pc, #468]	; (8004eec <HAL_RCC_OscConfig+0x4c8>)
 8004d16:	681b      	ldr	r3, [r3, #0]
 8004d18:	f403 7380 	and.w	r3, r3, #256	; 0x100
 8004d1c:	2b00      	cmp	r3, #0
 8004d1e:	d0f0      	beq.n	8004d02 <HAL_RCC_OscConfig+0x2de>
        }
      }
    }

    /* Set the new LSE configuration -----------------------------------------*/
    __HAL_RCC_LSE_CONFIG(RCC_OscInitStruct->LSEState);
 8004d20:	687b      	ldr	r3, [r7, #4]
 8004d22:	68db      	ldr	r3, [r3, #12]
 8004d24:	2b01      	cmp	r3, #1
 8004d26:	d106      	bne.n	8004d36 <HAL_RCC_OscConfig+0x312>
 8004d28:	4b6f      	ldr	r3, [pc, #444]	; (8004ee8 <HAL_RCC_OscConfig+0x4c4>)
 8004d2a:	6a1b      	ldr	r3, [r3, #32]
 8004d2c:	4a6e      	ldr	r2, [pc, #440]	; (8004ee8 <HAL_RCC_OscConfig+0x4c4>)
 8004d2e:	f043 0301 	orr.w	r3, r3, #1
 8004d32:	6213      	str	r3, [r2, #32]
 8004d34:	e02d      	b.n	8004d92 <HAL_RCC_OscConfig+0x36e>
 8004d36:	687b      	ldr	r3, [r7, #4]
 8004d38:	68db      	ldr	r3, [r3, #12]
 8004d3a:	2b00      	cmp	r3, #0
 8004d3c:	d10c      	bne.n	8004d58 <HAL_RCC_OscConfig+0x334>
 8004d3e:	4b6a      	ldr	r3, [pc, #424]	; (8004ee8 <HAL_RCC_OscConfig+0x4c4>)
 8004d40:	6a1b      	ldr	r3, [r3, #32]
 8004d42:	4a69      	ldr	r2, [pc, #420]	; (8004ee8 <HAL_RCC_OscConfig+0x4c4>)
 8004d44:	f023 0301 	bic.w	r3, r3, #1
 8004d48:	6213      	str	r3, [r2, #32]
 8004d4a:	4b67      	ldr	r3, [pc, #412]	; (8004ee8 <HAL_RCC_OscConfig+0x4c4>)
 8004d4c:	6a1b      	ldr	r3, [r3, #32]
 8004d4e:	4a66      	ldr	r2, [pc, #408]	; (8004ee8 <HAL_RCC_OscConfig+0x4c4>)
 8004d50:	f023 0304 	bic.w	r3, r3, #4
 8004d54:	6213      	str	r3, [r2, #32]
 8004d56:	e01c      	b.n	8004d92 <HAL_RCC_OscConfig+0x36e>
 8004d58:	687b      	ldr	r3, [r7, #4]
 8004d5a:	68db      	ldr	r3, [r3, #12]
 8004d5c:	2b05      	cmp	r3, #5
 8004d5e:	d10c      	bne.n	8004d7a <HAL_RCC_OscConfig+0x356>
 8004d60:	4b61      	ldr	r3, [pc, #388]	; (8004ee8 <HAL_RCC_OscConfig+0x4c4>)
 8004d62:	6a1b      	ldr	r3, [r3, #32]
 8004d64:	4a60      	ldr	r2, [pc, #384]	; (8004ee8 <HAL_RCC_OscConfig+0x4c4>)
 8004d66:	f043 0304 	orr.w	r3, r3, #4
 8004d6a:	6213      	str	r3, [r2, #32]
 8004d6c:	4b5e      	ldr	r3, [pc, #376]	; (8004ee8 <HAL_RCC_OscConfig+0x4c4>)
 8004d6e:	6a1b      	ldr	r3, [r3, #32]
 8004d70:	4a5d      	ldr	r2, [pc, #372]	; (8004ee8 <HAL_RCC_OscConfig+0x4c4>)
 8004d72:	f043 0301 	orr.w	r3, r3, #1
 8004d76:	6213      	str	r3, [r2, #32]
 8004d78:	e00b      	b.n	8004d92 <HAL_RCC_OscConfig+0x36e>
 8004d7a:	4b5b      	ldr	r3, [pc, #364]	; (8004ee8 <HAL_RCC_OscConfig+0x4c4>)
 8004d7c:	6a1b      	ldr	r3, [r3, #32]
 8004d7e:	4a5a      	ldr	r2, [pc, #360]	; (8004ee8 <HAL_RCC_OscConfig+0x4c4>)
 8004d80:	f023 0301 	bic.w	r3, r3, #1
 8004d84:	6213      	str	r3, [r2, #32]
 8004d86:	4b58      	ldr	r3, [pc, #352]	; (8004ee8 <HAL_RCC_OscConfig+0x4c4>)
 8004d88:	6a1b      	ldr	r3, [r3, #32]
 8004d8a:	4a57      	ldr	r2, [pc, #348]	; (8004ee8 <HAL_RCC_OscConfig+0x4c4>)
 8004d8c:	f023 0304 	bic.w	r3, r3, #4
 8004d90:	6213      	str	r3, [r2, #32]
    /* Check the LSE State */
    if (RCC_OscInitStruct->LSEState != RCC_LSE_OFF)
 8004d92:	687b      	ldr	r3, [r7, #4]
 8004d94:	68db      	ldr	r3, [r3, #12]
 8004d96:	2b00      	cmp	r3, #0
 8004d98:	d015      	beq.n	8004dc6 <HAL_RCC_OscConfig+0x3a2>
    {
      /* Get Start Tick */
      tickstart = HAL_GetTick();
 8004d9a:	f7fe fc9b 	bl	80036d4 <HAL_GetTick>
 8004d9e:	6138      	str	r0, [r7, #16]

      /* Wait till LSE is ready */
      while (__HAL_RCC_GET_FLAG(RCC_FLAG_LSERDY) == RESET)
 8004da0:	e00a      	b.n	8004db8 <HAL_RCC_OscConfig+0x394>
      {
        if ((HAL_GetTick() - tickstart) > RCC_LSE_TIMEOUT_VALUE)
 8004da2:	f7fe fc97 	bl	80036d4 <HAL_GetTick>
 8004da6:	4602      	mov	r2, r0
 8004da8:	693b      	ldr	r3, [r7, #16]
 8004daa:	1ad3      	subs	r3, r2, r3
 8004dac:	f241 3288 	movw	r2, #5000	; 0x1388
 8004db0:	4293      	cmp	r3, r2
 8004db2:	d901      	bls.n	8004db8 <HAL_RCC_OscConfig+0x394>
        {
          return HAL_TIMEOUT;
 8004db4:	2303      	movs	r3, #3
 8004db6:	e0b1      	b.n	8004f1c <HAL_RCC_OscConfig+0x4f8>
      while (__HAL_RCC_GET_FLAG(RCC_FLAG_LSERDY) == RESET)
 8004db8:	4b4b      	ldr	r3, [pc, #300]	; (8004ee8 <HAL_RCC_OscConfig+0x4c4>)
 8004dba:	6a1b      	ldr	r3, [r3, #32]
 8004dbc:	f003 0302 	and.w	r3, r3, #2
 8004dc0:	2b00      	cmp	r3, #0
 8004dc2:	d0ee      	beq.n	8004da2 <HAL_RCC_OscConfig+0x37e>
 8004dc4:	e014      	b.n	8004df0 <HAL_RCC_OscConfig+0x3cc>
      }
    }
    else
    {
      /* Get Start Tick */
      tickstart = HAL_GetTick();
 8004dc6:	f7fe fc85 	bl	80036d4 <HAL_GetTick>
 8004dca:	6138      	str	r0, [r7, #16]

      /* Wait till LSE is disabled */
      while (__HAL_RCC_GET_FLAG(RCC_FLAG_LSERDY) != RESET)
 8004dcc:	e00a      	b.n	8004de4 <HAL_RCC_OscConfig+0x3c0>
      {
        if ((HAL_GetTick() - tickstart) > RCC_LSE_TIMEOUT_VALUE)
 8004dce:	f7fe fc81 	bl	80036d4 <HAL_GetTick>
 8004dd2:	4602      	mov	r2, r0
 8004dd4:	693b      	ldr	r3, [r7, #16]
 8004dd6:	1ad3      	subs	r3, r2, r3
 8004dd8:	f241 3288 	movw	r2, #5000	; 0x1388
 8004ddc:	4293      	cmp	r3, r2
 8004dde:	d901      	bls.n	8004de4 <HAL_RCC_OscConfig+0x3c0>
        {
          return HAL_TIMEOUT;
 8004de0:	2303      	movs	r3, #3
 8004de2:	e09b      	b.n	8004f1c <HAL_RCC_OscConfig+0x4f8>
      while (__HAL_RCC_GET_FLAG(RCC_FLAG_LSERDY) != RESET)
 8004de4:	4b40      	ldr	r3, [pc, #256]	; (8004ee8 <HAL_RCC_OscConfig+0x4c4>)
 8004de6:	6a1b      	ldr	r3, [r3, #32]
 8004de8:	f003 0302 	and.w	r3, r3, #2
 8004dec:	2b00      	cmp	r3, #0
 8004dee:	d1ee      	bne.n	8004dce <HAL_RCC_OscConfig+0x3aa>
        }
      }
    }

    /* Require to disable power clock if necessary */
    if (pwrclkchanged == SET)
 8004df0:	7dfb      	ldrb	r3, [r7, #23]
 8004df2:	2b01      	cmp	r3, #1
 8004df4:	d105      	bne.n	8004e02 <HAL_RCC_OscConfig+0x3de>
    {
      __HAL_RCC_PWR_CLK_DISABLE();
 8004df6:	4b3c      	ldr	r3, [pc, #240]	; (8004ee8 <HAL_RCC_OscConfig+0x4c4>)
 8004df8:	69db      	ldr	r3, [r3, #28]
 8004dfa:	4a3b      	ldr	r2, [pc, #236]	; (8004ee8 <HAL_RCC_OscConfig+0x4c4>)
 8004dfc:	f023 5380 	bic.w	r3, r3, #268435456	; 0x10000000
 8004e00:	61d3      	str	r3, [r2, #28]

#endif /* RCC_CR_PLL2ON */
  /*-------------------------------- PLL Configuration -----------------------*/
  /* Check the parameters */
  assert_param(IS_RCC_PLL(RCC_OscInitStruct->PLL.PLLState));
  if ((RCC_OscInitStruct->PLL.PLLState) != RCC_PLL_NONE)
 8004e02:	687b      	ldr	r3, [r7, #4]
 8004e04:	69db      	ldr	r3, [r3, #28]
 8004e06:	2b00      	cmp	r3, #0
 8004e08:	f000 8087 	beq.w	8004f1a <HAL_RCC_OscConfig+0x4f6>
  {
    /* Check if the PLL is used as system clock or not */
    if (__HAL_RCC_GET_SYSCLK_SOURCE() != RCC_SYSCLKSOURCE_STATUS_PLLCLK)
 8004e0c:	4b36      	ldr	r3, [pc, #216]	; (8004ee8 <HAL_RCC_OscConfig+0x4c4>)
 8004e0e:	685b      	ldr	r3, [r3, #4]
 8004e10:	f003 030c 	and.w	r3, r3, #12
 8004e14:	2b08      	cmp	r3, #8
 8004e16:	d061      	beq.n	8004edc <HAL_RCC_OscConfig+0x4b8>
    {
      if ((RCC_OscInitStruct->PLL.PLLState) == RCC_PLL_ON)
 8004e18:	687b      	ldr	r3, [r7, #4]
 8004e1a:	69db      	ldr	r3, [r3, #28]
 8004e1c:	2b02      	cmp	r3, #2
 8004e1e:	d146      	bne.n	8004eae <HAL_RCC_OscConfig+0x48a>
        /* Check the parameters */
        assert_param(IS_RCC_PLLSOURCE(RCC_OscInitStruct->PLL.PLLSource));
        assert_param(IS_RCC_PLL_MUL(RCC_OscInitStruct->PLL.PLLMUL));

        /* Disable the main PLL. */
        __HAL_RCC_PLL_DISABLE();
 8004e20:	4b33      	ldr	r3, [pc, #204]	; (8004ef0 <HAL_RCC_OscConfig+0x4cc>)
 8004e22:	2200      	movs	r2, #0
 8004e24:	601a      	str	r2, [r3, #0]

        /* Get Start Tick */
        tickstart = HAL_GetTick();
 8004e26:	f7fe fc55 	bl	80036d4 <HAL_GetTick>
 8004e2a:	6138      	str	r0, [r7, #16]

        /* Wait till PLL is disabled */
        while (__HAL_RCC_GET_FLAG(RCC_FLAG_PLLRDY)  != RESET)
 8004e2c:	e008      	b.n	8004e40 <HAL_RCC_OscConfig+0x41c>
        {
          if ((HAL_GetTick() - tickstart) > PLL_TIMEOUT_VALUE)
 8004e2e:	f7fe fc51 	bl	80036d4 <HAL_GetTick>
 8004e32:	4602      	mov	r2, r0
 8004e34:	693b      	ldr	r3, [r7, #16]
 8004e36:	1ad3      	subs	r3, r2, r3
 8004e38:	2b02      	cmp	r3, #2
 8004e3a:	d901      	bls.n	8004e40 <HAL_RCC_OscConfig+0x41c>
          {
            return HAL_TIMEOUT;
 8004e3c:	2303      	movs	r3, #3
 8004e3e:	e06d      	b.n	8004f1c <HAL_RCC_OscConfig+0x4f8>
        while (__HAL_RCC_GET_FLAG(RCC_FLAG_PLLRDY)  != RESET)
 8004e40:	4b29      	ldr	r3, [pc, #164]	; (8004ee8 <HAL_RCC_OscConfig+0x4c4>)
 8004e42:	681b      	ldr	r3, [r3, #0]
 8004e44:	f003 7300 	and.w	r3, r3, #33554432	; 0x2000000
 8004e48:	2b00      	cmp	r3, #0
 8004e4a:	d1f0      	bne.n	8004e2e <HAL_RCC_OscConfig+0x40a>
          }
        }

        /* Configure the HSE prediv factor --------------------------------*/
        /* It can be written only when the PLL is disabled. Not used in PLL source is different than HSE */
        if (RCC_OscInitStruct->PLL.PLLSource == RCC_PLLSOURCE_HSE)
 8004e4c:	687b      	ldr	r3, [r7, #4]
 8004e4e:	6a1b      	ldr	r3, [r3, #32]
 8004e50:	f5b3 3f80 	cmp.w	r3, #65536	; 0x10000
 8004e54:	d108      	bne.n	8004e68 <HAL_RCC_OscConfig+0x444>
          /* Set PREDIV1 source */
          SET_BIT(RCC->CFGR2, RCC_OscInitStruct->Prediv1Source);
#endif /* RCC_CFGR2_PREDIV1SRC */

          /* Set PREDIV1 Value */
          __HAL_RCC_HSE_PREDIV_CONFIG(RCC_OscInitStruct->HSEPredivValue);
 8004e56:	4b24      	ldr	r3, [pc, #144]	; (8004ee8 <HAL_RCC_OscConfig+0x4c4>)
 8004e58:	685b      	ldr	r3, [r3, #4]
 8004e5a:	f423 3200 	bic.w	r2, r3, #131072	; 0x20000
 8004e5e:	687b      	ldr	r3, [r7, #4]
 8004e60:	689b      	ldr	r3, [r3, #8]
 8004e62:	4921      	ldr	r1, [pc, #132]	; (8004ee8 <HAL_RCC_OscConfig+0x4c4>)
 8004e64:	4313      	orrs	r3, r2
 8004e66:	604b      	str	r3, [r1, #4]
        }

        /* Configure the main PLL clock source and multiplication factors. */
        __HAL_RCC_PLL_CONFIG(RCC_OscInitStruct->PLL.PLLSource,
 8004e68:	4b1f      	ldr	r3, [pc, #124]	; (8004ee8 <HAL_RCC_OscConfig+0x4c4>)
 8004e6a:	685b      	ldr	r3, [r3, #4]
 8004e6c:	f423 1274 	bic.w	r2, r3, #3997696	; 0x3d0000
 8004e70:	687b      	ldr	r3, [r7, #4]
 8004e72:	6a19      	ldr	r1, [r3, #32]
 8004e74:	687b      	ldr	r3, [r7, #4]
 8004e76:	6a5b      	ldr	r3, [r3, #36]	; 0x24
 8004e78:	430b      	orrs	r3, r1
 8004e7a:	491b      	ldr	r1, [pc, #108]	; (8004ee8 <HAL_RCC_OscConfig+0x4c4>)
 8004e7c:	4313      	orrs	r3, r2
 8004e7e:	604b      	str	r3, [r1, #4]
                             RCC_OscInitStruct->PLL.PLLMUL);
        /* Enable the main PLL. */
        __HAL_RCC_PLL_ENABLE();
 8004e80:	4b1b      	ldr	r3, [pc, #108]	; (8004ef0 <HAL_RCC_OscConfig+0x4cc>)
 8004e82:	2201      	movs	r2, #1
 8004e84:	601a      	str	r2, [r3, #0]

        /* Get Start Tick */
        tickstart = HAL_GetTick();
 8004e86:	f7fe fc25 	bl	80036d4 <HAL_GetTick>
 8004e8a:	6138      	str	r0, [r7, #16]

        /* Wait till PLL is ready */
        while (__HAL_RCC_GET_FLAG(RCC_FLAG_PLLRDY)  == RESET)
 8004e8c:	e008      	b.n	8004ea0 <HAL_RCC_OscConfig+0x47c>
        {
          if ((HAL_GetTick() - tickstart) > PLL_TIMEOUT_VALUE)
 8004e8e:	f7fe fc21 	bl	80036d4 <HAL_GetTick>
 8004e92:	4602      	mov	r2, r0
 8004e94:	693b      	ldr	r3, [r7, #16]
 8004e96:	1ad3      	subs	r3, r2, r3
 8004e98:	2b02      	cmp	r3, #2
 8004e9a:	d901      	bls.n	8004ea0 <HAL_RCC_OscConfig+0x47c>
          {
            return HAL_TIMEOUT;
 8004e9c:	2303      	movs	r3, #3
 8004e9e:	e03d      	b.n	8004f1c <HAL_RCC_OscConfig+0x4f8>
        while (__HAL_RCC_GET_FLAG(RCC_FLAG_PLLRDY)  == RESET)
 8004ea0:	4b11      	ldr	r3, [pc, #68]	; (8004ee8 <HAL_RCC_OscConfig+0x4c4>)
 8004ea2:	681b      	ldr	r3, [r3, #0]
 8004ea4:	f003 7300 	and.w	r3, r3, #33554432	; 0x2000000
 8004ea8:	2b00      	cmp	r3, #0
 8004eaa:	d0f0      	beq.n	8004e8e <HAL_RCC_OscConfig+0x46a>
 8004eac:	e035      	b.n	8004f1a <HAL_RCC_OscConfig+0x4f6>
        }
      }
      else
      {
        /* Disable the main PLL. */
        __HAL_RCC_PLL_DISABLE();
 8004eae:	4b10      	ldr	r3, [pc, #64]	; (8004ef0 <HAL_RCC_OscConfig+0x4cc>)
 8004eb0:	2200      	movs	r2, #0
 8004eb2:	601a      	str	r2, [r3, #0]

        /* Get Start Tick */
        tickstart = HAL_GetTick();
 8004eb4:	f7fe fc0e 	bl	80036d4 <HAL_GetTick>
 8004eb8:	6138      	str	r0, [r7, #16]

        /* Wait till PLL is disabled */
        while (__HAL_RCC_GET_FLAG(RCC_FLAG_PLLRDY)  != RESET)
 8004eba:	e008      	b.n	8004ece <HAL_RCC_OscConfig+0x4aa>
        {
          if ((HAL_GetTick() - tickstart) > PLL_TIMEOUT_VALUE)
 8004ebc:	f7fe fc0a 	bl	80036d4 <HAL_GetTick>
 8004ec0:	4602      	mov	r2, r0
 8004ec2:	693b      	ldr	r3, [r7, #16]
 8004ec4:	1ad3      	subs	r3, r2, r3
 8004ec6:	2b02      	cmp	r3, #2
 8004ec8:	d901      	bls.n	8004ece <HAL_RCC_OscConfig+0x4aa>
          {
            return HAL_TIMEOUT;
 8004eca:	2303      	movs	r3, #3
 8004ecc:	e026      	b.n	8004f1c <HAL_RCC_OscConfig+0x4f8>
        while (__HAL_RCC_GET_FLAG(RCC_FLAG_PLLRDY)  != RESET)
 8004ece:	4b06      	ldr	r3, [pc, #24]	; (8004ee8 <HAL_RCC_OscConfig+0x4c4>)
 8004ed0:	681b      	ldr	r3, [r3, #0]
 8004ed2:	f003 7300 	and.w	r3, r3, #33554432	; 0x2000000
 8004ed6:	2b00      	cmp	r3, #0
 8004ed8:	d1f0      	bne.n	8004ebc <HAL_RCC_OscConfig+0x498>
 8004eda:	e01e      	b.n	8004f1a <HAL_RCC_OscConfig+0x4f6>
      }
    }
    else
    {
      /* Check if there is a request to disable the PLL used as System clock source */
      if ((RCC_OscInitStruct->PLL.PLLState) == RCC_PLL_OFF)
 8004edc:	687b      	ldr	r3, [r7, #4]
 8004ede:	69db      	ldr	r3, [r3, #28]
 8004ee0:	2b01      	cmp	r3, #1
 8004ee2:	d107      	bne.n	8004ef4 <HAL_RCC_OscConfig+0x4d0>
      {
        return HAL_ERROR;
 8004ee4:	2301      	movs	r3, #1
 8004ee6:	e019      	b.n	8004f1c <HAL_RCC_OscConfig+0x4f8>
 8004ee8:	40021000 	.word	0x40021000
 8004eec:	40007000 	.word	0x40007000
 8004ef0:	42420060 	.word	0x42420060
      }
      else
      {
        /* Do not return HAL_ERROR if request repeats the current configuration */
        pll_config = RCC->CFGR;
 8004ef4:	4b0b      	ldr	r3, [pc, #44]	; (8004f24 <HAL_RCC_OscConfig+0x500>)
 8004ef6:	685b      	ldr	r3, [r3, #4]
 8004ef8:	60fb      	str	r3, [r7, #12]
        if ((READ_BIT(pll_config, RCC_CFGR_PLLSRC) != RCC_OscInitStruct->PLL.PLLSource) ||
 8004efa:	68fb      	ldr	r3, [r7, #12]
 8004efc:	f403 3280 	and.w	r2, r3, #65536	; 0x10000
 8004f00:	687b      	ldr	r3, [r7, #4]
 8004f02:	6a1b      	ldr	r3, [r3, #32]
 8004f04:	429a      	cmp	r2, r3
 8004f06:	d106      	bne.n	8004f16 <HAL_RCC_OscConfig+0x4f2>
            (READ_BIT(pll_config, RCC_CFGR_PLLMULL) != RCC_OscInitStruct->PLL.PLLMUL))
 8004f08:	68fb      	ldr	r3, [r7, #12]
 8004f0a:	f403 1270 	and.w	r2, r3, #3932160	; 0x3c0000
 8004f0e:	687b      	ldr	r3, [r7, #4]
 8004f10:	6a5b      	ldr	r3, [r3, #36]	; 0x24
        if ((READ_BIT(pll_config, RCC_CFGR_PLLSRC) != RCC_OscInitStruct->PLL.PLLSource) ||
 8004f12:	429a      	cmp	r2, r3
 8004f14:	d001      	beq.n	8004f1a <HAL_RCC_OscConfig+0x4f6>
        {
          return HAL_ERROR;
 8004f16:	2301      	movs	r3, #1
 8004f18:	e000      	b.n	8004f1c <HAL_RCC_OscConfig+0x4f8>
        }
      }
    }
  }

  return HAL_OK;
 8004f1a:	2300      	movs	r3, #0
}
 8004f1c:	4618      	mov	r0, r3
 8004f1e:	3718      	adds	r7, #24
 8004f20:	46bd      	mov	sp, r7
 8004f22:	bd80      	pop	{r7, pc}
 8004f24:	40021000 	.word	0x40021000

08004f28 <HAL_RCC_ClockConfig>:
  *         You can use @ref HAL_RCC_GetClockConfig() function to know which clock is
  *         currently used as system clock source.
  * @retval HAL status
  */
HAL_StatusTypeDef HAL_RCC_ClockConfig(RCC_ClkInitTypeDef  *RCC_ClkInitStruct, uint32_t FLatency)
{
 8004f28:	b580      	push	{r7, lr}
 8004f2a:	b084      	sub	sp, #16
 8004f2c:	af00      	add	r7, sp, #0
 8004f2e:	6078      	str	r0, [r7, #4]
 8004f30:	6039      	str	r1, [r7, #0]
  uint32_t tickstart;

  /* Check Null pointer */
  if (RCC_ClkInitStruct == NULL)
 8004f32:	687b      	ldr	r3, [r7, #4]
 8004f34:	2b00      	cmp	r3, #0
 8004f36:	d101      	bne.n	8004f3c <HAL_RCC_ClockConfig+0x14>
  {
    return HAL_ERROR;
 8004f38:	2301      	movs	r3, #1
 8004f3a:	e0d0      	b.n	80050de <HAL_RCC_ClockConfig+0x1b6>
  must be correctly programmed according to the frequency of the CPU clock
    (HCLK) of the device. */

#if defined(FLASH_ACR_LATENCY)
  /* Increasing the number of wait states because of higher CPU frequency */
  if (FLatency > __HAL_FLASH_GET_LATENCY())
 8004f3c:	4b6a      	ldr	r3, [pc, #424]	; (80050e8 <HAL_RCC_ClockConfig+0x1c0>)
 8004f3e:	681b      	ldr	r3, [r3, #0]
 8004f40:	f003 0307 	and.w	r3, r3, #7
 8004f44:	683a      	ldr	r2, [r7, #0]
 8004f46:	429a      	cmp	r2, r3
 8004f48:	d910      	bls.n	8004f6c <HAL_RCC_ClockConfig+0x44>
  {
    /* Program the new number of wait states to the LATENCY bits in the FLASH_ACR register */
    __HAL_FLASH_SET_LATENCY(FLatency);
 8004f4a:	4b67      	ldr	r3, [pc, #412]	; (80050e8 <HAL_RCC_ClockConfig+0x1c0>)
 8004f4c:	681b      	ldr	r3, [r3, #0]
 8004f4e:	f023 0207 	bic.w	r2, r3, #7
 8004f52:	4965      	ldr	r1, [pc, #404]	; (80050e8 <HAL_RCC_ClockConfig+0x1c0>)
 8004f54:	683b      	ldr	r3, [r7, #0]
 8004f56:	4313      	orrs	r3, r2
 8004f58:	600b      	str	r3, [r1, #0]

    /* Check that the new number of wait states is taken into account to access the Flash
    memory by reading the FLASH_ACR register */
    if (__HAL_FLASH_GET_LATENCY() != FLatency)
 8004f5a:	4b63      	ldr	r3, [pc, #396]	; (80050e8 <HAL_RCC_ClockConfig+0x1c0>)
 8004f5c:	681b      	ldr	r3, [r3, #0]
 8004f5e:	f003 0307 	and.w	r3, r3, #7
 8004f62:	683a      	ldr	r2, [r7, #0]
 8004f64:	429a      	cmp	r2, r3
 8004f66:	d001      	beq.n	8004f6c <HAL_RCC_ClockConfig+0x44>
  {
    return HAL_ERROR;
 8004f68:	2301      	movs	r3, #1
 8004f6a:	e0b8      	b.n	80050de <HAL_RCC_ClockConfig+0x1b6>
  }
}

#endif /* FLASH_ACR_LATENCY */
/*-------------------------- HCLK Configuration --------------------------*/
if (((RCC_ClkInitStruct->ClockType) & RCC_CLOCKTYPE_HCLK) == RCC_CLOCKTYPE_HCLK)
 8004f6c:	687b      	ldr	r3, [r7, #4]
 8004f6e:	681b      	ldr	r3, [r3, #0]
 8004f70:	f003 0302 	and.w	r3, r3, #2
 8004f74:	2b00      	cmp	r3, #0
 8004f76:	d020      	beq.n	8004fba <HAL_RCC_ClockConfig+0x92>
  {
    /* Set the highest APBx dividers in order to ensure that we do not go through
    a non-spec phase whatever we decrease or increase HCLK. */
    if (((RCC_ClkInitStruct->ClockType) & RCC_CLOCKTYPE_PCLK1) == RCC_CLOCKTYPE_PCLK1)
 8004f78:	687b      	ldr	r3, [r7, #4]
 8004f7a:	681b      	ldr	r3, [r3, #0]
 8004f7c:	f003 0304 	and.w	r3, r3, #4
 8004f80:	2b00      	cmp	r3, #0
 8004f82:	d005      	beq.n	8004f90 <HAL_RCC_ClockConfig+0x68>
    {
      MODIFY_REG(RCC->CFGR, RCC_CFGR_PPRE1, RCC_HCLK_DIV16);
 8004f84:	4b59      	ldr	r3, [pc, #356]	; (80050ec <HAL_RCC_ClockConfig+0x1c4>)
 8004f86:	685b      	ldr	r3, [r3, #4]
 8004f88:	4a58      	ldr	r2, [pc, #352]	; (80050ec <HAL_RCC_ClockConfig+0x1c4>)
 8004f8a:	f443 63e0 	orr.w	r3, r3, #1792	; 0x700
 8004f8e:	6053      	str	r3, [r2, #4]
    }

    if (((RCC_ClkInitStruct->ClockType) & RCC_CLOCKTYPE_PCLK2) == RCC_CLOCKTYPE_PCLK2)
 8004f90:	687b      	ldr	r3, [r7, #4]
 8004f92:	681b      	ldr	r3, [r3, #0]
 8004f94:	f003 0308 	and.w	r3, r3, #8
 8004f98:	2b00      	cmp	r3, #0
 8004f9a:	d005      	beq.n	8004fa8 <HAL_RCC_ClockConfig+0x80>
    {
      MODIFY_REG(RCC->CFGR, RCC_CFGR_PPRE2, (RCC_HCLK_DIV16 << 3));
 8004f9c:	4b53      	ldr	r3, [pc, #332]	; (80050ec <HAL_RCC_ClockConfig+0x1c4>)
 8004f9e:	685b      	ldr	r3, [r3, #4]
 8004fa0:	4a52      	ldr	r2, [pc, #328]	; (80050ec <HAL_RCC_ClockConfig+0x1c4>)
 8004fa2:	f443 5360 	orr.w	r3, r3, #14336	; 0x3800
 8004fa6:	6053      	str	r3, [r2, #4]
    }

    /* Set the new HCLK clock divider */
    assert_param(IS_RCC_HCLK(RCC_ClkInitStruct->AHBCLKDivider));
    MODIFY_REG(RCC->CFGR, RCC_CFGR_HPRE, RCC_ClkInitStruct->AHBCLKDivider);
 8004fa8:	4b50      	ldr	r3, [pc, #320]	; (80050ec <HAL_RCC_ClockConfig+0x1c4>)
 8004faa:	685b      	ldr	r3, [r3, #4]
 8004fac:	f023 02f0 	bic.w	r2, r3, #240	; 0xf0
 8004fb0:	687b      	ldr	r3, [r7, #4]
 8004fb2:	689b      	ldr	r3, [r3, #8]
 8004fb4:	494d      	ldr	r1, [pc, #308]	; (80050ec <HAL_RCC_ClockConfig+0x1c4>)
 8004fb6:	4313      	orrs	r3, r2
 8004fb8:	604b      	str	r3, [r1, #4]
  }

  /*------------------------- SYSCLK Configuration ---------------------------*/
  if (((RCC_ClkInitStruct->ClockType) & RCC_CLOCKTYPE_SYSCLK) == RCC_CLOCKTYPE_SYSCLK)
 8004fba:	687b      	ldr	r3, [r7, #4]
 8004fbc:	681b      	ldr	r3, [r3, #0]
 8004fbe:	f003 0301 	and.w	r3, r3, #1
 8004fc2:	2b00      	cmp	r3, #0
 8004fc4:	d040      	beq.n	8005048 <HAL_RCC_ClockConfig+0x120>
  {
    assert_param(IS_RCC_SYSCLKSOURCE(RCC_ClkInitStruct->SYSCLKSource));

    /* HSE is selected as System Clock Source */
    if (RCC_ClkInitStruct->SYSCLKSource == RCC_SYSCLKSOURCE_HSE)
 8004fc6:	687b      	ldr	r3, [r7, #4]
 8004fc8:	685b      	ldr	r3, [r3, #4]
 8004fca:	2b01      	cmp	r3, #1
 8004fcc:	d107      	bne.n	8004fde <HAL_RCC_ClockConfig+0xb6>
    {
      /* Check the HSE ready flag */
      if (__HAL_RCC_GET_FLAG(RCC_FLAG_HSERDY) == RESET)
 8004fce:	4b47      	ldr	r3, [pc, #284]	; (80050ec <HAL_RCC_ClockConfig+0x1c4>)
 8004fd0:	681b      	ldr	r3, [r3, #0]
 8004fd2:	f403 3300 	and.w	r3, r3, #131072	; 0x20000
 8004fd6:	2b00      	cmp	r3, #0
 8004fd8:	d115      	bne.n	8005006 <HAL_RCC_ClockConfig+0xde>
      {
        return HAL_ERROR;
 8004fda:	2301      	movs	r3, #1
 8004fdc:	e07f      	b.n	80050de <HAL_RCC_ClockConfig+0x1b6>
      }
    }
    /* PLL is selected as System Clock Source */
    else if (RCC_ClkInitStruct->SYSCLKSource == RCC_SYSCLKSOURCE_PLLCLK)
 8004fde:	687b      	ldr	r3, [r7, #4]
 8004fe0:	685b      	ldr	r3, [r3, #4]
 8004fe2:	2b02      	cmp	r3, #2
 8004fe4:	d107      	bne.n	8004ff6 <HAL_RCC_ClockConfig+0xce>
    {
      /* Check the PLL ready flag */
      if (__HAL_RCC_GET_FLAG(RCC_FLAG_PLLRDY) == RESET)
 8004fe6:	4b41      	ldr	r3, [pc, #260]	; (80050ec <HAL_RCC_ClockConfig+0x1c4>)
 8004fe8:	681b      	ldr	r3, [r3, #0]
 8004fea:	f003 7300 	and.w	r3, r3, #33554432	; 0x2000000
 8004fee:	2b00      	cmp	r3, #0
 8004ff0:	d109      	bne.n	8005006 <HAL_RCC_ClockConfig+0xde>
      {
        return HAL_ERROR;
 8004ff2:	2301      	movs	r3, #1
 8004ff4:	e073      	b.n	80050de <HAL_RCC_ClockConfig+0x1b6>
    }
    /* HSI is selected as System Clock Source */
    else
    {
      /* Check the HSI ready flag */
      if (__HAL_RCC_GET_FLAG(RCC_FLAG_HSIRDY) == RESET)
 8004ff6:	4b3d      	ldr	r3, [pc, #244]	; (80050ec <HAL_RCC_ClockConfig+0x1c4>)
 8004ff8:	681b      	ldr	r3, [r3, #0]
 8004ffa:	f003 0302 	and.w	r3, r3, #2
 8004ffe:	2b00      	cmp	r3, #0
 8005000:	d101      	bne.n	8005006 <HAL_RCC_ClockConfig+0xde>
      {
        return HAL_ERROR;
 8005002:	2301      	movs	r3, #1
 8005004:	e06b      	b.n	80050de <HAL_RCC_ClockConfig+0x1b6>
      }
    }
    __HAL_RCC_SYSCLK_CONFIG(RCC_ClkInitStruct->SYSCLKSource);
 8005006:	4b39      	ldr	r3, [pc, #228]	; (80050ec <HAL_RCC_ClockConfig+0x1c4>)
 8005008:	685b      	ldr	r3, [r3, #4]
 800500a:	f023 0203 	bic.w	r2, r3, #3
 800500e:	687b      	ldr	r3, [r7, #4]
 8005010:	685b      	ldr	r3, [r3, #4]
 8005012:	4936      	ldr	r1, [pc, #216]	; (80050ec <HAL_RCC_ClockConfig+0x1c4>)
 8005014:	4313      	orrs	r3, r2
 8005016:	604b      	str	r3, [r1, #4]

    /* Get Start Tick */
    tickstart = HAL_GetTick();
 8005018:	f7fe fb5c 	bl	80036d4 <HAL_GetTick>
 800501c:	60f8      	str	r0, [r7, #12]

    while (__HAL_RCC_GET_SYSCLK_SOURCE() != (RCC_ClkInitStruct->SYSCLKSource << RCC_CFGR_SWS_Pos))
 800501e:	e00a      	b.n	8005036 <HAL_RCC_ClockConfig+0x10e>
    {
      if ((HAL_GetTick() - tickstart) > CLOCKSWITCH_TIMEOUT_VALUE)
 8005020:	f7fe fb58 	bl	80036d4 <HAL_GetTick>
 8005024:	4602      	mov	r2, r0
 8005026:	68fb      	ldr	r3, [r7, #12]
 8005028:	1ad3      	subs	r3, r2, r3
 800502a:	f241 3288 	movw	r2, #5000	; 0x1388
 800502e:	4293      	cmp	r3, r2
 8005030:	d901      	bls.n	8005036 <HAL_RCC_ClockConfig+0x10e>
      {
        return HAL_TIMEOUT;
 8005032:	2303      	movs	r3, #3
 8005034:	e053      	b.n	80050de <HAL_RCC_ClockConfig+0x1b6>
    while (__HAL_RCC_GET_SYSCLK_SOURCE() != (RCC_ClkInitStruct->SYSCLKSource << RCC_CFGR_SWS_Pos))
 8005036:	4b2d      	ldr	r3, [pc, #180]	; (80050ec <HAL_RCC_ClockConfig+0x1c4>)
 8005038:	685b      	ldr	r3, [r3, #4]
 800503a:	f003 020c 	and.w	r2, r3, #12
 800503e:	687b      	ldr	r3, [r7, #4]
 8005040:	685b      	ldr	r3, [r3, #4]
 8005042:	009b      	lsls	r3, r3, #2
 8005044:	429a      	cmp	r2, r3
 8005046:	d1eb      	bne.n	8005020 <HAL_RCC_ClockConfig+0xf8>
    }
  }

#if defined(FLASH_ACR_LATENCY)
  /* Decreasing the number of wait states because of lower CPU frequency */
  if (FLatency < __HAL_FLASH_GET_LATENCY())
 8005048:	4b27      	ldr	r3, [pc, #156]	; (80050e8 <HAL_RCC_ClockConfig+0x1c0>)
 800504a:	681b      	ldr	r3, [r3, #0]
 800504c:	f003 0307 	and.w	r3, r3, #7
 8005050:	683a      	ldr	r2, [r7, #0]
 8005052:	429a      	cmp	r2, r3
 8005054:	d210      	bcs.n	8005078 <HAL_RCC_ClockConfig+0x150>
  {
    /* Program the new number of wait states to the LATENCY bits in the FLASH_ACR register */
    __HAL_FLASH_SET_LATENCY(FLatency);
 8005056:	4b24      	ldr	r3, [pc, #144]	; (80050e8 <HAL_RCC_ClockConfig+0x1c0>)
 8005058:	681b      	ldr	r3, [r3, #0]
 800505a:	f023 0207 	bic.w	r2, r3, #7
 800505e:	4922      	ldr	r1, [pc, #136]	; (80050e8 <HAL_RCC_ClockConfig+0x1c0>)
 8005060:	683b      	ldr	r3, [r7, #0]
 8005062:	4313      	orrs	r3, r2
 8005064:	600b      	str	r3, [r1, #0]

    /* Check that the new number of wait states is taken into account to access the Flash
    memory by reading the FLASH_ACR register */
    if (__HAL_FLASH_GET_LATENCY() != FLatency)
 8005066:	4b20      	ldr	r3, [pc, #128]	; (80050e8 <HAL_RCC_ClockConfig+0x1c0>)
 8005068:	681b      	ldr	r3, [r3, #0]
 800506a:	f003 0307 	and.w	r3, r3, #7
 800506e:	683a      	ldr	r2, [r7, #0]
 8005070:	429a      	cmp	r2, r3
 8005072:	d001      	beq.n	8005078 <HAL_RCC_ClockConfig+0x150>
  {
    return HAL_ERROR;
 8005074:	2301      	movs	r3, #1
 8005076:	e032      	b.n	80050de <HAL_RCC_ClockConfig+0x1b6>
  }
}
#endif /* FLASH_ACR_LATENCY */

/*-------------------------- PCLK1 Configuration ---------------------------*/
if (((RCC_ClkInitStruct->ClockType) & RCC_CLOCKTYPE_PCLK1) == RCC_CLOCKTYPE_PCLK1)
 8005078:	687b      	ldr	r3, [r7, #4]
 800507a:	681b      	ldr	r3, [r3, #0]
 800507c:	f003 0304 	and.w	r3, r3, #4
 8005080:	2b00      	cmp	r3, #0
 8005082:	d008      	beq.n	8005096 <HAL_RCC_ClockConfig+0x16e>
  {
    assert_param(IS_RCC_PCLK(RCC_ClkInitStruct->APB1CLKDivider));
    MODIFY_REG(RCC->CFGR, RCC_CFGR_PPRE1, RCC_ClkInitStruct->APB1CLKDivider);
 8005084:	4b19      	ldr	r3, [pc, #100]	; (80050ec <HAL_RCC_ClockConfig+0x1c4>)
 8005086:	685b      	ldr	r3, [r3, #4]
 8005088:	f423 62e0 	bic.w	r2, r3, #1792	; 0x700
 800508c:	687b      	ldr	r3, [r7, #4]
 800508e:	68db      	ldr	r3, [r3, #12]
 8005090:	4916      	ldr	r1, [pc, #88]	; (80050ec <HAL_RCC_ClockConfig+0x1c4>)
 8005092:	4313      	orrs	r3, r2
 8005094:	604b      	str	r3, [r1, #4]
  }

  /*-------------------------- PCLK2 Configuration ---------------------------*/
  if (((RCC_ClkInitStruct->ClockType) & RCC_CLOCKTYPE_PCLK2) == RCC_CLOCKTYPE_PCLK2)
 8005096:	687b      	ldr	r3, [r7, #4]
 8005098:	681b      	ldr	r3, [r3, #0]
 800509a:	f003 0308 	and.w	r3, r3, #8
 800509e:	2b00      	cmp	r3, #0
 80050a0:	d009      	beq.n	80050b6 <HAL_RCC_ClockConfig+0x18e>
  {
    assert_param(IS_RCC_PCLK(RCC_ClkInitStruct->APB2CLKDivider));
    MODIFY_REG(RCC->CFGR, RCC_CFGR_PPRE2, ((RCC_ClkInitStruct->APB2CLKDivider) << 3));
 80050a2:	4b12      	ldr	r3, [pc, #72]	; (80050ec <HAL_RCC_ClockConfig+0x1c4>)
 80050a4:	685b      	ldr	r3, [r3, #4]
 80050a6:	f423 5260 	bic.w	r2, r3, #14336	; 0x3800
 80050aa:	687b      	ldr	r3, [r7, #4]
 80050ac:	691b      	ldr	r3, [r3, #16]
 80050ae:	00db      	lsls	r3, r3, #3
 80050b0:	490e      	ldr	r1, [pc, #56]	; (80050ec <HAL_RCC_ClockConfig+0x1c4>)
 80050b2:	4313      	orrs	r3, r2
 80050b4:	604b      	str	r3, [r1, #4]
  }

  /* Update the SystemCoreClock global variable */
  SystemCoreClock = HAL_RCC_GetSysClockFreq() >> AHBPrescTable[(RCC->CFGR & RCC_CFGR_HPRE) >> RCC_CFGR_HPRE_Pos];
 80050b6:	f000 f821 	bl	80050fc <HAL_RCC_GetSysClockFreq>
 80050ba:	4602      	mov	r2, r0
 80050bc:	4b0b      	ldr	r3, [pc, #44]	; (80050ec <HAL_RCC_ClockConfig+0x1c4>)
 80050be:	685b      	ldr	r3, [r3, #4]
 80050c0:	091b      	lsrs	r3, r3, #4
 80050c2:	f003 030f 	and.w	r3, r3, #15
 80050c6:	490a      	ldr	r1, [pc, #40]	; (80050f0 <HAL_RCC_ClockConfig+0x1c8>)
 80050c8:	5ccb      	ldrb	r3, [r1, r3]
 80050ca:	fa22 f303 	lsr.w	r3, r2, r3
 80050ce:	4a09      	ldr	r2, [pc, #36]	; (80050f4 <HAL_RCC_ClockConfig+0x1cc>)
 80050d0:	6013      	str	r3, [r2, #0]

  /* Configure the source of time base considering new system clocks settings*/
  HAL_InitTick(uwTickPrio);
 80050d2:	4b09      	ldr	r3, [pc, #36]	; (80050f8 <HAL_RCC_ClockConfig+0x1d0>)
 80050d4:	681b      	ldr	r3, [r3, #0]
 80050d6:	4618      	mov	r0, r3
 80050d8:	f7fe faba 	bl	8003650 <HAL_InitTick>

  return HAL_OK;
 80050dc:	2300      	movs	r3, #0
}
 80050de:	4618      	mov	r0, r3
 80050e0:	3710      	adds	r7, #16
 80050e2:	46bd      	mov	sp, r7
 80050e4:	bd80      	pop	{r7, pc}
 80050e6:	bf00      	nop
 80050e8:	40022000 	.word	0x40022000
 80050ec:	40021000 	.word	0x40021000
 80050f0:	0800721c 	.word	0x0800721c
 80050f4:	20000010 	.word	0x20000010
 80050f8:	20000014 	.word	0x20000014

080050fc <HAL_RCC_GetSysClockFreq>:
  *         right SYSCLK value. Otherwise, any configuration based on this function will be incorrect.
  *
  * @retval SYSCLK frequency
  */
uint32_t HAL_RCC_GetSysClockFreq(void)
{
 80050fc:	b490      	push	{r4, r7}
 80050fe:	b08a      	sub	sp, #40	; 0x28
 8005100:	af00      	add	r7, sp, #0
#if defined(RCC_CFGR2_PREDIV1SRC)
  const uint8_t aPLLMULFactorTable[14] = {0, 0, 4, 5, 6, 7, 8, 9, 0, 0, 0, 0, 0, 13};
  const uint8_t aPredivFactorTable[16] = {1, 2, 3, 4, 5, 6, 7, 8, 9, 10, 11, 12, 13, 14, 15, 16};
#else
  const uint8_t aPLLMULFactorTable[16] = {2, 3, 4, 5, 6, 7, 8, 9, 10, 11, 12, 13, 14, 15, 16, 16};
 8005102:	4b29      	ldr	r3, [pc, #164]	; (80051a8 <HAL_RCC_GetSysClockFreq+0xac>)
 8005104:	1d3c      	adds	r4, r7, #4
 8005106:	cb0f      	ldmia	r3, {r0, r1, r2, r3}
 8005108:	e884 000f 	stmia.w	r4, {r0, r1, r2, r3}
#if defined(RCC_CFGR2_PREDIV1)
  const uint8_t aPredivFactorTable[16] = {1, 2, 3, 4, 5, 6, 7, 8, 9, 10, 11, 12, 13, 14, 15, 16};
#else
  const uint8_t aPredivFactorTable[2] = {1, 2};
 800510c:	f240 2301 	movw	r3, #513	; 0x201
 8005110:	803b      	strh	r3, [r7, #0]
#endif /*RCC_CFGR2_PREDIV1*/

#endif
  uint32_t tmpreg = 0U, prediv = 0U, pllclk = 0U, pllmul = 0U;
 8005112:	2300      	movs	r3, #0
 8005114:	61fb      	str	r3, [r7, #28]
 8005116:	2300      	movs	r3, #0
 8005118:	61bb      	str	r3, [r7, #24]
 800511a:	2300      	movs	r3, #0
 800511c:	627b      	str	r3, [r7, #36]	; 0x24
 800511e:	2300      	movs	r3, #0
 8005120:	617b      	str	r3, [r7, #20]
  uint32_t sysclockfreq = 0U;
 8005122:	2300      	movs	r3, #0
 8005124:	623b      	str	r3, [r7, #32]
#if defined(RCC_CFGR2_PREDIV1SRC)
  uint32_t prediv2 = 0U, pll2mul = 0U;
#endif /*RCC_CFGR2_PREDIV1SRC*/

  tmpreg = RCC->CFGR;
 8005126:	4b21      	ldr	r3, [pc, #132]	; (80051ac <HAL_RCC_GetSysClockFreq+0xb0>)
 8005128:	685b      	ldr	r3, [r3, #4]
 800512a:	61fb      	str	r3, [r7, #28]

  /* Get SYSCLK source -------------------------------------------------------*/
  switch (tmpreg & RCC_CFGR_SWS)
 800512c:	69fb      	ldr	r3, [r7, #28]
 800512e:	f003 030c 	and.w	r3, r3, #12
 8005132:	2b04      	cmp	r3, #4
 8005134:	d002      	beq.n	800513c <HAL_RCC_GetSysClockFreq+0x40>
 8005136:	2b08      	cmp	r3, #8
 8005138:	d003      	beq.n	8005142 <HAL_RCC_GetSysClockFreq+0x46>
 800513a:	e02b      	b.n	8005194 <HAL_RCC_GetSysClockFreq+0x98>
  {
    case RCC_SYSCLKSOURCE_STATUS_HSE:  /* HSE used as system clock */
    {
      sysclockfreq = HSE_VALUE;
 800513c:	4b1c      	ldr	r3, [pc, #112]	; (80051b0 <HAL_RCC_GetSysClockFreq+0xb4>)
 800513e:	623b      	str	r3, [r7, #32]
      break;
 8005140:	e02b      	b.n	800519a <HAL_RCC_GetSysClockFreq+0x9e>
    }
    case RCC_SYSCLKSOURCE_STATUS_PLLCLK:  /* PLL used as system clock */
    {
      pllmul = aPLLMULFactorTable[(uint32_t)(tmpreg & RCC_CFGR_PLLMULL) >> RCC_CFGR_PLLMULL_Pos];
 8005142:	69fb      	ldr	r3, [r7, #28]
 8005144:	0c9b      	lsrs	r3, r3, #18
 8005146:	f003 030f 	and.w	r3, r3, #15
 800514a:	3328      	adds	r3, #40	; 0x28
 800514c:	443b      	add	r3, r7
 800514e:	f813 3c24 	ldrb.w	r3, [r3, #-36]
 8005152:	617b      	str	r3, [r7, #20]
      if ((tmpreg & RCC_CFGR_PLLSRC) != RCC_PLLSOURCE_HSI_DIV2)
 8005154:	69fb      	ldr	r3, [r7, #28]
 8005156:	f403 3380 	and.w	r3, r3, #65536	; 0x10000
 800515a:	2b00      	cmp	r3, #0
 800515c:	d012      	beq.n	8005184 <HAL_RCC_GetSysClockFreq+0x88>
      {
#if defined(RCC_CFGR2_PREDIV1)
        prediv = aPredivFactorTable[(uint32_t)(RCC->CFGR2 & RCC_CFGR2_PREDIV1) >> RCC_CFGR2_PREDIV1_Pos];
#else
        prediv = aPredivFactorTable[(uint32_t)(RCC->CFGR & RCC_CFGR_PLLXTPRE) >> RCC_CFGR_PLLXTPRE_Pos];
 800515e:	4b13      	ldr	r3, [pc, #76]	; (80051ac <HAL_RCC_GetSysClockFreq+0xb0>)
 8005160:	685b      	ldr	r3, [r3, #4]
 8005162:	0c5b      	lsrs	r3, r3, #17
 8005164:	f003 0301 	and.w	r3, r3, #1
 8005168:	3328      	adds	r3, #40	; 0x28
 800516a:	443b      	add	r3, r7
 800516c:	f813 3c28 	ldrb.w	r3, [r3, #-40]
 8005170:	61bb      	str	r3, [r7, #24]
        {
          pllclk = pllclk / 2;
        }
#else
        /* HSE used as PLL clock source : PLLCLK = HSE/PREDIV1 * PLLMUL */
        pllclk = (uint32_t)((HSE_VALUE  * pllmul) / prediv);
 8005172:	697b      	ldr	r3, [r7, #20]
 8005174:	4a0e      	ldr	r2, [pc, #56]	; (80051b0 <HAL_RCC_GetSysClockFreq+0xb4>)
 8005176:	fb03 f202 	mul.w	r2, r3, r2
 800517a:	69bb      	ldr	r3, [r7, #24]
 800517c:	fbb2 f3f3 	udiv	r3, r2, r3
 8005180:	627b      	str	r3, [r7, #36]	; 0x24
 8005182:	e004      	b.n	800518e <HAL_RCC_GetSysClockFreq+0x92>
#endif /*RCC_CFGR2_PREDIV1SRC*/
      }
      else
      {
        /* HSI used as PLL clock source : PLLCLK = HSI/2 * PLLMUL */
        pllclk = (uint32_t)((HSI_VALUE >> 1) * pllmul);
 8005184:	697b      	ldr	r3, [r7, #20]
 8005186:	4a0b      	ldr	r2, [pc, #44]	; (80051b4 <HAL_RCC_GetSysClockFreq+0xb8>)
 8005188:	fb02 f303 	mul.w	r3, r2, r3
 800518c:	627b      	str	r3, [r7, #36]	; 0x24
      }
      sysclockfreq = pllclk;
 800518e:	6a7b      	ldr	r3, [r7, #36]	; 0x24
 8005190:	623b      	str	r3, [r7, #32]
      break;
 8005192:	e002      	b.n	800519a <HAL_RCC_GetSysClockFreq+0x9e>
    }
    case RCC_SYSCLKSOURCE_STATUS_HSI:  /* HSI used as system clock source */
    default: /* HSI used as system clock */
    {
      sysclockfreq = HSI_VALUE;
 8005194:	4b06      	ldr	r3, [pc, #24]	; (80051b0 <HAL_RCC_GetSysClockFreq+0xb4>)
 8005196:	623b      	str	r3, [r7, #32]
      break;
 8005198:	bf00      	nop
    }
  }
  return sysclockfreq;
 800519a:	6a3b      	ldr	r3, [r7, #32]
}
 800519c:	4618      	mov	r0, r3
 800519e:	3728      	adds	r7, #40	; 0x28
 80051a0:	46bd      	mov	sp, r7
 80051a2:	bc90      	pop	{r4, r7}
 80051a4:	4770      	bx	lr
 80051a6:	bf00      	nop
 80051a8:	080071fc 	.word	0x080071fc
 80051ac:	40021000 	.word	0x40021000
 80051b0:	007a1200 	.word	0x007a1200
 80051b4:	003d0900 	.word	0x003d0900

080051b8 <HAL_RCC_GetHCLKFreq>:
  * @note   The SystemCoreClock CMSIS variable is used to store System Clock Frequency
  *         and updated within this function
  * @retval HCLK frequency
  */
uint32_t HAL_RCC_GetHCLKFreq(void)
{
 80051b8:	b480      	push	{r7}
 80051ba:	af00      	add	r7, sp, #0
  return SystemCoreClock;
 80051bc:	4b02      	ldr	r3, [pc, #8]	; (80051c8 <HAL_RCC_GetHCLKFreq+0x10>)
 80051be:	681b      	ldr	r3, [r3, #0]
}
 80051c0:	4618      	mov	r0, r3
 80051c2:	46bd      	mov	sp, r7
 80051c4:	bc80      	pop	{r7}
 80051c6:	4770      	bx	lr
 80051c8:	20000010 	.word	0x20000010

080051cc <HAL_RCC_GetPCLK1Freq>:
  * @note   Each time PCLK1 changes, this function must be called to update the
  *         right PCLK1 value. Otherwise, any configuration based on this function will be incorrect.
  * @retval PCLK1 frequency
  */
uint32_t HAL_RCC_GetPCLK1Freq(void)
{
 80051cc:	b580      	push	{r7, lr}
 80051ce:	af00      	add	r7, sp, #0
  /* Get HCLK source and Compute PCLK1 frequency ---------------------------*/
  return (HAL_RCC_GetHCLKFreq() >> APBPrescTable[(RCC->CFGR & RCC_CFGR_PPRE1) >> RCC_CFGR_PPRE1_Pos]);
 80051d0:	f7ff fff2 	bl	80051b8 <HAL_RCC_GetHCLKFreq>
 80051d4:	4602      	mov	r2, r0
 80051d6:	4b05      	ldr	r3, [pc, #20]	; (80051ec <HAL_RCC_GetPCLK1Freq+0x20>)
 80051d8:	685b      	ldr	r3, [r3, #4]
 80051da:	0a1b      	lsrs	r3, r3, #8
 80051dc:	f003 0307 	and.w	r3, r3, #7
 80051e0:	4903      	ldr	r1, [pc, #12]	; (80051f0 <HAL_RCC_GetPCLK1Freq+0x24>)
 80051e2:	5ccb      	ldrb	r3, [r1, r3]
 80051e4:	fa22 f303 	lsr.w	r3, r2, r3
}
 80051e8:	4618      	mov	r0, r3
 80051ea:	bd80      	pop	{r7, pc}
 80051ec:	40021000 	.word	0x40021000
 80051f0:	0800722c 	.word	0x0800722c

080051f4 <HAL_RCC_GetPCLK2Freq>:
  * @note   Each time PCLK2 changes, this function must be called to update the
  *         right PCLK2 value. Otherwise, any configuration based on this function will be incorrect.
  * @retval PCLK2 frequency
  */
uint32_t HAL_RCC_GetPCLK2Freq(void)
{
 80051f4:	b580      	push	{r7, lr}
 80051f6:	af00      	add	r7, sp, #0
  /* Get HCLK source and Compute PCLK2 frequency ---------------------------*/
  return (HAL_RCC_GetHCLKFreq() >> APBPrescTable[(RCC->CFGR & RCC_CFGR_PPRE2) >> RCC_CFGR_PPRE2_Pos]);
 80051f8:	f7ff ffde 	bl	80051b8 <HAL_RCC_GetHCLKFreq>
 80051fc:	4602      	mov	r2, r0
 80051fe:	4b05      	ldr	r3, [pc, #20]	; (8005214 <HAL_RCC_GetPCLK2Freq+0x20>)
 8005200:	685b      	ldr	r3, [r3, #4]
 8005202:	0adb      	lsrs	r3, r3, #11
 8005204:	f003 0307 	and.w	r3, r3, #7
 8005208:	4903      	ldr	r1, [pc, #12]	; (8005218 <HAL_RCC_GetPCLK2Freq+0x24>)
 800520a:	5ccb      	ldrb	r3, [r1, r3]
 800520c:	fa22 f303 	lsr.w	r3, r2, r3
}
 8005210:	4618      	mov	r0, r3
 8005212:	bd80      	pop	{r7, pc}
 8005214:	40021000 	.word	0x40021000
 8005218:	0800722c 	.word	0x0800722c

0800521c <RCC_Delay>:
  * @brief  This function provides delay (in milliseconds) based on CPU cycles method.
  * @param  mdelay: specifies the delay time length, in milliseconds.
  * @retval None
  */
static void RCC_Delay(uint32_t mdelay)
{
 800521c:	b480      	push	{r7}
 800521e:	b085      	sub	sp, #20
 8005220:	af00      	add	r7, sp, #0
 8005222:	6078      	str	r0, [r7, #4]
  __IO uint32_t Delay = mdelay * (SystemCoreClock / 8U / 1000U);
 8005224:	4b0a      	ldr	r3, [pc, #40]	; (8005250 <RCC_Delay+0x34>)
 8005226:	681b      	ldr	r3, [r3, #0]
 8005228:	4a0a      	ldr	r2, [pc, #40]	; (8005254 <RCC_Delay+0x38>)
 800522a:	fba2 2303 	umull	r2, r3, r2, r3
 800522e:	0a5b      	lsrs	r3, r3, #9
 8005230:	687a      	ldr	r2, [r7, #4]
 8005232:	fb02 f303 	mul.w	r3, r2, r3
 8005236:	60fb      	str	r3, [r7, #12]
  do
  {
    __NOP();
 8005238:	bf00      	nop
  }
  while (Delay --);
 800523a:	68fb      	ldr	r3, [r7, #12]
 800523c:	1e5a      	subs	r2, r3, #1
 800523e:	60fa      	str	r2, [r7, #12]
 8005240:	2b00      	cmp	r3, #0
 8005242:	d1f9      	bne.n	8005238 <RCC_Delay+0x1c>
}
 8005244:	bf00      	nop
 8005246:	bf00      	nop
 8005248:	3714      	adds	r7, #20
 800524a:	46bd      	mov	sp, r7
 800524c:	bc80      	pop	{r7}
 800524e:	4770      	bx	lr
 8005250:	20000010 	.word	0x20000010
 8005254:	10624dd3 	.word	0x10624dd3

08005258 <HAL_RCCEx_PeriphCLKConfig>:
  *         manually disable it.
  *
  * @retval HAL status
  */
HAL_StatusTypeDef HAL_RCCEx_PeriphCLKConfig(RCC_PeriphCLKInitTypeDef  *PeriphClkInit)
{
 8005258:	b580      	push	{r7, lr}
 800525a:	b086      	sub	sp, #24
 800525c:	af00      	add	r7, sp, #0
 800525e:	6078      	str	r0, [r7, #4]
  uint32_t tickstart = 0U, temp_reg = 0U;
 8005260:	2300      	movs	r3, #0
 8005262:	613b      	str	r3, [r7, #16]
 8005264:	2300      	movs	r3, #0
 8005266:	60fb      	str	r3, [r7, #12]

  /* Check the parameters */
  assert_param(IS_RCC_PERIPHCLOCK(PeriphClkInit->PeriphClockSelection));

  /*------------------------------- RTC/LCD Configuration ------------------------*/
  if ((((PeriphClkInit->PeriphClockSelection) & RCC_PERIPHCLK_RTC) == RCC_PERIPHCLK_RTC))
 8005268:	687b      	ldr	r3, [r7, #4]
 800526a:	681b      	ldr	r3, [r3, #0]
 800526c:	f003 0301 	and.w	r3, r3, #1
 8005270:	2b00      	cmp	r3, #0
 8005272:	d07d      	beq.n	8005370 <HAL_RCCEx_PeriphCLKConfig+0x118>
  {
    FlagStatus pwrclkchanged = RESET;
 8005274:	2300      	movs	r3, #0
 8005276:	75fb      	strb	r3, [r7, #23]
    assert_param(IS_RCC_RTCCLKSOURCE(PeriphClkInit->RTCClockSelection));

    /* As soon as function is called to change RTC clock source, activation of the
       power domain is done. */
    /* Requires to enable write access to Backup Domain of necessary */
    if (__HAL_RCC_PWR_IS_CLK_DISABLED())
 8005278:	4b4f      	ldr	r3, [pc, #316]	; (80053b8 <HAL_RCCEx_PeriphCLKConfig+0x160>)
 800527a:	69db      	ldr	r3, [r3, #28]
 800527c:	f003 5380 	and.w	r3, r3, #268435456	; 0x10000000
 8005280:	2b00      	cmp	r3, #0
 8005282:	d10d      	bne.n	80052a0 <HAL_RCCEx_PeriphCLKConfig+0x48>
    {
      __HAL_RCC_PWR_CLK_ENABLE();
 8005284:	4b4c      	ldr	r3, [pc, #304]	; (80053b8 <HAL_RCCEx_PeriphCLKConfig+0x160>)
 8005286:	69db      	ldr	r3, [r3, #28]
 8005288:	4a4b      	ldr	r2, [pc, #300]	; (80053b8 <HAL_RCCEx_PeriphCLKConfig+0x160>)
 800528a:	f043 5380 	orr.w	r3, r3, #268435456	; 0x10000000
 800528e:	61d3      	str	r3, [r2, #28]
 8005290:	4b49      	ldr	r3, [pc, #292]	; (80053b8 <HAL_RCCEx_PeriphCLKConfig+0x160>)
 8005292:	69db      	ldr	r3, [r3, #28]
 8005294:	f003 5380 	and.w	r3, r3, #268435456	; 0x10000000
 8005298:	60bb      	str	r3, [r7, #8]
 800529a:	68bb      	ldr	r3, [r7, #8]
      pwrclkchanged = SET;
 800529c:	2301      	movs	r3, #1
 800529e:	75fb      	strb	r3, [r7, #23]
    }

    if (HAL_IS_BIT_CLR(PWR->CR, PWR_CR_DBP))
 80052a0:	4b46      	ldr	r3, [pc, #280]	; (80053bc <HAL_RCCEx_PeriphCLKConfig+0x164>)
 80052a2:	681b      	ldr	r3, [r3, #0]
 80052a4:	f403 7380 	and.w	r3, r3, #256	; 0x100
 80052a8:	2b00      	cmp	r3, #0
 80052aa:	d118      	bne.n	80052de <HAL_RCCEx_PeriphCLKConfig+0x86>
    {
      /* Enable write access to Backup domain */
      SET_BIT(PWR->CR, PWR_CR_DBP);
 80052ac:	4b43      	ldr	r3, [pc, #268]	; (80053bc <HAL_RCCEx_PeriphCLKConfig+0x164>)
 80052ae:	681b      	ldr	r3, [r3, #0]
 80052b0:	4a42      	ldr	r2, [pc, #264]	; (80053bc <HAL_RCCEx_PeriphCLKConfig+0x164>)
 80052b2:	f443 7380 	orr.w	r3, r3, #256	; 0x100
 80052b6:	6013      	str	r3, [r2, #0]

      /* Wait for Backup domain Write protection disable */
      tickstart = HAL_GetTick();
 80052b8:	f7fe fa0c 	bl	80036d4 <HAL_GetTick>
 80052bc:	6138      	str	r0, [r7, #16]

      while (HAL_IS_BIT_CLR(PWR->CR, PWR_CR_DBP))
 80052be:	e008      	b.n	80052d2 <HAL_RCCEx_PeriphCLKConfig+0x7a>
      {
        if ((HAL_GetTick() - tickstart) > RCC_DBP_TIMEOUT_VALUE)
 80052c0:	f7fe fa08 	bl	80036d4 <HAL_GetTick>
 80052c4:	4602      	mov	r2, r0
 80052c6:	693b      	ldr	r3, [r7, #16]
 80052c8:	1ad3      	subs	r3, r2, r3
 80052ca:	2b64      	cmp	r3, #100	; 0x64
 80052cc:	d901      	bls.n	80052d2 <HAL_RCCEx_PeriphCLKConfig+0x7a>
        {
          return HAL_TIMEOUT;
 80052ce:	2303      	movs	r3, #3
 80052d0:	e06d      	b.n	80053ae <HAL_RCCEx_PeriphCLKConfig+0x156>
      while (HAL_IS_BIT_CLR(PWR->CR, PWR_CR_DBP))
 80052d2:	4b3a      	ldr	r3, [pc, #232]	; (80053bc <HAL_RCCEx_PeriphCLKConfig+0x164>)
 80052d4:	681b      	ldr	r3, [r3, #0]
 80052d6:	f403 7380 	and.w	r3, r3, #256	; 0x100
 80052da:	2b00      	cmp	r3, #0
 80052dc:	d0f0      	beq.n	80052c0 <HAL_RCCEx_PeriphCLKConfig+0x68>
        }
      }
    }

    /* Reset the Backup domain only if the RTC Clock source selection is modified from reset value */
    temp_reg = (RCC->BDCR & RCC_BDCR_RTCSEL);
 80052de:	4b36      	ldr	r3, [pc, #216]	; (80053b8 <HAL_RCCEx_PeriphCLKConfig+0x160>)
 80052e0:	6a1b      	ldr	r3, [r3, #32]
 80052e2:	f403 7340 	and.w	r3, r3, #768	; 0x300
 80052e6:	60fb      	str	r3, [r7, #12]
    if ((temp_reg != 0x00000000U) && (temp_reg != (PeriphClkInit->RTCClockSelection & RCC_BDCR_RTCSEL)))
 80052e8:	68fb      	ldr	r3, [r7, #12]
 80052ea:	2b00      	cmp	r3, #0
 80052ec:	d02e      	beq.n	800534c <HAL_RCCEx_PeriphCLKConfig+0xf4>
 80052ee:	687b      	ldr	r3, [r7, #4]
 80052f0:	685b      	ldr	r3, [r3, #4]
 80052f2:	f403 7340 	and.w	r3, r3, #768	; 0x300
 80052f6:	68fa      	ldr	r2, [r7, #12]
 80052f8:	429a      	cmp	r2, r3
 80052fa:	d027      	beq.n	800534c <HAL_RCCEx_PeriphCLKConfig+0xf4>
    {
      /* Store the content of BDCR register before the reset of Backup Domain */
      temp_reg = (RCC->BDCR & ~(RCC_BDCR_RTCSEL));
 80052fc:	4b2e      	ldr	r3, [pc, #184]	; (80053b8 <HAL_RCCEx_PeriphCLKConfig+0x160>)
 80052fe:	6a1b      	ldr	r3, [r3, #32]
 8005300:	f423 7340 	bic.w	r3, r3, #768	; 0x300
 8005304:	60fb      	str	r3, [r7, #12]
      /* RTC Clock selection can be changed only if the Backup Domain is reset */
      __HAL_RCC_BACKUPRESET_FORCE();
 8005306:	4b2e      	ldr	r3, [pc, #184]	; (80053c0 <HAL_RCCEx_PeriphCLKConfig+0x168>)
 8005308:	2201      	movs	r2, #1
 800530a:	601a      	str	r2, [r3, #0]
      __HAL_RCC_BACKUPRESET_RELEASE();
 800530c:	4b2c      	ldr	r3, [pc, #176]	; (80053c0 <HAL_RCCEx_PeriphCLKConfig+0x168>)
 800530e:	2200      	movs	r2, #0
 8005310:	601a      	str	r2, [r3, #0]
      /* Restore the Content of BDCR register */
      RCC->BDCR = temp_reg;
 8005312:	4a29      	ldr	r2, [pc, #164]	; (80053b8 <HAL_RCCEx_PeriphCLKConfig+0x160>)
 8005314:	68fb      	ldr	r3, [r7, #12]
 8005316:	6213      	str	r3, [r2, #32]

      /* Wait for LSERDY if LSE was enabled */
      if (HAL_IS_BIT_SET(temp_reg, RCC_BDCR_LSEON))
 8005318:	68fb      	ldr	r3, [r7, #12]
 800531a:	f003 0301 	and.w	r3, r3, #1
 800531e:	2b00      	cmp	r3, #0
 8005320:	d014      	beq.n	800534c <HAL_RCCEx_PeriphCLKConfig+0xf4>
      {
        /* Get Start Tick */
        tickstart = HAL_GetTick();
 8005322:	f7fe f9d7 	bl	80036d4 <HAL_GetTick>
 8005326:	6138      	str	r0, [r7, #16]

        /* Wait till LSE is ready */
        while (__HAL_RCC_GET_FLAG(RCC_FLAG_LSERDY) == RESET)
 8005328:	e00a      	b.n	8005340 <HAL_RCCEx_PeriphCLKConfig+0xe8>
        {
          if ((HAL_GetTick() - tickstart) > RCC_LSE_TIMEOUT_VALUE)
 800532a:	f7fe f9d3 	bl	80036d4 <HAL_GetTick>
 800532e:	4602      	mov	r2, r0
 8005330:	693b      	ldr	r3, [r7, #16]
 8005332:	1ad3      	subs	r3, r2, r3
 8005334:	f241 3288 	movw	r2, #5000	; 0x1388
 8005338:	4293      	cmp	r3, r2
 800533a:	d901      	bls.n	8005340 <HAL_RCCEx_PeriphCLKConfig+0xe8>
          {
            return HAL_TIMEOUT;
 800533c:	2303      	movs	r3, #3
 800533e:	e036      	b.n	80053ae <HAL_RCCEx_PeriphCLKConfig+0x156>
        while (__HAL_RCC_GET_FLAG(RCC_FLAG_LSERDY) == RESET)
 8005340:	4b1d      	ldr	r3, [pc, #116]	; (80053b8 <HAL_RCCEx_PeriphCLKConfig+0x160>)
 8005342:	6a1b      	ldr	r3, [r3, #32]
 8005344:	f003 0302 	and.w	r3, r3, #2
 8005348:	2b00      	cmp	r3, #0
 800534a:	d0ee      	beq.n	800532a <HAL_RCCEx_PeriphCLKConfig+0xd2>
          }
        }
      }
    }
    __HAL_RCC_RTC_CONFIG(PeriphClkInit->RTCClockSelection);
 800534c:	4b1a      	ldr	r3, [pc, #104]	; (80053b8 <HAL_RCCEx_PeriphCLKConfig+0x160>)
 800534e:	6a1b      	ldr	r3, [r3, #32]
 8005350:	f423 7240 	bic.w	r2, r3, #768	; 0x300
 8005354:	687b      	ldr	r3, [r7, #4]
 8005356:	685b      	ldr	r3, [r3, #4]
 8005358:	4917      	ldr	r1, [pc, #92]	; (80053b8 <HAL_RCCEx_PeriphCLKConfig+0x160>)
 800535a:	4313      	orrs	r3, r2
 800535c:	620b      	str	r3, [r1, #32]

    /* Require to disable power clock if necessary */
    if (pwrclkchanged == SET)
 800535e:	7dfb      	ldrb	r3, [r7, #23]
 8005360:	2b01      	cmp	r3, #1
 8005362:	d105      	bne.n	8005370 <HAL_RCCEx_PeriphCLKConfig+0x118>
    {
      __HAL_RCC_PWR_CLK_DISABLE();
 8005364:	4b14      	ldr	r3, [pc, #80]	; (80053b8 <HAL_RCCEx_PeriphCLKConfig+0x160>)
 8005366:	69db      	ldr	r3, [r3, #28]
 8005368:	4a13      	ldr	r2, [pc, #76]	; (80053b8 <HAL_RCCEx_PeriphCLKConfig+0x160>)
 800536a:	f023 5380 	bic.w	r3, r3, #268435456	; 0x10000000
 800536e:	61d3      	str	r3, [r2, #28]
    }
  }

  /*------------------------------ ADC clock Configuration ------------------*/
  if (((PeriphClkInit->PeriphClockSelection) & RCC_PERIPHCLK_ADC) == RCC_PERIPHCLK_ADC)
 8005370:	687b      	ldr	r3, [r7, #4]
 8005372:	681b      	ldr	r3, [r3, #0]
 8005374:	f003 0302 	and.w	r3, r3, #2
 8005378:	2b00      	cmp	r3, #0
 800537a:	d008      	beq.n	800538e <HAL_RCCEx_PeriphCLKConfig+0x136>
  {
    /* Check the parameters */
    assert_param(IS_RCC_ADCPLLCLK_DIV(PeriphClkInit->AdcClockSelection));

    /* Configure the ADC clock source */
    __HAL_RCC_ADC_CONFIG(PeriphClkInit->AdcClockSelection);
 800537c:	4b0e      	ldr	r3, [pc, #56]	; (80053b8 <HAL_RCCEx_PeriphCLKConfig+0x160>)
 800537e:	685b      	ldr	r3, [r3, #4]
 8005380:	f423 4240 	bic.w	r2, r3, #49152	; 0xc000
 8005384:	687b      	ldr	r3, [r7, #4]
 8005386:	689b      	ldr	r3, [r3, #8]
 8005388:	490b      	ldr	r1, [pc, #44]	; (80053b8 <HAL_RCCEx_PeriphCLKConfig+0x160>)
 800538a:	4313      	orrs	r3, r2
 800538c:	604b      	str	r3, [r1, #4]

#if defined(STM32F102x6) || defined(STM32F102xB) || defined(STM32F103x6)\
 || defined(STM32F103xB) || defined(STM32F103xE) || defined(STM32F103xG)\
 || defined(STM32F105xC) || defined(STM32F107xC)
  /*------------------------------ USB clock Configuration ------------------*/
  if (((PeriphClkInit->PeriphClockSelection) & RCC_PERIPHCLK_USB) == RCC_PERIPHCLK_USB)
 800538e:	687b      	ldr	r3, [r7, #4]
 8005390:	681b      	ldr	r3, [r3, #0]
 8005392:	f003 0310 	and.w	r3, r3, #16
 8005396:	2b00      	cmp	r3, #0
 8005398:	d008      	beq.n	80053ac <HAL_RCCEx_PeriphCLKConfig+0x154>
  {
    /* Check the parameters */
    assert_param(IS_RCC_USBPLLCLK_DIV(PeriphClkInit->UsbClockSelection));

    /* Configure the USB clock source */
    __HAL_RCC_USB_CONFIG(PeriphClkInit->UsbClockSelection);
 800539a:	4b07      	ldr	r3, [pc, #28]	; (80053b8 <HAL_RCCEx_PeriphCLKConfig+0x160>)
 800539c:	685b      	ldr	r3, [r3, #4]
 800539e:	f423 0280 	bic.w	r2, r3, #4194304	; 0x400000
 80053a2:	687b      	ldr	r3, [r7, #4]
 80053a4:	68db      	ldr	r3, [r3, #12]
 80053a6:	4904      	ldr	r1, [pc, #16]	; (80053b8 <HAL_RCCEx_PeriphCLKConfig+0x160>)
 80053a8:	4313      	orrs	r3, r2
 80053aa:	604b      	str	r3, [r1, #4]
  }
#endif /* STM32F102x6 || STM32F102xB || STM32F103x6 || STM32F103xB || STM32F103xE || STM32F103xG || STM32F105xC || STM32F107xC */

  return HAL_OK;
 80053ac:	2300      	movs	r3, #0
}
 80053ae:	4618      	mov	r0, r3
 80053b0:	3718      	adds	r7, #24
 80053b2:	46bd      	mov	sp, r7
 80053b4:	bd80      	pop	{r7, pc}
 80053b6:	bf00      	nop
 80053b8:	40021000 	.word	0x40021000
 80053bc:	40007000 	.word	0x40007000
 80053c0:	42420440 	.word	0x42420440

080053c4 <HAL_RCCEx_GetPeriphCLKFreq>:
  *            @arg @ref RCC_PERIPHCLK_USB  USB peripheral clock
  @endif
  * @retval Frequency in Hz (0: means that no available frequency for the peripheral)
  */
uint32_t HAL_RCCEx_GetPeriphCLKFreq(uint32_t PeriphClk)
{
 80053c4:	b590      	push	{r4, r7, lr}
 80053c6:	b08d      	sub	sp, #52	; 0x34
 80053c8:	af00      	add	r7, sp, #0
 80053ca:	6078      	str	r0, [r7, #4]
  uint32_t prediv1 = 0U, pllclk = 0U, pllmul = 0U;
  uint32_t pll2mul = 0U, pll3mul = 0U, prediv2 = 0U;
#endif /* STM32F105xC || STM32F107xC */
#if defined(STM32F102x6) || defined(STM32F102xB) || defined(STM32F103x6) || \
    defined(STM32F103xB) || defined(STM32F103xE) || defined(STM32F103xG)
  const uint8_t aPLLMULFactorTable[16] = {2, 3, 4, 5, 6, 7, 8, 9, 10, 11, 12, 13, 14, 15, 16, 16};
 80053cc:	4b58      	ldr	r3, [pc, #352]	; (8005530 <HAL_RCCEx_GetPeriphCLKFreq+0x16c>)
 80053ce:	f107 040c 	add.w	r4, r7, #12
 80053d2:	cb0f      	ldmia	r3, {r0, r1, r2, r3}
 80053d4:	e884 000f 	stmia.w	r4, {r0, r1, r2, r3}
  const uint8_t aPredivFactorTable[2] = {1, 2};
 80053d8:	f240 2301 	movw	r3, #513	; 0x201
 80053dc:	813b      	strh	r3, [r7, #8]

  uint32_t prediv1 = 0U, pllclk = 0U, pllmul = 0U;
 80053de:	2300      	movs	r3, #0
 80053e0:	627b      	str	r3, [r7, #36]	; 0x24
 80053e2:	2300      	movs	r3, #0
 80053e4:	62fb      	str	r3, [r7, #44]	; 0x2c
 80053e6:	2300      	movs	r3, #0
 80053e8:	623b      	str	r3, [r7, #32]
#endif /* STM32F102x6 || STM32F102xB || STM32F103x6 || STM32F103xB || STM32F103xE || STM32F103xG */
  uint32_t temp_reg = 0U, frequency = 0U;
 80053ea:	2300      	movs	r3, #0
 80053ec:	61fb      	str	r3, [r7, #28]
 80053ee:	2300      	movs	r3, #0
 80053f0:	62bb      	str	r3, [r7, #40]	; 0x28

  /* Check the parameters */
  assert_param(IS_RCC_PERIPHCLOCK(PeriphClk));

  switch (PeriphClk)
 80053f2:	687b      	ldr	r3, [r7, #4]
 80053f4:	2b10      	cmp	r3, #16
 80053f6:	d00a      	beq.n	800540e <HAL_RCCEx_GetPeriphCLKFreq+0x4a>
 80053f8:	687b      	ldr	r3, [r7, #4]
 80053fa:	2b10      	cmp	r3, #16
 80053fc:	f200 808e 	bhi.w	800551c <HAL_RCCEx_GetPeriphCLKFreq+0x158>
 8005400:	687b      	ldr	r3, [r7, #4]
 8005402:	2b01      	cmp	r3, #1
 8005404:	d049      	beq.n	800549a <HAL_RCCEx_GetPeriphCLKFreq+0xd6>
 8005406:	687b      	ldr	r3, [r7, #4]
 8005408:	2b02      	cmp	r3, #2
 800540a:	d079      	beq.n	8005500 <HAL_RCCEx_GetPeriphCLKFreq+0x13c>
      frequency = HAL_RCC_GetPCLK2Freq() / (((__HAL_RCC_GET_ADC_SOURCE() >> RCC_CFGR_ADCPRE_Pos) + 1) * 2);
      break;
    }
    default:
    {
      break;
 800540c:	e086      	b.n	800551c <HAL_RCCEx_GetPeriphCLKFreq+0x158>
      temp_reg = RCC->CFGR;
 800540e:	4b49      	ldr	r3, [pc, #292]	; (8005534 <HAL_RCCEx_GetPeriphCLKFreq+0x170>)
 8005410:	685b      	ldr	r3, [r3, #4]
 8005412:	61fb      	str	r3, [r7, #28]
      if (HAL_IS_BIT_SET(RCC->CR, RCC_CR_PLLON))
 8005414:	4b47      	ldr	r3, [pc, #284]	; (8005534 <HAL_RCCEx_GetPeriphCLKFreq+0x170>)
 8005416:	681b      	ldr	r3, [r3, #0]
 8005418:	f003 7380 	and.w	r3, r3, #16777216	; 0x1000000
 800541c:	2b00      	cmp	r3, #0
 800541e:	d07f      	beq.n	8005520 <HAL_RCCEx_GetPeriphCLKFreq+0x15c>
        pllmul = aPLLMULFactorTable[(uint32_t)(temp_reg & RCC_CFGR_PLLMULL) >> RCC_CFGR_PLLMULL_Pos];
 8005420:	69fb      	ldr	r3, [r7, #28]
 8005422:	0c9b      	lsrs	r3, r3, #18
 8005424:	f003 030f 	and.w	r3, r3, #15
 8005428:	3330      	adds	r3, #48	; 0x30
 800542a:	443b      	add	r3, r7
 800542c:	f813 3c24 	ldrb.w	r3, [r3, #-36]
 8005430:	623b      	str	r3, [r7, #32]
        if ((temp_reg & RCC_CFGR_PLLSRC) != RCC_PLLSOURCE_HSI_DIV2)
 8005432:	69fb      	ldr	r3, [r7, #28]
 8005434:	f403 3380 	and.w	r3, r3, #65536	; 0x10000
 8005438:	2b00      	cmp	r3, #0
 800543a:	d017      	beq.n	800546c <HAL_RCCEx_GetPeriphCLKFreq+0xa8>
          prediv1 = aPredivFactorTable[(uint32_t)(RCC->CFGR & RCC_CFGR_PLLXTPRE) >> RCC_CFGR_PLLXTPRE_Pos];
 800543c:	4b3d      	ldr	r3, [pc, #244]	; (8005534 <HAL_RCCEx_GetPeriphCLKFreq+0x170>)
 800543e:	685b      	ldr	r3, [r3, #4]
 8005440:	0c5b      	lsrs	r3, r3, #17
 8005442:	f003 0301 	and.w	r3, r3, #1
 8005446:	3330      	adds	r3, #48	; 0x30
 8005448:	443b      	add	r3, r7
 800544a:	f813 3c28 	ldrb.w	r3, [r3, #-40]
 800544e:	627b      	str	r3, [r7, #36]	; 0x24
          if ((temp_reg & RCC_CFGR_PLLSRC) != RCC_PLLSOURCE_HSI_DIV2)
 8005450:	69fb      	ldr	r3, [r7, #28]
 8005452:	f403 3380 	and.w	r3, r3, #65536	; 0x10000
 8005456:	2b00      	cmp	r3, #0
 8005458:	d00d      	beq.n	8005476 <HAL_RCCEx_GetPeriphCLKFreq+0xb2>
            pllclk = (uint32_t)((HSE_VALUE / prediv1) * pllmul);
 800545a:	4a37      	ldr	r2, [pc, #220]	; (8005538 <HAL_RCCEx_GetPeriphCLKFreq+0x174>)
 800545c:	6a7b      	ldr	r3, [r7, #36]	; 0x24
 800545e:	fbb2 f2f3 	udiv	r2, r2, r3
 8005462:	6a3b      	ldr	r3, [r7, #32]
 8005464:	fb02 f303 	mul.w	r3, r2, r3
 8005468:	62fb      	str	r3, [r7, #44]	; 0x2c
 800546a:	e004      	b.n	8005476 <HAL_RCCEx_GetPeriphCLKFreq+0xb2>
          pllclk = (uint32_t)((HSI_VALUE >> 1) * pllmul);
 800546c:	6a3b      	ldr	r3, [r7, #32]
 800546e:	4a33      	ldr	r2, [pc, #204]	; (800553c <HAL_RCCEx_GetPeriphCLKFreq+0x178>)
 8005470:	fb02 f303 	mul.w	r3, r2, r3
 8005474:	62fb      	str	r3, [r7, #44]	; 0x2c
        if (__HAL_RCC_GET_USB_SOURCE() == RCC_USBCLKSOURCE_PLL)
 8005476:	4b2f      	ldr	r3, [pc, #188]	; (8005534 <HAL_RCCEx_GetPeriphCLKFreq+0x170>)
 8005478:	685b      	ldr	r3, [r3, #4]
 800547a:	f403 0380 	and.w	r3, r3, #4194304	; 0x400000
 800547e:	f5b3 0f80 	cmp.w	r3, #4194304	; 0x400000
 8005482:	d102      	bne.n	800548a <HAL_RCCEx_GetPeriphCLKFreq+0xc6>
          frequency = pllclk;
 8005484:	6afb      	ldr	r3, [r7, #44]	; 0x2c
 8005486:	62bb      	str	r3, [r7, #40]	; 0x28
      break;
 8005488:	e04a      	b.n	8005520 <HAL_RCCEx_GetPeriphCLKFreq+0x15c>
          frequency = (pllclk * 2) / 3;
 800548a:	6afb      	ldr	r3, [r7, #44]	; 0x2c
 800548c:	005b      	lsls	r3, r3, #1
 800548e:	4a2c      	ldr	r2, [pc, #176]	; (8005540 <HAL_RCCEx_GetPeriphCLKFreq+0x17c>)
 8005490:	fba2 2303 	umull	r2, r3, r2, r3
 8005494:	085b      	lsrs	r3, r3, #1
 8005496:	62bb      	str	r3, [r7, #40]	; 0x28
      break;
 8005498:	e042      	b.n	8005520 <HAL_RCCEx_GetPeriphCLKFreq+0x15c>
      temp_reg = RCC->BDCR;
 800549a:	4b26      	ldr	r3, [pc, #152]	; (8005534 <HAL_RCCEx_GetPeriphCLKFreq+0x170>)
 800549c:	6a1b      	ldr	r3, [r3, #32]
 800549e:	61fb      	str	r3, [r7, #28]
      if (((temp_reg & RCC_BDCR_RTCSEL) == RCC_RTCCLKSOURCE_LSE) && (HAL_IS_BIT_SET(temp_reg, RCC_BDCR_LSERDY)))
 80054a0:	69fb      	ldr	r3, [r7, #28]
 80054a2:	f403 7340 	and.w	r3, r3, #768	; 0x300
 80054a6:	f5b3 7f80 	cmp.w	r3, #256	; 0x100
 80054aa:	d108      	bne.n	80054be <HAL_RCCEx_GetPeriphCLKFreq+0xfa>
 80054ac:	69fb      	ldr	r3, [r7, #28]
 80054ae:	f003 0302 	and.w	r3, r3, #2
 80054b2:	2b00      	cmp	r3, #0
 80054b4:	d003      	beq.n	80054be <HAL_RCCEx_GetPeriphCLKFreq+0xfa>
        frequency = LSE_VALUE;
 80054b6:	f44f 4300 	mov.w	r3, #32768	; 0x8000
 80054ba:	62bb      	str	r3, [r7, #40]	; 0x28
 80054bc:	e01f      	b.n	80054fe <HAL_RCCEx_GetPeriphCLKFreq+0x13a>
      else if (((temp_reg & RCC_BDCR_RTCSEL) == RCC_RTCCLKSOURCE_LSI) && (HAL_IS_BIT_SET(RCC->CSR, RCC_CSR_LSIRDY)))
 80054be:	69fb      	ldr	r3, [r7, #28]
 80054c0:	f403 7340 	and.w	r3, r3, #768	; 0x300
 80054c4:	f5b3 7f00 	cmp.w	r3, #512	; 0x200
 80054c8:	d109      	bne.n	80054de <HAL_RCCEx_GetPeriphCLKFreq+0x11a>
 80054ca:	4b1a      	ldr	r3, [pc, #104]	; (8005534 <HAL_RCCEx_GetPeriphCLKFreq+0x170>)
 80054cc:	6a5b      	ldr	r3, [r3, #36]	; 0x24
 80054ce:	f003 0302 	and.w	r3, r3, #2
 80054d2:	2b00      	cmp	r3, #0
 80054d4:	d003      	beq.n	80054de <HAL_RCCEx_GetPeriphCLKFreq+0x11a>
        frequency = LSI_VALUE;
 80054d6:	f649 4340 	movw	r3, #40000	; 0x9c40
 80054da:	62bb      	str	r3, [r7, #40]	; 0x28
 80054dc:	e00f      	b.n	80054fe <HAL_RCCEx_GetPeriphCLKFreq+0x13a>
      else if (((temp_reg & RCC_BDCR_RTCSEL) == RCC_RTCCLKSOURCE_HSE_DIV128) && (HAL_IS_BIT_SET(RCC->CR, RCC_CR_HSERDY)))
 80054de:	69fb      	ldr	r3, [r7, #28]
 80054e0:	f403 7340 	and.w	r3, r3, #768	; 0x300
 80054e4:	f5b3 7f40 	cmp.w	r3, #768	; 0x300
 80054e8:	d11c      	bne.n	8005524 <HAL_RCCEx_GetPeriphCLKFreq+0x160>
 80054ea:	4b12      	ldr	r3, [pc, #72]	; (8005534 <HAL_RCCEx_GetPeriphCLKFreq+0x170>)
 80054ec:	681b      	ldr	r3, [r3, #0]
 80054ee:	f403 3300 	and.w	r3, r3, #131072	; 0x20000
 80054f2:	2b00      	cmp	r3, #0
 80054f4:	d016      	beq.n	8005524 <HAL_RCCEx_GetPeriphCLKFreq+0x160>
        frequency = HSE_VALUE / 128U;
 80054f6:	f24f 4324 	movw	r3, #62500	; 0xf424
 80054fa:	62bb      	str	r3, [r7, #40]	; 0x28
      break;
 80054fc:	e012      	b.n	8005524 <HAL_RCCEx_GetPeriphCLKFreq+0x160>
 80054fe:	e011      	b.n	8005524 <HAL_RCCEx_GetPeriphCLKFreq+0x160>
      frequency = HAL_RCC_GetPCLK2Freq() / (((__HAL_RCC_GET_ADC_SOURCE() >> RCC_CFGR_ADCPRE_Pos) + 1) * 2);
 8005500:	f7ff fe78 	bl	80051f4 <HAL_RCC_GetPCLK2Freq>
 8005504:	4602      	mov	r2, r0
 8005506:	4b0b      	ldr	r3, [pc, #44]	; (8005534 <HAL_RCCEx_GetPeriphCLKFreq+0x170>)
 8005508:	685b      	ldr	r3, [r3, #4]
 800550a:	0b9b      	lsrs	r3, r3, #14
 800550c:	f003 0303 	and.w	r3, r3, #3
 8005510:	3301      	adds	r3, #1
 8005512:	005b      	lsls	r3, r3, #1
 8005514:	fbb2 f3f3 	udiv	r3, r2, r3
 8005518:	62bb      	str	r3, [r7, #40]	; 0x28
      break;
 800551a:	e004      	b.n	8005526 <HAL_RCCEx_GetPeriphCLKFreq+0x162>
      break;
 800551c:	bf00      	nop
 800551e:	e002      	b.n	8005526 <HAL_RCCEx_GetPeriphCLKFreq+0x162>
      break;
 8005520:	bf00      	nop
 8005522:	e000      	b.n	8005526 <HAL_RCCEx_GetPeriphCLKFreq+0x162>
      break;
 8005524:	bf00      	nop
    }
  }
  return (frequency);
 8005526:	6abb      	ldr	r3, [r7, #40]	; 0x28
}
 8005528:	4618      	mov	r0, r3
 800552a:	3734      	adds	r7, #52	; 0x34
 800552c:	46bd      	mov	sp, r7
 800552e:	bd90      	pop	{r4, r7, pc}
 8005530:	0800720c 	.word	0x0800720c
 8005534:	40021000 	.word	0x40021000
 8005538:	007a1200 	.word	0x007a1200
 800553c:	003d0900 	.word	0x003d0900
 8005540:	aaaaaaab 	.word	0xaaaaaaab

08005544 <HAL_TIM_Base_Init>:
  *         Ex: call @ref HAL_TIM_Base_DeInit() before HAL_TIM_Base_Init()
  * @param  htim TIM Base handle
  * @retval HAL status
  */
HAL_StatusTypeDef HAL_TIM_Base_Init(TIM_HandleTypeDef *htim)
{
 8005544:	b580      	push	{r7, lr}
 8005546:	b082      	sub	sp, #8
 8005548:	af00      	add	r7, sp, #0
 800554a:	6078      	str	r0, [r7, #4]
  /* Check the TIM handle allocation */
  if (htim == NULL)
 800554c:	687b      	ldr	r3, [r7, #4]
 800554e:	2b00      	cmp	r3, #0
 8005550:	d101      	bne.n	8005556 <HAL_TIM_Base_Init+0x12>
  {
    return HAL_ERROR;
 8005552:	2301      	movs	r3, #1
 8005554:	e041      	b.n	80055da <HAL_TIM_Base_Init+0x96>
  assert_param(IS_TIM_INSTANCE(htim->Instance));
  assert_param(IS_TIM_COUNTER_MODE(htim->Init.CounterMode));
  assert_param(IS_TIM_CLOCKDIVISION_DIV(htim->Init.ClockDivision));
  assert_param(IS_TIM_AUTORELOAD_PRELOAD(htim->Init.AutoReloadPreload));

  if (htim->State == HAL_TIM_STATE_RESET)
 8005556:	687b      	ldr	r3, [r7, #4]
 8005558:	f893 303d 	ldrb.w	r3, [r3, #61]	; 0x3d
 800555c:	b2db      	uxtb	r3, r3
 800555e:	2b00      	cmp	r3, #0
 8005560:	d106      	bne.n	8005570 <HAL_TIM_Base_Init+0x2c>
  {
    /* Allocate lock resource and initialize it */
    htim->Lock = HAL_UNLOCKED;
 8005562:	687b      	ldr	r3, [r7, #4]
 8005564:	2200      	movs	r2, #0
 8005566:	f883 203c 	strb.w	r2, [r3, #60]	; 0x3c
    }
    /* Init the low level hardware : GPIO, CLOCK, NVIC */
    htim->Base_MspInitCallback(htim);
#else
    /* Init the low level hardware : GPIO, CLOCK, NVIC */
    HAL_TIM_Base_MspInit(htim);
 800556a:	6878      	ldr	r0, [r7, #4]
 800556c:	f000 f839 	bl	80055e2 <HAL_TIM_Base_MspInit>
#endif /* USE_HAL_TIM_REGISTER_CALLBACKS */
  }

  /* Set the TIM state */
  htim->State = HAL_TIM_STATE_BUSY;
 8005570:	687b      	ldr	r3, [r7, #4]
 8005572:	2202      	movs	r2, #2
 8005574:	f883 203d 	strb.w	r2, [r3, #61]	; 0x3d

  /* Set the Time Base configuration */
  TIM_Base_SetConfig(htim->Instance, &htim->Init);
 8005578:	687b      	ldr	r3, [r7, #4]
 800557a:	681a      	ldr	r2, [r3, #0]
 800557c:	687b      	ldr	r3, [r7, #4]
 800557e:	3304      	adds	r3, #4
 8005580:	4619      	mov	r1, r3
 8005582:	4610      	mov	r0, r2
 8005584:	f000 fa82 	bl	8005a8c <TIM_Base_SetConfig>

  /* Initialize the DMA burst operation state */
  htim->DMABurstState = HAL_DMA_BURST_STATE_READY;
 8005588:	687b      	ldr	r3, [r7, #4]
 800558a:	2201      	movs	r2, #1
 800558c:	f883 2046 	strb.w	r2, [r3, #70]	; 0x46

  /* Initialize the TIM channels state */
  TIM_CHANNEL_STATE_SET_ALL(htim, HAL_TIM_CHANNEL_STATE_READY);
 8005590:	687b      	ldr	r3, [r7, #4]
 8005592:	2201      	movs	r2, #1
 8005594:	f883 203e 	strb.w	r2, [r3, #62]	; 0x3e
 8005598:	687b      	ldr	r3, [r7, #4]
 800559a:	2201      	movs	r2, #1
 800559c:	f883 203f 	strb.w	r2, [r3, #63]	; 0x3f
 80055a0:	687b      	ldr	r3, [r7, #4]
 80055a2:	2201      	movs	r2, #1
 80055a4:	f883 2040 	strb.w	r2, [r3, #64]	; 0x40
 80055a8:	687b      	ldr	r3, [r7, #4]
 80055aa:	2201      	movs	r2, #1
 80055ac:	f883 2041 	strb.w	r2, [r3, #65]	; 0x41
  TIM_CHANNEL_N_STATE_SET_ALL(htim, HAL_TIM_CHANNEL_STATE_READY);
 80055b0:	687b      	ldr	r3, [r7, #4]
 80055b2:	2201      	movs	r2, #1
 80055b4:	f883 2042 	strb.w	r2, [r3, #66]	; 0x42
 80055b8:	687b      	ldr	r3, [r7, #4]
 80055ba:	2201      	movs	r2, #1
 80055bc:	f883 2043 	strb.w	r2, [r3, #67]	; 0x43
 80055c0:	687b      	ldr	r3, [r7, #4]
 80055c2:	2201      	movs	r2, #1
 80055c4:	f883 2044 	strb.w	r2, [r3, #68]	; 0x44
 80055c8:	687b      	ldr	r3, [r7, #4]
 80055ca:	2201      	movs	r2, #1
 80055cc:	f883 2045 	strb.w	r2, [r3, #69]	; 0x45

  /* Initialize the TIM state*/
  htim->State = HAL_TIM_STATE_READY;
 80055d0:	687b      	ldr	r3, [r7, #4]
 80055d2:	2201      	movs	r2, #1
 80055d4:	f883 203d 	strb.w	r2, [r3, #61]	; 0x3d

  return HAL_OK;
 80055d8:	2300      	movs	r3, #0
}
 80055da:	4618      	mov	r0, r3
 80055dc:	3708      	adds	r7, #8
 80055de:	46bd      	mov	sp, r7
 80055e0:	bd80      	pop	{r7, pc}

080055e2 <HAL_TIM_Base_MspInit>:
  * @brief  Initializes the TIM Base MSP.
  * @param  htim TIM Base handle
  * @retval None
  */
__weak void HAL_TIM_Base_MspInit(TIM_HandleTypeDef *htim)
{
 80055e2:	b480      	push	{r7}
 80055e4:	b083      	sub	sp, #12
 80055e6:	af00      	add	r7, sp, #0
 80055e8:	6078      	str	r0, [r7, #4]
  UNUSED(htim);

  /* NOTE : This function should not be modified, when the callback is needed,
            the HAL_TIM_Base_MspInit could be implemented in the user file
   */
}
 80055ea:	bf00      	nop
 80055ec:	370c      	adds	r7, #12
 80055ee:	46bd      	mov	sp, r7
 80055f0:	bc80      	pop	{r7}
 80055f2:	4770      	bx	lr

080055f4 <HAL_TIM_PWM_Init>:
  *         Ex: call @ref HAL_TIM_PWM_DeInit() before HAL_TIM_PWM_Init()
  * @param  htim TIM PWM handle
  * @retval HAL status
  */
HAL_StatusTypeDef HAL_TIM_PWM_Init(TIM_HandleTypeDef *htim)
{
 80055f4:	b580      	push	{r7, lr}
 80055f6:	b082      	sub	sp, #8
 80055f8:	af00      	add	r7, sp, #0
 80055fa:	6078      	str	r0, [r7, #4]
  /* Check the TIM handle allocation */
  if (htim == NULL)
 80055fc:	687b      	ldr	r3, [r7, #4]
 80055fe:	2b00      	cmp	r3, #0
 8005600:	d101      	bne.n	8005606 <HAL_TIM_PWM_Init+0x12>
  {
    return HAL_ERROR;
 8005602:	2301      	movs	r3, #1
 8005604:	e041      	b.n	800568a <HAL_TIM_PWM_Init+0x96>
  assert_param(IS_TIM_INSTANCE(htim->Instance));
  assert_param(IS_TIM_COUNTER_MODE(htim->Init.CounterMode));
  assert_param(IS_TIM_CLOCKDIVISION_DIV(htim->Init.ClockDivision));
  assert_param(IS_TIM_AUTORELOAD_PRELOAD(htim->Init.AutoReloadPreload));

  if (htim->State == HAL_TIM_STATE_RESET)
 8005606:	687b      	ldr	r3, [r7, #4]
 8005608:	f893 303d 	ldrb.w	r3, [r3, #61]	; 0x3d
 800560c:	b2db      	uxtb	r3, r3
 800560e:	2b00      	cmp	r3, #0
 8005610:	d106      	bne.n	8005620 <HAL_TIM_PWM_Init+0x2c>
  {
    /* Allocate lock resource and initialize it */
    htim->Lock = HAL_UNLOCKED;
 8005612:	687b      	ldr	r3, [r7, #4]
 8005614:	2200      	movs	r2, #0
 8005616:	f883 203c 	strb.w	r2, [r3, #60]	; 0x3c
    }
    /* Init the low level hardware : GPIO, CLOCK, NVIC */
    htim->PWM_MspInitCallback(htim);
#else
    /* Init the low level hardware : GPIO, CLOCK, NVIC and DMA */
    HAL_TIM_PWM_MspInit(htim);
 800561a:	6878      	ldr	r0, [r7, #4]
 800561c:	f000 f839 	bl	8005692 <HAL_TIM_PWM_MspInit>
#endif /* USE_HAL_TIM_REGISTER_CALLBACKS */
  }

  /* Set the TIM state */
  htim->State = HAL_TIM_STATE_BUSY;
 8005620:	687b      	ldr	r3, [r7, #4]
 8005622:	2202      	movs	r2, #2
 8005624:	f883 203d 	strb.w	r2, [r3, #61]	; 0x3d

  /* Init the base time for the PWM */
  TIM_Base_SetConfig(htim->Instance, &htim->Init);
 8005628:	687b      	ldr	r3, [r7, #4]
 800562a:	681a      	ldr	r2, [r3, #0]
 800562c:	687b      	ldr	r3, [r7, #4]
 800562e:	3304      	adds	r3, #4
 8005630:	4619      	mov	r1, r3
 8005632:	4610      	mov	r0, r2
 8005634:	f000 fa2a 	bl	8005a8c <TIM_Base_SetConfig>

  /* Initialize the DMA burst operation state */
  htim->DMABurstState = HAL_DMA_BURST_STATE_READY;
 8005638:	687b      	ldr	r3, [r7, #4]
 800563a:	2201      	movs	r2, #1
 800563c:	f883 2046 	strb.w	r2, [r3, #70]	; 0x46

  /* Initialize the TIM channels state */
  TIM_CHANNEL_STATE_SET_ALL(htim, HAL_TIM_CHANNEL_STATE_READY);
 8005640:	687b      	ldr	r3, [r7, #4]
 8005642:	2201      	movs	r2, #1
 8005644:	f883 203e 	strb.w	r2, [r3, #62]	; 0x3e
 8005648:	687b      	ldr	r3, [r7, #4]
 800564a:	2201      	movs	r2, #1
 800564c:	f883 203f 	strb.w	r2, [r3, #63]	; 0x3f
 8005650:	687b      	ldr	r3, [r7, #4]
 8005652:	2201      	movs	r2, #1
 8005654:	f883 2040 	strb.w	r2, [r3, #64]	; 0x40
 8005658:	687b      	ldr	r3, [r7, #4]
 800565a:	2201      	movs	r2, #1
 800565c:	f883 2041 	strb.w	r2, [r3, #65]	; 0x41
  TIM_CHANNEL_N_STATE_SET_ALL(htim, HAL_TIM_CHANNEL_STATE_READY);
 8005660:	687b      	ldr	r3, [r7, #4]
 8005662:	2201      	movs	r2, #1
 8005664:	f883 2042 	strb.w	r2, [r3, #66]	; 0x42
 8005668:	687b      	ldr	r3, [r7, #4]
 800566a:	2201      	movs	r2, #1
 800566c:	f883 2043 	strb.w	r2, [r3, #67]	; 0x43
 8005670:	687b      	ldr	r3, [r7, #4]
 8005672:	2201      	movs	r2, #1
 8005674:	f883 2044 	strb.w	r2, [r3, #68]	; 0x44
 8005678:	687b      	ldr	r3, [r7, #4]
 800567a:	2201      	movs	r2, #1
 800567c:	f883 2045 	strb.w	r2, [r3, #69]	; 0x45

  /* Initialize the TIM state*/
  htim->State = HAL_TIM_STATE_READY;
 8005680:	687b      	ldr	r3, [r7, #4]
 8005682:	2201      	movs	r2, #1
 8005684:	f883 203d 	strb.w	r2, [r3, #61]	; 0x3d

  return HAL_OK;
 8005688:	2300      	movs	r3, #0
}
 800568a:	4618      	mov	r0, r3
 800568c:	3708      	adds	r7, #8
 800568e:	46bd      	mov	sp, r7
 8005690:	bd80      	pop	{r7, pc}

08005692 <HAL_TIM_PWM_MspInit>:
  * @brief  Initializes the TIM PWM MSP.
  * @param  htim TIM PWM handle
  * @retval None
  */
__weak void HAL_TIM_PWM_MspInit(TIM_HandleTypeDef *htim)
{
 8005692:	b480      	push	{r7}
 8005694:	b083      	sub	sp, #12
 8005696:	af00      	add	r7, sp, #0
 8005698:	6078      	str	r0, [r7, #4]
  UNUSED(htim);

  /* NOTE : This function should not be modified, when the callback is needed,
            the HAL_TIM_PWM_MspInit could be implemented in the user file
   */
}
 800569a:	bf00      	nop
 800569c:	370c      	adds	r7, #12
 800569e:	46bd      	mov	sp, r7
 80056a0:	bc80      	pop	{r7}
 80056a2:	4770      	bx	lr

080056a4 <HAL_TIM_IRQHandler>:
  * @brief  This function handles TIM interrupts requests.
  * @param  htim TIM  handle
  * @retval None
  */
void HAL_TIM_IRQHandler(TIM_HandleTypeDef *htim)
{
 80056a4:	b580      	push	{r7, lr}
 80056a6:	b082      	sub	sp, #8
 80056a8:	af00      	add	r7, sp, #0
 80056aa:	6078      	str	r0, [r7, #4]
  /* Capture compare 1 event */
  if (__HAL_TIM_GET_FLAG(htim, TIM_FLAG_CC1) != RESET)
 80056ac:	687b      	ldr	r3, [r7, #4]
 80056ae:	681b      	ldr	r3, [r3, #0]
 80056b0:	691b      	ldr	r3, [r3, #16]
 80056b2:	f003 0302 	and.w	r3, r3, #2
 80056b6:	2b02      	cmp	r3, #2
 80056b8:	d122      	bne.n	8005700 <HAL_TIM_IRQHandler+0x5c>
  {
    if (__HAL_TIM_GET_IT_SOURCE(htim, TIM_IT_CC1) != RESET)
 80056ba:	687b      	ldr	r3, [r7, #4]
 80056bc:	681b      	ldr	r3, [r3, #0]
 80056be:	68db      	ldr	r3, [r3, #12]
 80056c0:	f003 0302 	and.w	r3, r3, #2
 80056c4:	2b02      	cmp	r3, #2
 80056c6:	d11b      	bne.n	8005700 <HAL_TIM_IRQHandler+0x5c>
    {
      {
        __HAL_TIM_CLEAR_IT(htim, TIM_IT_CC1);
 80056c8:	687b      	ldr	r3, [r7, #4]
 80056ca:	681b      	ldr	r3, [r3, #0]
 80056cc:	f06f 0202 	mvn.w	r2, #2
 80056d0:	611a      	str	r2, [r3, #16]
        htim->Channel = HAL_TIM_ACTIVE_CHANNEL_1;
 80056d2:	687b      	ldr	r3, [r7, #4]
 80056d4:	2201      	movs	r2, #1
 80056d6:	771a      	strb	r2, [r3, #28]

        /* Input capture event */
        if ((htim->Instance->CCMR1 & TIM_CCMR1_CC1S) != 0x00U)
 80056d8:	687b      	ldr	r3, [r7, #4]
 80056da:	681b      	ldr	r3, [r3, #0]
 80056dc:	699b      	ldr	r3, [r3, #24]
 80056de:	f003 0303 	and.w	r3, r3, #3
 80056e2:	2b00      	cmp	r3, #0
 80056e4:	d003      	beq.n	80056ee <HAL_TIM_IRQHandler+0x4a>
        {
#if (USE_HAL_TIM_REGISTER_CALLBACKS == 1)
          htim->IC_CaptureCallback(htim);
#else
          HAL_TIM_IC_CaptureCallback(htim);
 80056e6:	6878      	ldr	r0, [r7, #4]
 80056e8:	f000 f9b4 	bl	8005a54 <HAL_TIM_IC_CaptureCallback>
 80056ec:	e005      	b.n	80056fa <HAL_TIM_IRQHandler+0x56>
        {
#if (USE_HAL_TIM_REGISTER_CALLBACKS == 1)
          htim->OC_DelayElapsedCallback(htim);
          htim->PWM_PulseFinishedCallback(htim);
#else
          HAL_TIM_OC_DelayElapsedCallback(htim);
 80056ee:	6878      	ldr	r0, [r7, #4]
 80056f0:	f000 f9a7 	bl	8005a42 <HAL_TIM_OC_DelayElapsedCallback>
          HAL_TIM_PWM_PulseFinishedCallback(htim);
 80056f4:	6878      	ldr	r0, [r7, #4]
 80056f6:	f000 f9b6 	bl	8005a66 <HAL_TIM_PWM_PulseFinishedCallback>
#endif /* USE_HAL_TIM_REGISTER_CALLBACKS */
        }
        htim->Channel = HAL_TIM_ACTIVE_CHANNEL_CLEARED;
 80056fa:	687b      	ldr	r3, [r7, #4]
 80056fc:	2200      	movs	r2, #0
 80056fe:	771a      	strb	r2, [r3, #28]
      }
    }
  }
  /* Capture compare 2 event */
  if (__HAL_TIM_GET_FLAG(htim, TIM_FLAG_CC2) != RESET)
 8005700:	687b      	ldr	r3, [r7, #4]
 8005702:	681b      	ldr	r3, [r3, #0]
 8005704:	691b      	ldr	r3, [r3, #16]
 8005706:	f003 0304 	and.w	r3, r3, #4
 800570a:	2b04      	cmp	r3, #4
 800570c:	d122      	bne.n	8005754 <HAL_TIM_IRQHandler+0xb0>
  {
    if (__HAL_TIM_GET_IT_SOURCE(htim, TIM_IT_CC2) != RESET)
 800570e:	687b      	ldr	r3, [r7, #4]
 8005710:	681b      	ldr	r3, [r3, #0]
 8005712:	68db      	ldr	r3, [r3, #12]
 8005714:	f003 0304 	and.w	r3, r3, #4
 8005718:	2b04      	cmp	r3, #4
 800571a:	d11b      	bne.n	8005754 <HAL_TIM_IRQHandler+0xb0>
    {
      __HAL_TIM_CLEAR_IT(htim, TIM_IT_CC2);
 800571c:	687b      	ldr	r3, [r7, #4]
 800571e:	681b      	ldr	r3, [r3, #0]
 8005720:	f06f 0204 	mvn.w	r2, #4
 8005724:	611a      	str	r2, [r3, #16]
      htim->Channel = HAL_TIM_ACTIVE_CHANNEL_2;
 8005726:	687b      	ldr	r3, [r7, #4]
 8005728:	2202      	movs	r2, #2
 800572a:	771a      	strb	r2, [r3, #28]
      /* Input capture event */
      if ((htim->Instance->CCMR1 & TIM_CCMR1_CC2S) != 0x00U)
 800572c:	687b      	ldr	r3, [r7, #4]
 800572e:	681b      	ldr	r3, [r3, #0]
 8005730:	699b      	ldr	r3, [r3, #24]
 8005732:	f403 7340 	and.w	r3, r3, #768	; 0x300
 8005736:	2b00      	cmp	r3, #0
 8005738:	d003      	beq.n	8005742 <HAL_TIM_IRQHandler+0x9e>
      {
#if (USE_HAL_TIM_REGISTER_CALLBACKS == 1)
        htim->IC_CaptureCallback(htim);
#else
        HAL_TIM_IC_CaptureCallback(htim);
 800573a:	6878      	ldr	r0, [r7, #4]
 800573c:	f000 f98a 	bl	8005a54 <HAL_TIM_IC_CaptureCallback>
 8005740:	e005      	b.n	800574e <HAL_TIM_IRQHandler+0xaa>
      {
#if (USE_HAL_TIM_REGISTER_CALLBACKS == 1)
        htim->OC_DelayElapsedCallback(htim);
        htim->PWM_PulseFinishedCallback(htim);
#else
        HAL_TIM_OC_DelayElapsedCallback(htim);
 8005742:	6878      	ldr	r0, [r7, #4]
 8005744:	f000 f97d 	bl	8005a42 <HAL_TIM_OC_DelayElapsedCallback>
        HAL_TIM_PWM_PulseFinishedCallback(htim);
 8005748:	6878      	ldr	r0, [r7, #4]
 800574a:	f000 f98c 	bl	8005a66 <HAL_TIM_PWM_PulseFinishedCallback>
#endif /* USE_HAL_TIM_REGISTER_CALLBACKS */
      }
      htim->Channel = HAL_TIM_ACTIVE_CHANNEL_CLEARED;
 800574e:	687b      	ldr	r3, [r7, #4]
 8005750:	2200      	movs	r2, #0
 8005752:	771a      	strb	r2, [r3, #28]
    }
  }
  /* Capture compare 3 event */
  if (__HAL_TIM_GET_FLAG(htim, TIM_FLAG_CC3) != RESET)
 8005754:	687b      	ldr	r3, [r7, #4]
 8005756:	681b      	ldr	r3, [r3, #0]
 8005758:	691b      	ldr	r3, [r3, #16]
 800575a:	f003 0308 	and.w	r3, r3, #8
 800575e:	2b08      	cmp	r3, #8
 8005760:	d122      	bne.n	80057a8 <HAL_TIM_IRQHandler+0x104>
  {
    if (__HAL_TIM_GET_IT_SOURCE(htim, TIM_IT_CC3) != RESET)
 8005762:	687b      	ldr	r3, [r7, #4]
 8005764:	681b      	ldr	r3, [r3, #0]
 8005766:	68db      	ldr	r3, [r3, #12]
 8005768:	f003 0308 	and.w	r3, r3, #8
 800576c:	2b08      	cmp	r3, #8
 800576e:	d11b      	bne.n	80057a8 <HAL_TIM_IRQHandler+0x104>
    {
      __HAL_TIM_CLEAR_IT(htim, TIM_IT_CC3);
 8005770:	687b      	ldr	r3, [r7, #4]
 8005772:	681b      	ldr	r3, [r3, #0]
 8005774:	f06f 0208 	mvn.w	r2, #8
 8005778:	611a      	str	r2, [r3, #16]
      htim->Channel = HAL_TIM_ACTIVE_CHANNEL_3;
 800577a:	687b      	ldr	r3, [r7, #4]
 800577c:	2204      	movs	r2, #4
 800577e:	771a      	strb	r2, [r3, #28]
      /* Input capture event */
      if ((htim->Instance->CCMR2 & TIM_CCMR2_CC3S) != 0x00U)
 8005780:	687b      	ldr	r3, [r7, #4]
 8005782:	681b      	ldr	r3, [r3, #0]
 8005784:	69db      	ldr	r3, [r3, #28]
 8005786:	f003 0303 	and.w	r3, r3, #3
 800578a:	2b00      	cmp	r3, #0
 800578c:	d003      	beq.n	8005796 <HAL_TIM_IRQHandler+0xf2>
      {
#if (USE_HAL_TIM_REGISTER_CALLBACKS == 1)
        htim->IC_CaptureCallback(htim);
#else
        HAL_TIM_IC_CaptureCallback(htim);
 800578e:	6878      	ldr	r0, [r7, #4]
 8005790:	f000 f960 	bl	8005a54 <HAL_TIM_IC_CaptureCallback>
 8005794:	e005      	b.n	80057a2 <HAL_TIM_IRQHandler+0xfe>
      {
#if (USE_HAL_TIM_REGISTER_CALLBACKS == 1)
        htim->OC_DelayElapsedCallback(htim);
        htim->PWM_PulseFinishedCallback(htim);
#else
        HAL_TIM_OC_DelayElapsedCallback(htim);
 8005796:	6878      	ldr	r0, [r7, #4]
 8005798:	f000 f953 	bl	8005a42 <HAL_TIM_OC_DelayElapsedCallback>
        HAL_TIM_PWM_PulseFinishedCallback(htim);
 800579c:	6878      	ldr	r0, [r7, #4]
 800579e:	f000 f962 	bl	8005a66 <HAL_TIM_PWM_PulseFinishedCallback>
#endif /* USE_HAL_TIM_REGISTER_CALLBACKS */
      }
      htim->Channel = HAL_TIM_ACTIVE_CHANNEL_CLEARED;
 80057a2:	687b      	ldr	r3, [r7, #4]
 80057a4:	2200      	movs	r2, #0
 80057a6:	771a      	strb	r2, [r3, #28]
    }
  }
  /* Capture compare 4 event */
  if (__HAL_TIM_GET_FLAG(htim, TIM_FLAG_CC4) != RESET)
 80057a8:	687b      	ldr	r3, [r7, #4]
 80057aa:	681b      	ldr	r3, [r3, #0]
 80057ac:	691b      	ldr	r3, [r3, #16]
 80057ae:	f003 0310 	and.w	r3, r3, #16
 80057b2:	2b10      	cmp	r3, #16
 80057b4:	d122      	bne.n	80057fc <HAL_TIM_IRQHandler+0x158>
  {
    if (__HAL_TIM_GET_IT_SOURCE(htim, TIM_IT_CC4) != RESET)
 80057b6:	687b      	ldr	r3, [r7, #4]
 80057b8:	681b      	ldr	r3, [r3, #0]
 80057ba:	68db      	ldr	r3, [r3, #12]
 80057bc:	f003 0310 	and.w	r3, r3, #16
 80057c0:	2b10      	cmp	r3, #16
 80057c2:	d11b      	bne.n	80057fc <HAL_TIM_IRQHandler+0x158>
    {
      __HAL_TIM_CLEAR_IT(htim, TIM_IT_CC4);
 80057c4:	687b      	ldr	r3, [r7, #4]
 80057c6:	681b      	ldr	r3, [r3, #0]
 80057c8:	f06f 0210 	mvn.w	r2, #16
 80057cc:	611a      	str	r2, [r3, #16]
      htim->Channel = HAL_TIM_ACTIVE_CHANNEL_4;
 80057ce:	687b      	ldr	r3, [r7, #4]
 80057d0:	2208      	movs	r2, #8
 80057d2:	771a      	strb	r2, [r3, #28]
      /* Input capture event */
      if ((htim->Instance->CCMR2 & TIM_CCMR2_CC4S) != 0x00U)
 80057d4:	687b      	ldr	r3, [r7, #4]
 80057d6:	681b      	ldr	r3, [r3, #0]
 80057d8:	69db      	ldr	r3, [r3, #28]
 80057da:	f403 7340 	and.w	r3, r3, #768	; 0x300
 80057de:	2b00      	cmp	r3, #0
 80057e0:	d003      	beq.n	80057ea <HAL_TIM_IRQHandler+0x146>
      {
#if (USE_HAL_TIM_REGISTER_CALLBACKS == 1)
        htim->IC_CaptureCallback(htim);
#else
        HAL_TIM_IC_CaptureCallback(htim);
 80057e2:	6878      	ldr	r0, [r7, #4]
 80057e4:	f000 f936 	bl	8005a54 <HAL_TIM_IC_CaptureCallback>
 80057e8:	e005      	b.n	80057f6 <HAL_TIM_IRQHandler+0x152>
      {
#if (USE_HAL_TIM_REGISTER_CALLBACKS == 1)
        htim->OC_DelayElapsedCallback(htim);
        htim->PWM_PulseFinishedCallback(htim);
#else
        HAL_TIM_OC_DelayElapsedCallback(htim);
 80057ea:	6878      	ldr	r0, [r7, #4]
 80057ec:	f000 f929 	bl	8005a42 <HAL_TIM_OC_DelayElapsedCallback>
        HAL_TIM_PWM_PulseFinishedCallback(htim);
 80057f0:	6878      	ldr	r0, [r7, #4]
 80057f2:	f000 f938 	bl	8005a66 <HAL_TIM_PWM_PulseFinishedCallback>
#endif /* USE_HAL_TIM_REGISTER_CALLBACKS */
      }
      htim->Channel = HAL_TIM_ACTIVE_CHANNEL_CLEARED;
 80057f6:	687b      	ldr	r3, [r7, #4]
 80057f8:	2200      	movs	r2, #0
 80057fa:	771a      	strb	r2, [r3, #28]
    }
  }
  /* TIM Update event */
  if (__HAL_TIM_GET_FLAG(htim, TIM_FLAG_UPDATE) != RESET)
 80057fc:	687b      	ldr	r3, [r7, #4]
 80057fe:	681b      	ldr	r3, [r3, #0]
 8005800:	691b      	ldr	r3, [r3, #16]
 8005802:	f003 0301 	and.w	r3, r3, #1
 8005806:	2b01      	cmp	r3, #1
 8005808:	d10e      	bne.n	8005828 <HAL_TIM_IRQHandler+0x184>
  {
    if (__HAL_TIM_GET_IT_SOURCE(htim, TIM_IT_UPDATE) != RESET)
 800580a:	687b      	ldr	r3, [r7, #4]
 800580c:	681b      	ldr	r3, [r3, #0]
 800580e:	68db      	ldr	r3, [r3, #12]
 8005810:	f003 0301 	and.w	r3, r3, #1
 8005814:	2b01      	cmp	r3, #1
 8005816:	d107      	bne.n	8005828 <HAL_TIM_IRQHandler+0x184>
    {
      __HAL_TIM_CLEAR_IT(htim, TIM_IT_UPDATE);
 8005818:	687b      	ldr	r3, [r7, #4]
 800581a:	681b      	ldr	r3, [r3, #0]
 800581c:	f06f 0201 	mvn.w	r2, #1
 8005820:	611a      	str	r2, [r3, #16]
#if (USE_HAL_TIM_REGISTER_CALLBACKS == 1)
      htim->PeriodElapsedCallback(htim);
#else
      HAL_TIM_PeriodElapsedCallback(htim);
 8005822:	6878      	ldr	r0, [r7, #4]
 8005824:	f000 f904 	bl	8005a30 <HAL_TIM_PeriodElapsedCallback>
#endif /* USE_HAL_TIM_REGISTER_CALLBACKS */
    }
  }
  /* TIM Break input event */
  if (__HAL_TIM_GET_FLAG(htim, TIM_FLAG_BREAK) != RESET)
 8005828:	687b      	ldr	r3, [r7, #4]
 800582a:	681b      	ldr	r3, [r3, #0]
 800582c:	691b      	ldr	r3, [r3, #16]
 800582e:	f003 0380 	and.w	r3, r3, #128	; 0x80
 8005832:	2b80      	cmp	r3, #128	; 0x80
 8005834:	d10e      	bne.n	8005854 <HAL_TIM_IRQHandler+0x1b0>
  {
    if (__HAL_TIM_GET_IT_SOURCE(htim, TIM_IT_BREAK) != RESET)
 8005836:	687b      	ldr	r3, [r7, #4]
 8005838:	681b      	ldr	r3, [r3, #0]
 800583a:	68db      	ldr	r3, [r3, #12]
 800583c:	f003 0380 	and.w	r3, r3, #128	; 0x80
 8005840:	2b80      	cmp	r3, #128	; 0x80
 8005842:	d107      	bne.n	8005854 <HAL_TIM_IRQHandler+0x1b0>
    {
      __HAL_TIM_CLEAR_IT(htim, TIM_IT_BREAK);
 8005844:	687b      	ldr	r3, [r7, #4]
 8005846:	681b      	ldr	r3, [r3, #0]
 8005848:	f06f 0280 	mvn.w	r2, #128	; 0x80
 800584c:	611a      	str	r2, [r3, #16]
#if (USE_HAL_TIM_REGISTER_CALLBACKS == 1)
      htim->BreakCallback(htim);
#else
      HAL_TIMEx_BreakCallback(htim);
 800584e:	6878      	ldr	r0, [r7, #4]
 8005850:	f000 fb0f 	bl	8005e72 <HAL_TIMEx_BreakCallback>
#endif /* USE_HAL_TIM_REGISTER_CALLBACKS */
    }
  }
  /* TIM Trigger detection event */
  if (__HAL_TIM_GET_FLAG(htim, TIM_FLAG_TRIGGER) != RESET)
 8005854:	687b      	ldr	r3, [r7, #4]
 8005856:	681b      	ldr	r3, [r3, #0]
 8005858:	691b      	ldr	r3, [r3, #16]
 800585a:	f003 0340 	and.w	r3, r3, #64	; 0x40
 800585e:	2b40      	cmp	r3, #64	; 0x40
 8005860:	d10e      	bne.n	8005880 <HAL_TIM_IRQHandler+0x1dc>
  {
    if (__HAL_TIM_GET_IT_SOURCE(htim, TIM_IT_TRIGGER) != RESET)
 8005862:	687b      	ldr	r3, [r7, #4]
 8005864:	681b      	ldr	r3, [r3, #0]
 8005866:	68db      	ldr	r3, [r3, #12]
 8005868:	f003 0340 	and.w	r3, r3, #64	; 0x40
 800586c:	2b40      	cmp	r3, #64	; 0x40
 800586e:	d107      	bne.n	8005880 <HAL_TIM_IRQHandler+0x1dc>
    {
      __HAL_TIM_CLEAR_IT(htim, TIM_IT_TRIGGER);
 8005870:	687b      	ldr	r3, [r7, #4]
 8005872:	681b      	ldr	r3, [r3, #0]
 8005874:	f06f 0240 	mvn.w	r2, #64	; 0x40
 8005878:	611a      	str	r2, [r3, #16]
#if (USE_HAL_TIM_REGISTER_CALLBACKS == 1)
      htim->TriggerCallback(htim);
#else
      HAL_TIM_TriggerCallback(htim);
 800587a:	6878      	ldr	r0, [r7, #4]
 800587c:	f000 f8fc 	bl	8005a78 <HAL_TIM_TriggerCallback>
#endif /* USE_HAL_TIM_REGISTER_CALLBACKS */
    }
  }
  /* TIM commutation event */
  if (__HAL_TIM_GET_FLAG(htim, TIM_FLAG_COM) != RESET)
 8005880:	687b      	ldr	r3, [r7, #4]
 8005882:	681b      	ldr	r3, [r3, #0]
 8005884:	691b      	ldr	r3, [r3, #16]
 8005886:	f003 0320 	and.w	r3, r3, #32
 800588a:	2b20      	cmp	r3, #32
 800588c:	d10e      	bne.n	80058ac <HAL_TIM_IRQHandler+0x208>
  {
    if (__HAL_TIM_GET_IT_SOURCE(htim, TIM_IT_COM) != RESET)
 800588e:	687b      	ldr	r3, [r7, #4]
 8005890:	681b      	ldr	r3, [r3, #0]
 8005892:	68db      	ldr	r3, [r3, #12]
 8005894:	f003 0320 	and.w	r3, r3, #32
 8005898:	2b20      	cmp	r3, #32
 800589a:	d107      	bne.n	80058ac <HAL_TIM_IRQHandler+0x208>
    {
      __HAL_TIM_CLEAR_IT(htim, TIM_FLAG_COM);
 800589c:	687b      	ldr	r3, [r7, #4]
 800589e:	681b      	ldr	r3, [r3, #0]
 80058a0:	f06f 0220 	mvn.w	r2, #32
 80058a4:	611a      	str	r2, [r3, #16]
#if (USE_HAL_TIM_REGISTER_CALLBACKS == 1)
      htim->CommutationCallback(htim);
#else
      HAL_TIMEx_CommutCallback(htim);
 80058a6:	6878      	ldr	r0, [r7, #4]
 80058a8:	f000 fada 	bl	8005e60 <HAL_TIMEx_CommutCallback>
#endif /* USE_HAL_TIM_REGISTER_CALLBACKS */
    }
  }
}
 80058ac:	bf00      	nop
 80058ae:	3708      	adds	r7, #8
 80058b0:	46bd      	mov	sp, r7
 80058b2:	bd80      	pop	{r7, pc}

080058b4 <HAL_TIM_PWM_ConfigChannel>:
  * @retval HAL status
  */
HAL_StatusTypeDef HAL_TIM_PWM_ConfigChannel(TIM_HandleTypeDef *htim,
                                            TIM_OC_InitTypeDef *sConfig,
                                            uint32_t Channel)
{
 80058b4:	b580      	push	{r7, lr}
 80058b6:	b084      	sub	sp, #16
 80058b8:	af00      	add	r7, sp, #0
 80058ba:	60f8      	str	r0, [r7, #12]
 80058bc:	60b9      	str	r1, [r7, #8]
 80058be:	607a      	str	r2, [r7, #4]
  assert_param(IS_TIM_PWM_MODE(sConfig->OCMode));
  assert_param(IS_TIM_OC_POLARITY(sConfig->OCPolarity));
  assert_param(IS_TIM_FAST_STATE(sConfig->OCFastMode));

  /* Process Locked */
  __HAL_LOCK(htim);
 80058c0:	68fb      	ldr	r3, [r7, #12]
 80058c2:	f893 303c 	ldrb.w	r3, [r3, #60]	; 0x3c
 80058c6:	2b01      	cmp	r3, #1
 80058c8:	d101      	bne.n	80058ce <HAL_TIM_PWM_ConfigChannel+0x1a>
 80058ca:	2302      	movs	r3, #2
 80058cc:	e0ac      	b.n	8005a28 <HAL_TIM_PWM_ConfigChannel+0x174>
 80058ce:	68fb      	ldr	r3, [r7, #12]
 80058d0:	2201      	movs	r2, #1
 80058d2:	f883 203c 	strb.w	r2, [r3, #60]	; 0x3c

  switch (Channel)
 80058d6:	687b      	ldr	r3, [r7, #4]
 80058d8:	2b0c      	cmp	r3, #12
 80058da:	f200 809f 	bhi.w	8005a1c <HAL_TIM_PWM_ConfigChannel+0x168>
 80058de:	a201      	add	r2, pc, #4	; (adr r2, 80058e4 <HAL_TIM_PWM_ConfigChannel+0x30>)
 80058e0:	f852 f023 	ldr.w	pc, [r2, r3, lsl #2]
 80058e4:	08005919 	.word	0x08005919
 80058e8:	08005a1d 	.word	0x08005a1d
 80058ec:	08005a1d 	.word	0x08005a1d
 80058f0:	08005a1d 	.word	0x08005a1d
 80058f4:	08005959 	.word	0x08005959
 80058f8:	08005a1d 	.word	0x08005a1d
 80058fc:	08005a1d 	.word	0x08005a1d
 8005900:	08005a1d 	.word	0x08005a1d
 8005904:	0800599b 	.word	0x0800599b
 8005908:	08005a1d 	.word	0x08005a1d
 800590c:	08005a1d 	.word	0x08005a1d
 8005910:	08005a1d 	.word	0x08005a1d
 8005914:	080059db 	.word	0x080059db
    {
      /* Check the parameters */
      assert_param(IS_TIM_CC1_INSTANCE(htim->Instance));

      /* Configure the Channel 1 in PWM mode */
      TIM_OC1_SetConfig(htim->Instance, sConfig);
 8005918:	68fb      	ldr	r3, [r7, #12]
 800591a:	681b      	ldr	r3, [r3, #0]
 800591c:	68b9      	ldr	r1, [r7, #8]
 800591e:	4618      	mov	r0, r3
 8005920:	f000 f916 	bl	8005b50 <TIM_OC1_SetConfig>

      /* Set the Preload enable bit for channel1 */
      htim->Instance->CCMR1 |= TIM_CCMR1_OC1PE;
 8005924:	68fb      	ldr	r3, [r7, #12]
 8005926:	681b      	ldr	r3, [r3, #0]
 8005928:	699a      	ldr	r2, [r3, #24]
 800592a:	68fb      	ldr	r3, [r7, #12]
 800592c:	681b      	ldr	r3, [r3, #0]
 800592e:	f042 0208 	orr.w	r2, r2, #8
 8005932:	619a      	str	r2, [r3, #24]

      /* Configure the Output Fast mode */
      htim->Instance->CCMR1 &= ~TIM_CCMR1_OC1FE;
 8005934:	68fb      	ldr	r3, [r7, #12]
 8005936:	681b      	ldr	r3, [r3, #0]
 8005938:	699a      	ldr	r2, [r3, #24]
 800593a:	68fb      	ldr	r3, [r7, #12]
 800593c:	681b      	ldr	r3, [r3, #0]
 800593e:	f022 0204 	bic.w	r2, r2, #4
 8005942:	619a      	str	r2, [r3, #24]
      htim->Instance->CCMR1 |= sConfig->OCFastMode;
 8005944:	68fb      	ldr	r3, [r7, #12]
 8005946:	681b      	ldr	r3, [r3, #0]
 8005948:	6999      	ldr	r1, [r3, #24]
 800594a:	68bb      	ldr	r3, [r7, #8]
 800594c:	691a      	ldr	r2, [r3, #16]
 800594e:	68fb      	ldr	r3, [r7, #12]
 8005950:	681b      	ldr	r3, [r3, #0]
 8005952:	430a      	orrs	r2, r1
 8005954:	619a      	str	r2, [r3, #24]
      break;
 8005956:	e062      	b.n	8005a1e <HAL_TIM_PWM_ConfigChannel+0x16a>
    {
      /* Check the parameters */
      assert_param(IS_TIM_CC2_INSTANCE(htim->Instance));

      /* Configure the Channel 2 in PWM mode */
      TIM_OC2_SetConfig(htim->Instance, sConfig);
 8005958:	68fb      	ldr	r3, [r7, #12]
 800595a:	681b      	ldr	r3, [r3, #0]
 800595c:	68b9      	ldr	r1, [r7, #8]
 800595e:	4618      	mov	r0, r3
 8005960:	f000 f95c 	bl	8005c1c <TIM_OC2_SetConfig>

      /* Set the Preload enable bit for channel2 */
      htim->Instance->CCMR1 |= TIM_CCMR1_OC2PE;
 8005964:	68fb      	ldr	r3, [r7, #12]
 8005966:	681b      	ldr	r3, [r3, #0]
 8005968:	699a      	ldr	r2, [r3, #24]
 800596a:	68fb      	ldr	r3, [r7, #12]
 800596c:	681b      	ldr	r3, [r3, #0]
 800596e:	f442 6200 	orr.w	r2, r2, #2048	; 0x800
 8005972:	619a      	str	r2, [r3, #24]

      /* Configure the Output Fast mode */
      htim->Instance->CCMR1 &= ~TIM_CCMR1_OC2FE;
 8005974:	68fb      	ldr	r3, [r7, #12]
 8005976:	681b      	ldr	r3, [r3, #0]
 8005978:	699a      	ldr	r2, [r3, #24]
 800597a:	68fb      	ldr	r3, [r7, #12]
 800597c:	681b      	ldr	r3, [r3, #0]
 800597e:	f422 6280 	bic.w	r2, r2, #1024	; 0x400
 8005982:	619a      	str	r2, [r3, #24]
      htim->Instance->CCMR1 |= sConfig->OCFastMode << 8U;
 8005984:	68fb      	ldr	r3, [r7, #12]
 8005986:	681b      	ldr	r3, [r3, #0]
 8005988:	6999      	ldr	r1, [r3, #24]
 800598a:	68bb      	ldr	r3, [r7, #8]
 800598c:	691b      	ldr	r3, [r3, #16]
 800598e:	021a      	lsls	r2, r3, #8
 8005990:	68fb      	ldr	r3, [r7, #12]
 8005992:	681b      	ldr	r3, [r3, #0]
 8005994:	430a      	orrs	r2, r1
 8005996:	619a      	str	r2, [r3, #24]
      break;
 8005998:	e041      	b.n	8005a1e <HAL_TIM_PWM_ConfigChannel+0x16a>
    {
      /* Check the parameters */
      assert_param(IS_TIM_CC3_INSTANCE(htim->Instance));

      /* Configure the Channel 3 in PWM mode */
      TIM_OC3_SetConfig(htim->Instance, sConfig);
 800599a:	68fb      	ldr	r3, [r7, #12]
 800599c:	681b      	ldr	r3, [r3, #0]
 800599e:	68b9      	ldr	r1, [r7, #8]
 80059a0:	4618      	mov	r0, r3
 80059a2:	f000 f9a5 	bl	8005cf0 <TIM_OC3_SetConfig>

      /* Set the Preload enable bit for channel3 */
      htim->Instance->CCMR2 |= TIM_CCMR2_OC3PE;
 80059a6:	68fb      	ldr	r3, [r7, #12]
 80059a8:	681b      	ldr	r3, [r3, #0]
 80059aa:	69da      	ldr	r2, [r3, #28]
 80059ac:	68fb      	ldr	r3, [r7, #12]
 80059ae:	681b      	ldr	r3, [r3, #0]
 80059b0:	f042 0208 	orr.w	r2, r2, #8
 80059b4:	61da      	str	r2, [r3, #28]

      /* Configure the Output Fast mode */
      htim->Instance->CCMR2 &= ~TIM_CCMR2_OC3FE;
 80059b6:	68fb      	ldr	r3, [r7, #12]
 80059b8:	681b      	ldr	r3, [r3, #0]
 80059ba:	69da      	ldr	r2, [r3, #28]
 80059bc:	68fb      	ldr	r3, [r7, #12]
 80059be:	681b      	ldr	r3, [r3, #0]
 80059c0:	f022 0204 	bic.w	r2, r2, #4
 80059c4:	61da      	str	r2, [r3, #28]
      htim->Instance->CCMR2 |= sConfig->OCFastMode;
 80059c6:	68fb      	ldr	r3, [r7, #12]
 80059c8:	681b      	ldr	r3, [r3, #0]
 80059ca:	69d9      	ldr	r1, [r3, #28]
 80059cc:	68bb      	ldr	r3, [r7, #8]
 80059ce:	691a      	ldr	r2, [r3, #16]
 80059d0:	68fb      	ldr	r3, [r7, #12]
 80059d2:	681b      	ldr	r3, [r3, #0]
 80059d4:	430a      	orrs	r2, r1
 80059d6:	61da      	str	r2, [r3, #28]
      break;
 80059d8:	e021      	b.n	8005a1e <HAL_TIM_PWM_ConfigChannel+0x16a>
    {
      /* Check the parameters */
      assert_param(IS_TIM_CC4_INSTANCE(htim->Instance));

      /* Configure the Channel 4 in PWM mode */
      TIM_OC4_SetConfig(htim->Instance, sConfig);
 80059da:	68fb      	ldr	r3, [r7, #12]
 80059dc:	681b      	ldr	r3, [r3, #0]
 80059de:	68b9      	ldr	r1, [r7, #8]
 80059e0:	4618      	mov	r0, r3
 80059e2:	f000 f9ef 	bl	8005dc4 <TIM_OC4_SetConfig>

      /* Set the Preload enable bit for channel4 */
      htim->Instance->CCMR2 |= TIM_CCMR2_OC4PE;
 80059e6:	68fb      	ldr	r3, [r7, #12]
 80059e8:	681b      	ldr	r3, [r3, #0]
 80059ea:	69da      	ldr	r2, [r3, #28]
 80059ec:	68fb      	ldr	r3, [r7, #12]
 80059ee:	681b      	ldr	r3, [r3, #0]
 80059f0:	f442 6200 	orr.w	r2, r2, #2048	; 0x800
 80059f4:	61da      	str	r2, [r3, #28]

      /* Configure the Output Fast mode */
      htim->Instance->CCMR2 &= ~TIM_CCMR2_OC4FE;
 80059f6:	68fb      	ldr	r3, [r7, #12]
 80059f8:	681b      	ldr	r3, [r3, #0]
 80059fa:	69da      	ldr	r2, [r3, #28]
 80059fc:	68fb      	ldr	r3, [r7, #12]
 80059fe:	681b      	ldr	r3, [r3, #0]
 8005a00:	f422 6280 	bic.w	r2, r2, #1024	; 0x400
 8005a04:	61da      	str	r2, [r3, #28]
      htim->Instance->CCMR2 |= sConfig->OCFastMode << 8U;
 8005a06:	68fb      	ldr	r3, [r7, #12]
 8005a08:	681b      	ldr	r3, [r3, #0]
 8005a0a:	69d9      	ldr	r1, [r3, #28]
 8005a0c:	68bb      	ldr	r3, [r7, #8]
 8005a0e:	691b      	ldr	r3, [r3, #16]
 8005a10:	021a      	lsls	r2, r3, #8
 8005a12:	68fb      	ldr	r3, [r7, #12]
 8005a14:	681b      	ldr	r3, [r3, #0]
 8005a16:	430a      	orrs	r2, r1
 8005a18:	61da      	str	r2, [r3, #28]
      break;
 8005a1a:	e000      	b.n	8005a1e <HAL_TIM_PWM_ConfigChannel+0x16a>
    }

    default:
      break;
 8005a1c:	bf00      	nop
  }

  __HAL_UNLOCK(htim);
 8005a1e:	68fb      	ldr	r3, [r7, #12]
 8005a20:	2200      	movs	r2, #0
 8005a22:	f883 203c 	strb.w	r2, [r3, #60]	; 0x3c

  return HAL_OK;
 8005a26:	2300      	movs	r3, #0
}
 8005a28:	4618      	mov	r0, r3
 8005a2a:	3710      	adds	r7, #16
 8005a2c:	46bd      	mov	sp, r7
 8005a2e:	bd80      	pop	{r7, pc}

08005a30 <HAL_TIM_PeriodElapsedCallback>:
  * @brief  Period elapsed callback in non-blocking mode
  * @param  htim TIM handle
  * @retval None
  */
__weak void HAL_TIM_PeriodElapsedCallback(TIM_HandleTypeDef *htim)
{
 8005a30:	b480      	push	{r7}
 8005a32:	b083      	sub	sp, #12
 8005a34:	af00      	add	r7, sp, #0
 8005a36:	6078      	str	r0, [r7, #4]
  UNUSED(htim);

  /* NOTE : This function should not be modified, when the callback is needed,
            the HAL_TIM_PeriodElapsedCallback could be implemented in the user file
   */
}
 8005a38:	bf00      	nop
 8005a3a:	370c      	adds	r7, #12
 8005a3c:	46bd      	mov	sp, r7
 8005a3e:	bc80      	pop	{r7}
 8005a40:	4770      	bx	lr

08005a42 <HAL_TIM_OC_DelayElapsedCallback>:
  * @brief  Output Compare callback in non-blocking mode
  * @param  htim TIM OC handle
  * @retval None
  */
__weak void HAL_TIM_OC_DelayElapsedCallback(TIM_HandleTypeDef *htim)
{
 8005a42:	b480      	push	{r7}
 8005a44:	b083      	sub	sp, #12
 8005a46:	af00      	add	r7, sp, #0
 8005a48:	6078      	str	r0, [r7, #4]
  UNUSED(htim);

  /* NOTE : This function should not be modified, when the callback is needed,
            the HAL_TIM_OC_DelayElapsedCallback could be implemented in the user file
   */
}
 8005a4a:	bf00      	nop
 8005a4c:	370c      	adds	r7, #12
 8005a4e:	46bd      	mov	sp, r7
 8005a50:	bc80      	pop	{r7}
 8005a52:	4770      	bx	lr

08005a54 <HAL_TIM_IC_CaptureCallback>:
  * @brief  Input Capture callback in non-blocking mode
  * @param  htim TIM IC handle
  * @retval None
  */
__weak void HAL_TIM_IC_CaptureCallback(TIM_HandleTypeDef *htim)
{
 8005a54:	b480      	push	{r7}
 8005a56:	b083      	sub	sp, #12
 8005a58:	af00      	add	r7, sp, #0
 8005a5a:	6078      	str	r0, [r7, #4]
  UNUSED(htim);

  /* NOTE : This function should not be modified, when the callback is needed,
            the HAL_TIM_IC_CaptureCallback could be implemented in the user file
   */
}
 8005a5c:	bf00      	nop
 8005a5e:	370c      	adds	r7, #12
 8005a60:	46bd      	mov	sp, r7
 8005a62:	bc80      	pop	{r7}
 8005a64:	4770      	bx	lr

08005a66 <HAL_TIM_PWM_PulseFinishedCallback>:
  * @brief  PWM Pulse finished callback in non-blocking mode
  * @param  htim TIM handle
  * @retval None
  */
__weak void HAL_TIM_PWM_PulseFinishedCallback(TIM_HandleTypeDef *htim)
{
 8005a66:	b480      	push	{r7}
 8005a68:	b083      	sub	sp, #12
 8005a6a:	af00      	add	r7, sp, #0
 8005a6c:	6078      	str	r0, [r7, #4]
  UNUSED(htim);

  /* NOTE : This function should not be modified, when the callback is needed,
            the HAL_TIM_PWM_PulseFinishedCallback could be implemented in the user file
   */
}
 8005a6e:	bf00      	nop
 8005a70:	370c      	adds	r7, #12
 8005a72:	46bd      	mov	sp, r7
 8005a74:	bc80      	pop	{r7}
 8005a76:	4770      	bx	lr

08005a78 <HAL_TIM_TriggerCallback>:
  * @brief  Hall Trigger detection callback in non-blocking mode
  * @param  htim TIM handle
  * @retval None
  */
__weak void HAL_TIM_TriggerCallback(TIM_HandleTypeDef *htim)
{
 8005a78:	b480      	push	{r7}
 8005a7a:	b083      	sub	sp, #12
 8005a7c:	af00      	add	r7, sp, #0
 8005a7e:	6078      	str	r0, [r7, #4]
  UNUSED(htim);

  /* NOTE : This function should not be modified, when the callback is needed,
            the HAL_TIM_TriggerCallback could be implemented in the user file
   */
}
 8005a80:	bf00      	nop
 8005a82:	370c      	adds	r7, #12
 8005a84:	46bd      	mov	sp, r7
 8005a86:	bc80      	pop	{r7}
 8005a88:	4770      	bx	lr
	...

08005a8c <TIM_Base_SetConfig>:
  * @param  TIMx TIM peripheral
  * @param  Structure TIM Base configuration structure
  * @retval None
  */
void TIM_Base_SetConfig(TIM_TypeDef *TIMx, TIM_Base_InitTypeDef *Structure)
{
 8005a8c:	b480      	push	{r7}
 8005a8e:	b085      	sub	sp, #20
 8005a90:	af00      	add	r7, sp, #0
 8005a92:	6078      	str	r0, [r7, #4]
 8005a94:	6039      	str	r1, [r7, #0]
  uint32_t tmpcr1;
  tmpcr1 = TIMx->CR1;
 8005a96:	687b      	ldr	r3, [r7, #4]
 8005a98:	681b      	ldr	r3, [r3, #0]
 8005a9a:	60fb      	str	r3, [r7, #12]

  /* Set TIM Time Base Unit parameters ---------------------------------------*/
  if (IS_TIM_COUNTER_MODE_SELECT_INSTANCE(TIMx))
 8005a9c:	687b      	ldr	r3, [r7, #4]
 8005a9e:	4a29      	ldr	r2, [pc, #164]	; (8005b44 <TIM_Base_SetConfig+0xb8>)
 8005aa0:	4293      	cmp	r3, r2
 8005aa2:	d00b      	beq.n	8005abc <TIM_Base_SetConfig+0x30>
 8005aa4:	687b      	ldr	r3, [r7, #4]
 8005aa6:	f1b3 4f80 	cmp.w	r3, #1073741824	; 0x40000000
 8005aaa:	d007      	beq.n	8005abc <TIM_Base_SetConfig+0x30>
 8005aac:	687b      	ldr	r3, [r7, #4]
 8005aae:	4a26      	ldr	r2, [pc, #152]	; (8005b48 <TIM_Base_SetConfig+0xbc>)
 8005ab0:	4293      	cmp	r3, r2
 8005ab2:	d003      	beq.n	8005abc <TIM_Base_SetConfig+0x30>
 8005ab4:	687b      	ldr	r3, [r7, #4]
 8005ab6:	4a25      	ldr	r2, [pc, #148]	; (8005b4c <TIM_Base_SetConfig+0xc0>)
 8005ab8:	4293      	cmp	r3, r2
 8005aba:	d108      	bne.n	8005ace <TIM_Base_SetConfig+0x42>
  {
    /* Select the Counter Mode */
    tmpcr1 &= ~(TIM_CR1_DIR | TIM_CR1_CMS);
 8005abc:	68fb      	ldr	r3, [r7, #12]
 8005abe:	f023 0370 	bic.w	r3, r3, #112	; 0x70
 8005ac2:	60fb      	str	r3, [r7, #12]
    tmpcr1 |= Structure->CounterMode;
 8005ac4:	683b      	ldr	r3, [r7, #0]
 8005ac6:	685b      	ldr	r3, [r3, #4]
 8005ac8:	68fa      	ldr	r2, [r7, #12]
 8005aca:	4313      	orrs	r3, r2
 8005acc:	60fb      	str	r3, [r7, #12]
  }

  if (IS_TIM_CLOCK_DIVISION_INSTANCE(TIMx))
 8005ace:	687b      	ldr	r3, [r7, #4]
 8005ad0:	4a1c      	ldr	r2, [pc, #112]	; (8005b44 <TIM_Base_SetConfig+0xb8>)
 8005ad2:	4293      	cmp	r3, r2
 8005ad4:	d00b      	beq.n	8005aee <TIM_Base_SetConfig+0x62>
 8005ad6:	687b      	ldr	r3, [r7, #4]
 8005ad8:	f1b3 4f80 	cmp.w	r3, #1073741824	; 0x40000000
 8005adc:	d007      	beq.n	8005aee <TIM_Base_SetConfig+0x62>
 8005ade:	687b      	ldr	r3, [r7, #4]
 8005ae0:	4a19      	ldr	r2, [pc, #100]	; (8005b48 <TIM_Base_SetConfig+0xbc>)
 8005ae2:	4293      	cmp	r3, r2
 8005ae4:	d003      	beq.n	8005aee <TIM_Base_SetConfig+0x62>
 8005ae6:	687b      	ldr	r3, [r7, #4]
 8005ae8:	4a18      	ldr	r2, [pc, #96]	; (8005b4c <TIM_Base_SetConfig+0xc0>)
 8005aea:	4293      	cmp	r3, r2
 8005aec:	d108      	bne.n	8005b00 <TIM_Base_SetConfig+0x74>
  {
    /* Set the clock division */
    tmpcr1 &= ~TIM_CR1_CKD;
 8005aee:	68fb      	ldr	r3, [r7, #12]
 8005af0:	f423 7340 	bic.w	r3, r3, #768	; 0x300
 8005af4:	60fb      	str	r3, [r7, #12]
    tmpcr1 |= (uint32_t)Structure->ClockDivision;
 8005af6:	683b      	ldr	r3, [r7, #0]
 8005af8:	68db      	ldr	r3, [r3, #12]
 8005afa:	68fa      	ldr	r2, [r7, #12]
 8005afc:	4313      	orrs	r3, r2
 8005afe:	60fb      	str	r3, [r7, #12]
  }

  /* Set the auto-reload preload */
  MODIFY_REG(tmpcr1, TIM_CR1_ARPE, Structure->AutoReloadPreload);
 8005b00:	68fb      	ldr	r3, [r7, #12]
 8005b02:	f023 0280 	bic.w	r2, r3, #128	; 0x80
 8005b06:	683b      	ldr	r3, [r7, #0]
 8005b08:	695b      	ldr	r3, [r3, #20]
 8005b0a:	4313      	orrs	r3, r2
 8005b0c:	60fb      	str	r3, [r7, #12]

  TIMx->CR1 = tmpcr1;
 8005b0e:	687b      	ldr	r3, [r7, #4]
 8005b10:	68fa      	ldr	r2, [r7, #12]
 8005b12:	601a      	str	r2, [r3, #0]

  /* Set the Autoreload value */
  TIMx->ARR = (uint32_t)Structure->Period ;
 8005b14:	683b      	ldr	r3, [r7, #0]
 8005b16:	689a      	ldr	r2, [r3, #8]
 8005b18:	687b      	ldr	r3, [r7, #4]
 8005b1a:	62da      	str	r2, [r3, #44]	; 0x2c

  /* Set the Prescaler value */
  TIMx->PSC = Structure->Prescaler;
 8005b1c:	683b      	ldr	r3, [r7, #0]
 8005b1e:	681a      	ldr	r2, [r3, #0]
 8005b20:	687b      	ldr	r3, [r7, #4]
 8005b22:	629a      	str	r2, [r3, #40]	; 0x28

  if (IS_TIM_REPETITION_COUNTER_INSTANCE(TIMx))
 8005b24:	687b      	ldr	r3, [r7, #4]
 8005b26:	4a07      	ldr	r2, [pc, #28]	; (8005b44 <TIM_Base_SetConfig+0xb8>)
 8005b28:	4293      	cmp	r3, r2
 8005b2a:	d103      	bne.n	8005b34 <TIM_Base_SetConfig+0xa8>
  {
    /* Set the Repetition Counter value */
    TIMx->RCR = Structure->RepetitionCounter;
 8005b2c:	683b      	ldr	r3, [r7, #0]
 8005b2e:	691a      	ldr	r2, [r3, #16]
 8005b30:	687b      	ldr	r3, [r7, #4]
 8005b32:	631a      	str	r2, [r3, #48]	; 0x30
  }

  /* Generate an update event to reload the Prescaler
     and the repetition counter (only for advanced timer) value immediately */
  TIMx->EGR = TIM_EGR_UG;
 8005b34:	687b      	ldr	r3, [r7, #4]
 8005b36:	2201      	movs	r2, #1
 8005b38:	615a      	str	r2, [r3, #20]
}
 8005b3a:	bf00      	nop
 8005b3c:	3714      	adds	r7, #20
 8005b3e:	46bd      	mov	sp, r7
 8005b40:	bc80      	pop	{r7}
 8005b42:	4770      	bx	lr
 8005b44:	40012c00 	.word	0x40012c00
 8005b48:	40000400 	.word	0x40000400
 8005b4c:	40000800 	.word	0x40000800

08005b50 <TIM_OC1_SetConfig>:
  * @param  TIMx to select the TIM peripheral
  * @param  OC_Config The output configuration structure
  * @retval None
  */
static void TIM_OC1_SetConfig(TIM_TypeDef *TIMx, TIM_OC_InitTypeDef *OC_Config)
{
 8005b50:	b480      	push	{r7}
 8005b52:	b087      	sub	sp, #28
 8005b54:	af00      	add	r7, sp, #0
 8005b56:	6078      	str	r0, [r7, #4]
 8005b58:	6039      	str	r1, [r7, #0]
  uint32_t tmpccmrx;
  uint32_t tmpccer;
  uint32_t tmpcr2;

  /* Disable the Channel 1: Reset the CC1E Bit */
  TIMx->CCER &= ~TIM_CCER_CC1E;
 8005b5a:	687b      	ldr	r3, [r7, #4]
 8005b5c:	6a1b      	ldr	r3, [r3, #32]
 8005b5e:	f023 0201 	bic.w	r2, r3, #1
 8005b62:	687b      	ldr	r3, [r7, #4]
 8005b64:	621a      	str	r2, [r3, #32]

  /* Get the TIMx CCER register value */
  tmpccer = TIMx->CCER;
 8005b66:	687b      	ldr	r3, [r7, #4]
 8005b68:	6a1b      	ldr	r3, [r3, #32]
 8005b6a:	617b      	str	r3, [r7, #20]
  /* Get the TIMx CR2 register value */
  tmpcr2 =  TIMx->CR2;
 8005b6c:	687b      	ldr	r3, [r7, #4]
 8005b6e:	685b      	ldr	r3, [r3, #4]
 8005b70:	613b      	str	r3, [r7, #16]

  /* Get the TIMx CCMR1 register value */
  tmpccmrx = TIMx->CCMR1;
 8005b72:	687b      	ldr	r3, [r7, #4]
 8005b74:	699b      	ldr	r3, [r3, #24]
 8005b76:	60fb      	str	r3, [r7, #12]

  /* Reset the Output Compare Mode Bits */
  tmpccmrx &= ~TIM_CCMR1_OC1M;
 8005b78:	68fb      	ldr	r3, [r7, #12]
 8005b7a:	f023 0370 	bic.w	r3, r3, #112	; 0x70
 8005b7e:	60fb      	str	r3, [r7, #12]
  tmpccmrx &= ~TIM_CCMR1_CC1S;
 8005b80:	68fb      	ldr	r3, [r7, #12]
 8005b82:	f023 0303 	bic.w	r3, r3, #3
 8005b86:	60fb      	str	r3, [r7, #12]
  /* Select the Output Compare Mode */
  tmpccmrx |= OC_Config->OCMode;
 8005b88:	683b      	ldr	r3, [r7, #0]
 8005b8a:	681b      	ldr	r3, [r3, #0]
 8005b8c:	68fa      	ldr	r2, [r7, #12]
 8005b8e:	4313      	orrs	r3, r2
 8005b90:	60fb      	str	r3, [r7, #12]

  /* Reset the Output Polarity level */
  tmpccer &= ~TIM_CCER_CC1P;
 8005b92:	697b      	ldr	r3, [r7, #20]
 8005b94:	f023 0302 	bic.w	r3, r3, #2
 8005b98:	617b      	str	r3, [r7, #20]
  /* Set the Output Compare Polarity */
  tmpccer |= OC_Config->OCPolarity;
 8005b9a:	683b      	ldr	r3, [r7, #0]
 8005b9c:	689b      	ldr	r3, [r3, #8]
 8005b9e:	697a      	ldr	r2, [r7, #20]
 8005ba0:	4313      	orrs	r3, r2
 8005ba2:	617b      	str	r3, [r7, #20]

  if (IS_TIM_CCXN_INSTANCE(TIMx, TIM_CHANNEL_1))
 8005ba4:	687b      	ldr	r3, [r7, #4]
 8005ba6:	4a1c      	ldr	r2, [pc, #112]	; (8005c18 <TIM_OC1_SetConfig+0xc8>)
 8005ba8:	4293      	cmp	r3, r2
 8005baa:	d10c      	bne.n	8005bc6 <TIM_OC1_SetConfig+0x76>
  {
    /* Check parameters */
    assert_param(IS_TIM_OCN_POLARITY(OC_Config->OCNPolarity));

    /* Reset the Output N Polarity level */
    tmpccer &= ~TIM_CCER_CC1NP;
 8005bac:	697b      	ldr	r3, [r7, #20]
 8005bae:	f023 0308 	bic.w	r3, r3, #8
 8005bb2:	617b      	str	r3, [r7, #20]
    /* Set the Output N Polarity */
    tmpccer |= OC_Config->OCNPolarity;
 8005bb4:	683b      	ldr	r3, [r7, #0]
 8005bb6:	68db      	ldr	r3, [r3, #12]
 8005bb8:	697a      	ldr	r2, [r7, #20]
 8005bba:	4313      	orrs	r3, r2
 8005bbc:	617b      	str	r3, [r7, #20]
    /* Reset the Output N State */
    tmpccer &= ~TIM_CCER_CC1NE;
 8005bbe:	697b      	ldr	r3, [r7, #20]
 8005bc0:	f023 0304 	bic.w	r3, r3, #4
 8005bc4:	617b      	str	r3, [r7, #20]
  }

  if (IS_TIM_BREAK_INSTANCE(TIMx))
 8005bc6:	687b      	ldr	r3, [r7, #4]
 8005bc8:	4a13      	ldr	r2, [pc, #76]	; (8005c18 <TIM_OC1_SetConfig+0xc8>)
 8005bca:	4293      	cmp	r3, r2
 8005bcc:	d111      	bne.n	8005bf2 <TIM_OC1_SetConfig+0xa2>
    /* Check parameters */
    assert_param(IS_TIM_OCNIDLE_STATE(OC_Config->OCNIdleState));
    assert_param(IS_TIM_OCIDLE_STATE(OC_Config->OCIdleState));

    /* Reset the Output Compare and Output Compare N IDLE State */
    tmpcr2 &= ~TIM_CR2_OIS1;
 8005bce:	693b      	ldr	r3, [r7, #16]
 8005bd0:	f423 7380 	bic.w	r3, r3, #256	; 0x100
 8005bd4:	613b      	str	r3, [r7, #16]
    tmpcr2 &= ~TIM_CR2_OIS1N;
 8005bd6:	693b      	ldr	r3, [r7, #16]
 8005bd8:	f423 7300 	bic.w	r3, r3, #512	; 0x200
 8005bdc:	613b      	str	r3, [r7, #16]
    /* Set the Output Idle state */
    tmpcr2 |= OC_Config->OCIdleState;
 8005bde:	683b      	ldr	r3, [r7, #0]
 8005be0:	695b      	ldr	r3, [r3, #20]
 8005be2:	693a      	ldr	r2, [r7, #16]
 8005be4:	4313      	orrs	r3, r2
 8005be6:	613b      	str	r3, [r7, #16]
    /* Set the Output N Idle state */
    tmpcr2 |= OC_Config->OCNIdleState;
 8005be8:	683b      	ldr	r3, [r7, #0]
 8005bea:	699b      	ldr	r3, [r3, #24]
 8005bec:	693a      	ldr	r2, [r7, #16]
 8005bee:	4313      	orrs	r3, r2
 8005bf0:	613b      	str	r3, [r7, #16]
  }

  /* Write to TIMx CR2 */
  TIMx->CR2 = tmpcr2;
 8005bf2:	687b      	ldr	r3, [r7, #4]
 8005bf4:	693a      	ldr	r2, [r7, #16]
 8005bf6:	605a      	str	r2, [r3, #4]

  /* Write to TIMx CCMR1 */
  TIMx->CCMR1 = tmpccmrx;
 8005bf8:	687b      	ldr	r3, [r7, #4]
 8005bfa:	68fa      	ldr	r2, [r7, #12]
 8005bfc:	619a      	str	r2, [r3, #24]

  /* Set the Capture Compare Register value */
  TIMx->CCR1 = OC_Config->Pulse;
 8005bfe:	683b      	ldr	r3, [r7, #0]
 8005c00:	685a      	ldr	r2, [r3, #4]
 8005c02:	687b      	ldr	r3, [r7, #4]
 8005c04:	635a      	str	r2, [r3, #52]	; 0x34

  /* Write to TIMx CCER */
  TIMx->CCER = tmpccer;
 8005c06:	687b      	ldr	r3, [r7, #4]
 8005c08:	697a      	ldr	r2, [r7, #20]
 8005c0a:	621a      	str	r2, [r3, #32]
}
 8005c0c:	bf00      	nop
 8005c0e:	371c      	adds	r7, #28
 8005c10:	46bd      	mov	sp, r7
 8005c12:	bc80      	pop	{r7}
 8005c14:	4770      	bx	lr
 8005c16:	bf00      	nop
 8005c18:	40012c00 	.word	0x40012c00

08005c1c <TIM_OC2_SetConfig>:
  * @param  TIMx to select the TIM peripheral
  * @param  OC_Config The output configuration structure
  * @retval None
  */
void TIM_OC2_SetConfig(TIM_TypeDef *TIMx, TIM_OC_InitTypeDef *OC_Config)
{
 8005c1c:	b480      	push	{r7}
 8005c1e:	b087      	sub	sp, #28
 8005c20:	af00      	add	r7, sp, #0
 8005c22:	6078      	str	r0, [r7, #4]
 8005c24:	6039      	str	r1, [r7, #0]
  uint32_t tmpccmrx;
  uint32_t tmpccer;
  uint32_t tmpcr2;

  /* Disable the Channel 2: Reset the CC2E Bit */
  TIMx->CCER &= ~TIM_CCER_CC2E;
 8005c26:	687b      	ldr	r3, [r7, #4]
 8005c28:	6a1b      	ldr	r3, [r3, #32]
 8005c2a:	f023 0210 	bic.w	r2, r3, #16
 8005c2e:	687b      	ldr	r3, [r7, #4]
 8005c30:	621a      	str	r2, [r3, #32]

  /* Get the TIMx CCER register value */
  tmpccer = TIMx->CCER;
 8005c32:	687b      	ldr	r3, [r7, #4]
 8005c34:	6a1b      	ldr	r3, [r3, #32]
 8005c36:	617b      	str	r3, [r7, #20]
  /* Get the TIMx CR2 register value */
  tmpcr2 =  TIMx->CR2;
 8005c38:	687b      	ldr	r3, [r7, #4]
 8005c3a:	685b      	ldr	r3, [r3, #4]
 8005c3c:	613b      	str	r3, [r7, #16]

  /* Get the TIMx CCMR1 register value */
  tmpccmrx = TIMx->CCMR1;
 8005c3e:	687b      	ldr	r3, [r7, #4]
 8005c40:	699b      	ldr	r3, [r3, #24]
 8005c42:	60fb      	str	r3, [r7, #12]

  /* Reset the Output Compare mode and Capture/Compare selection Bits */
  tmpccmrx &= ~TIM_CCMR1_OC2M;
 8005c44:	68fb      	ldr	r3, [r7, #12]
 8005c46:	f423 43e0 	bic.w	r3, r3, #28672	; 0x7000
 8005c4a:	60fb      	str	r3, [r7, #12]
  tmpccmrx &= ~TIM_CCMR1_CC2S;
 8005c4c:	68fb      	ldr	r3, [r7, #12]
 8005c4e:	f423 7340 	bic.w	r3, r3, #768	; 0x300
 8005c52:	60fb      	str	r3, [r7, #12]

  /* Select the Output Compare Mode */
  tmpccmrx |= (OC_Config->OCMode << 8U);
 8005c54:	683b      	ldr	r3, [r7, #0]
 8005c56:	681b      	ldr	r3, [r3, #0]
 8005c58:	021b      	lsls	r3, r3, #8
 8005c5a:	68fa      	ldr	r2, [r7, #12]
 8005c5c:	4313      	orrs	r3, r2
 8005c5e:	60fb      	str	r3, [r7, #12]

  /* Reset the Output Polarity level */
  tmpccer &= ~TIM_CCER_CC2P;
 8005c60:	697b      	ldr	r3, [r7, #20]
 8005c62:	f023 0320 	bic.w	r3, r3, #32
 8005c66:	617b      	str	r3, [r7, #20]
  /* Set the Output Compare Polarity */
  tmpccer |= (OC_Config->OCPolarity << 4U);
 8005c68:	683b      	ldr	r3, [r7, #0]
 8005c6a:	689b      	ldr	r3, [r3, #8]
 8005c6c:	011b      	lsls	r3, r3, #4
 8005c6e:	697a      	ldr	r2, [r7, #20]
 8005c70:	4313      	orrs	r3, r2
 8005c72:	617b      	str	r3, [r7, #20]

  if (IS_TIM_CCXN_INSTANCE(TIMx, TIM_CHANNEL_2))
 8005c74:	687b      	ldr	r3, [r7, #4]
 8005c76:	4a1d      	ldr	r2, [pc, #116]	; (8005cec <TIM_OC2_SetConfig+0xd0>)
 8005c78:	4293      	cmp	r3, r2
 8005c7a:	d10d      	bne.n	8005c98 <TIM_OC2_SetConfig+0x7c>
  {
    assert_param(IS_TIM_OCN_POLARITY(OC_Config->OCNPolarity));

    /* Reset the Output N Polarity level */
    tmpccer &= ~TIM_CCER_CC2NP;
 8005c7c:	697b      	ldr	r3, [r7, #20]
 8005c7e:	f023 0380 	bic.w	r3, r3, #128	; 0x80
 8005c82:	617b      	str	r3, [r7, #20]
    /* Set the Output N Polarity */
    tmpccer |= (OC_Config->OCNPolarity << 4U);
 8005c84:	683b      	ldr	r3, [r7, #0]
 8005c86:	68db      	ldr	r3, [r3, #12]
 8005c88:	011b      	lsls	r3, r3, #4
 8005c8a:	697a      	ldr	r2, [r7, #20]
 8005c8c:	4313      	orrs	r3, r2
 8005c8e:	617b      	str	r3, [r7, #20]
    /* Reset the Output N State */
    tmpccer &= ~TIM_CCER_CC2NE;
 8005c90:	697b      	ldr	r3, [r7, #20]
 8005c92:	f023 0340 	bic.w	r3, r3, #64	; 0x40
 8005c96:	617b      	str	r3, [r7, #20]

  }

  if (IS_TIM_BREAK_INSTANCE(TIMx))
 8005c98:	687b      	ldr	r3, [r7, #4]
 8005c9a:	4a14      	ldr	r2, [pc, #80]	; (8005cec <TIM_OC2_SetConfig+0xd0>)
 8005c9c:	4293      	cmp	r3, r2
 8005c9e:	d113      	bne.n	8005cc8 <TIM_OC2_SetConfig+0xac>
    /* Check parameters */
    assert_param(IS_TIM_OCNIDLE_STATE(OC_Config->OCNIdleState));
    assert_param(IS_TIM_OCIDLE_STATE(OC_Config->OCIdleState));

    /* Reset the Output Compare and Output Compare N IDLE State */
    tmpcr2 &= ~TIM_CR2_OIS2;
 8005ca0:	693b      	ldr	r3, [r7, #16]
 8005ca2:	f423 6380 	bic.w	r3, r3, #1024	; 0x400
 8005ca6:	613b      	str	r3, [r7, #16]
    tmpcr2 &= ~TIM_CR2_OIS2N;
 8005ca8:	693b      	ldr	r3, [r7, #16]
 8005caa:	f423 6300 	bic.w	r3, r3, #2048	; 0x800
 8005cae:	613b      	str	r3, [r7, #16]
    /* Set the Output Idle state */
    tmpcr2 |= (OC_Config->OCIdleState << 2U);
 8005cb0:	683b      	ldr	r3, [r7, #0]
 8005cb2:	695b      	ldr	r3, [r3, #20]
 8005cb4:	009b      	lsls	r3, r3, #2
 8005cb6:	693a      	ldr	r2, [r7, #16]
 8005cb8:	4313      	orrs	r3, r2
 8005cba:	613b      	str	r3, [r7, #16]
    /* Set the Output N Idle state */
    tmpcr2 |= (OC_Config->OCNIdleState << 2U);
 8005cbc:	683b      	ldr	r3, [r7, #0]
 8005cbe:	699b      	ldr	r3, [r3, #24]
 8005cc0:	009b      	lsls	r3, r3, #2
 8005cc2:	693a      	ldr	r2, [r7, #16]
 8005cc4:	4313      	orrs	r3, r2
 8005cc6:	613b      	str	r3, [r7, #16]
  }

  /* Write to TIMx CR2 */
  TIMx->CR2 = tmpcr2;
 8005cc8:	687b      	ldr	r3, [r7, #4]
 8005cca:	693a      	ldr	r2, [r7, #16]
 8005ccc:	605a      	str	r2, [r3, #4]

  /* Write to TIMx CCMR1 */
  TIMx->CCMR1 = tmpccmrx;
 8005cce:	687b      	ldr	r3, [r7, #4]
 8005cd0:	68fa      	ldr	r2, [r7, #12]
 8005cd2:	619a      	str	r2, [r3, #24]

  /* Set the Capture Compare Register value */
  TIMx->CCR2 = OC_Config->Pulse;
 8005cd4:	683b      	ldr	r3, [r7, #0]
 8005cd6:	685a      	ldr	r2, [r3, #4]
 8005cd8:	687b      	ldr	r3, [r7, #4]
 8005cda:	639a      	str	r2, [r3, #56]	; 0x38

  /* Write to TIMx CCER */
  TIMx->CCER = tmpccer;
 8005cdc:	687b      	ldr	r3, [r7, #4]
 8005cde:	697a      	ldr	r2, [r7, #20]
 8005ce0:	621a      	str	r2, [r3, #32]
}
 8005ce2:	bf00      	nop
 8005ce4:	371c      	adds	r7, #28
 8005ce6:	46bd      	mov	sp, r7
 8005ce8:	bc80      	pop	{r7}
 8005cea:	4770      	bx	lr
 8005cec:	40012c00 	.word	0x40012c00

08005cf0 <TIM_OC3_SetConfig>:
  * @param  TIMx to select the TIM peripheral
  * @param  OC_Config The output configuration structure
  * @retval None
  */
static void TIM_OC3_SetConfig(TIM_TypeDef *TIMx, TIM_OC_InitTypeDef *OC_Config)
{
 8005cf0:	b480      	push	{r7}
 8005cf2:	b087      	sub	sp, #28
 8005cf4:	af00      	add	r7, sp, #0
 8005cf6:	6078      	str	r0, [r7, #4]
 8005cf8:	6039      	str	r1, [r7, #0]
  uint32_t tmpccmrx;
  uint32_t tmpccer;
  uint32_t tmpcr2;

  /* Disable the Channel 3: Reset the CC2E Bit */
  TIMx->CCER &= ~TIM_CCER_CC3E;
 8005cfa:	687b      	ldr	r3, [r7, #4]
 8005cfc:	6a1b      	ldr	r3, [r3, #32]
 8005cfe:	f423 7280 	bic.w	r2, r3, #256	; 0x100
 8005d02:	687b      	ldr	r3, [r7, #4]
 8005d04:	621a      	str	r2, [r3, #32]

  /* Get the TIMx CCER register value */
  tmpccer = TIMx->CCER;
 8005d06:	687b      	ldr	r3, [r7, #4]
 8005d08:	6a1b      	ldr	r3, [r3, #32]
 8005d0a:	617b      	str	r3, [r7, #20]
  /* Get the TIMx CR2 register value */
  tmpcr2 =  TIMx->CR2;
 8005d0c:	687b      	ldr	r3, [r7, #4]
 8005d0e:	685b      	ldr	r3, [r3, #4]
 8005d10:	613b      	str	r3, [r7, #16]

  /* Get the TIMx CCMR2 register value */
  tmpccmrx = TIMx->CCMR2;
 8005d12:	687b      	ldr	r3, [r7, #4]
 8005d14:	69db      	ldr	r3, [r3, #28]
 8005d16:	60fb      	str	r3, [r7, #12]

  /* Reset the Output Compare mode and Capture/Compare selection Bits */
  tmpccmrx &= ~TIM_CCMR2_OC3M;
 8005d18:	68fb      	ldr	r3, [r7, #12]
 8005d1a:	f023 0370 	bic.w	r3, r3, #112	; 0x70
 8005d1e:	60fb      	str	r3, [r7, #12]
  tmpccmrx &= ~TIM_CCMR2_CC3S;
 8005d20:	68fb      	ldr	r3, [r7, #12]
 8005d22:	f023 0303 	bic.w	r3, r3, #3
 8005d26:	60fb      	str	r3, [r7, #12]
  /* Select the Output Compare Mode */
  tmpccmrx |= OC_Config->OCMode;
 8005d28:	683b      	ldr	r3, [r7, #0]
 8005d2a:	681b      	ldr	r3, [r3, #0]
 8005d2c:	68fa      	ldr	r2, [r7, #12]
 8005d2e:	4313      	orrs	r3, r2
 8005d30:	60fb      	str	r3, [r7, #12]

  /* Reset the Output Polarity level */
  tmpccer &= ~TIM_CCER_CC3P;
 8005d32:	697b      	ldr	r3, [r7, #20]
 8005d34:	f423 7300 	bic.w	r3, r3, #512	; 0x200
 8005d38:	617b      	str	r3, [r7, #20]
  /* Set the Output Compare Polarity */
  tmpccer |= (OC_Config->OCPolarity << 8U);
 8005d3a:	683b      	ldr	r3, [r7, #0]
 8005d3c:	689b      	ldr	r3, [r3, #8]
 8005d3e:	021b      	lsls	r3, r3, #8
 8005d40:	697a      	ldr	r2, [r7, #20]
 8005d42:	4313      	orrs	r3, r2
 8005d44:	617b      	str	r3, [r7, #20]

  if (IS_TIM_CCXN_INSTANCE(TIMx, TIM_CHANNEL_3))
 8005d46:	687b      	ldr	r3, [r7, #4]
 8005d48:	4a1d      	ldr	r2, [pc, #116]	; (8005dc0 <TIM_OC3_SetConfig+0xd0>)
 8005d4a:	4293      	cmp	r3, r2
 8005d4c:	d10d      	bne.n	8005d6a <TIM_OC3_SetConfig+0x7a>
  {
    assert_param(IS_TIM_OCN_POLARITY(OC_Config->OCNPolarity));

    /* Reset the Output N Polarity level */
    tmpccer &= ~TIM_CCER_CC3NP;
 8005d4e:	697b      	ldr	r3, [r7, #20]
 8005d50:	f423 6300 	bic.w	r3, r3, #2048	; 0x800
 8005d54:	617b      	str	r3, [r7, #20]
    /* Set the Output N Polarity */
    tmpccer |= (OC_Config->OCNPolarity << 8U);
 8005d56:	683b      	ldr	r3, [r7, #0]
 8005d58:	68db      	ldr	r3, [r3, #12]
 8005d5a:	021b      	lsls	r3, r3, #8
 8005d5c:	697a      	ldr	r2, [r7, #20]
 8005d5e:	4313      	orrs	r3, r2
 8005d60:	617b      	str	r3, [r7, #20]
    /* Reset the Output N State */
    tmpccer &= ~TIM_CCER_CC3NE;
 8005d62:	697b      	ldr	r3, [r7, #20]
 8005d64:	f423 6380 	bic.w	r3, r3, #1024	; 0x400
 8005d68:	617b      	str	r3, [r7, #20]
  }

  if (IS_TIM_BREAK_INSTANCE(TIMx))
 8005d6a:	687b      	ldr	r3, [r7, #4]
 8005d6c:	4a14      	ldr	r2, [pc, #80]	; (8005dc0 <TIM_OC3_SetConfig+0xd0>)
 8005d6e:	4293      	cmp	r3, r2
 8005d70:	d113      	bne.n	8005d9a <TIM_OC3_SetConfig+0xaa>
    /* Check parameters */
    assert_param(IS_TIM_OCNIDLE_STATE(OC_Config->OCNIdleState));
    assert_param(IS_TIM_OCIDLE_STATE(OC_Config->OCIdleState));

    /* Reset the Output Compare and Output Compare N IDLE State */
    tmpcr2 &= ~TIM_CR2_OIS3;
 8005d72:	693b      	ldr	r3, [r7, #16]
 8005d74:	f423 5380 	bic.w	r3, r3, #4096	; 0x1000
 8005d78:	613b      	str	r3, [r7, #16]
    tmpcr2 &= ~TIM_CR2_OIS3N;
 8005d7a:	693b      	ldr	r3, [r7, #16]
 8005d7c:	f423 5300 	bic.w	r3, r3, #8192	; 0x2000
 8005d80:	613b      	str	r3, [r7, #16]
    /* Set the Output Idle state */
    tmpcr2 |= (OC_Config->OCIdleState << 4U);
 8005d82:	683b      	ldr	r3, [r7, #0]
 8005d84:	695b      	ldr	r3, [r3, #20]
 8005d86:	011b      	lsls	r3, r3, #4
 8005d88:	693a      	ldr	r2, [r7, #16]
 8005d8a:	4313      	orrs	r3, r2
 8005d8c:	613b      	str	r3, [r7, #16]
    /* Set the Output N Idle state */
    tmpcr2 |= (OC_Config->OCNIdleState << 4U);
 8005d8e:	683b      	ldr	r3, [r7, #0]
 8005d90:	699b      	ldr	r3, [r3, #24]
 8005d92:	011b      	lsls	r3, r3, #4
 8005d94:	693a      	ldr	r2, [r7, #16]
 8005d96:	4313      	orrs	r3, r2
 8005d98:	613b      	str	r3, [r7, #16]
  }

  /* Write to TIMx CR2 */
  TIMx->CR2 = tmpcr2;
 8005d9a:	687b      	ldr	r3, [r7, #4]
 8005d9c:	693a      	ldr	r2, [r7, #16]
 8005d9e:	605a      	str	r2, [r3, #4]

  /* Write to TIMx CCMR2 */
  TIMx->CCMR2 = tmpccmrx;
 8005da0:	687b      	ldr	r3, [r7, #4]
 8005da2:	68fa      	ldr	r2, [r7, #12]
 8005da4:	61da      	str	r2, [r3, #28]

  /* Set the Capture Compare Register value */
  TIMx->CCR3 = OC_Config->Pulse;
 8005da6:	683b      	ldr	r3, [r7, #0]
 8005da8:	685a      	ldr	r2, [r3, #4]
 8005daa:	687b      	ldr	r3, [r7, #4]
 8005dac:	63da      	str	r2, [r3, #60]	; 0x3c

  /* Write to TIMx CCER */
  TIMx->CCER = tmpccer;
 8005dae:	687b      	ldr	r3, [r7, #4]
 8005db0:	697a      	ldr	r2, [r7, #20]
 8005db2:	621a      	str	r2, [r3, #32]
}
 8005db4:	bf00      	nop
 8005db6:	371c      	adds	r7, #28
 8005db8:	46bd      	mov	sp, r7
 8005dba:	bc80      	pop	{r7}
 8005dbc:	4770      	bx	lr
 8005dbe:	bf00      	nop
 8005dc0:	40012c00 	.word	0x40012c00

08005dc4 <TIM_OC4_SetConfig>:
  * @param  TIMx to select the TIM peripheral
  * @param  OC_Config The output configuration structure
  * @retval None
  */
static void TIM_OC4_SetConfig(TIM_TypeDef *TIMx, TIM_OC_InitTypeDef *OC_Config)
{
 8005dc4:	b480      	push	{r7}
 8005dc6:	b087      	sub	sp, #28
 8005dc8:	af00      	add	r7, sp, #0
 8005dca:	6078      	str	r0, [r7, #4]
 8005dcc:	6039      	str	r1, [r7, #0]
  uint32_t tmpccmrx;
  uint32_t tmpccer;
  uint32_t tmpcr2;

  /* Disable the Channel 4: Reset the CC4E Bit */
  TIMx->CCER &= ~TIM_CCER_CC4E;
 8005dce:	687b      	ldr	r3, [r7, #4]
 8005dd0:	6a1b      	ldr	r3, [r3, #32]
 8005dd2:	f423 5280 	bic.w	r2, r3, #4096	; 0x1000
 8005dd6:	687b      	ldr	r3, [r7, #4]
 8005dd8:	621a      	str	r2, [r3, #32]

  /* Get the TIMx CCER register value */
  tmpccer = TIMx->CCER;
 8005dda:	687b      	ldr	r3, [r7, #4]
 8005ddc:	6a1b      	ldr	r3, [r3, #32]
 8005dde:	613b      	str	r3, [r7, #16]
  /* Get the TIMx CR2 register value */
  tmpcr2 =  TIMx->CR2;
 8005de0:	687b      	ldr	r3, [r7, #4]
 8005de2:	685b      	ldr	r3, [r3, #4]
 8005de4:	617b      	str	r3, [r7, #20]

  /* Get the TIMx CCMR2 register value */
  tmpccmrx = TIMx->CCMR2;
 8005de6:	687b      	ldr	r3, [r7, #4]
 8005de8:	69db      	ldr	r3, [r3, #28]
 8005dea:	60fb      	str	r3, [r7, #12]

  /* Reset the Output Compare mode and Capture/Compare selection Bits */
  tmpccmrx &= ~TIM_CCMR2_OC4M;
 8005dec:	68fb      	ldr	r3, [r7, #12]
 8005dee:	f423 43e0 	bic.w	r3, r3, #28672	; 0x7000
 8005df2:	60fb      	str	r3, [r7, #12]
  tmpccmrx &= ~TIM_CCMR2_CC4S;
 8005df4:	68fb      	ldr	r3, [r7, #12]
 8005df6:	f423 7340 	bic.w	r3, r3, #768	; 0x300
 8005dfa:	60fb      	str	r3, [r7, #12]

  /* Select the Output Compare Mode */
  tmpccmrx |= (OC_Config->OCMode << 8U);
 8005dfc:	683b      	ldr	r3, [r7, #0]
 8005dfe:	681b      	ldr	r3, [r3, #0]
 8005e00:	021b      	lsls	r3, r3, #8
 8005e02:	68fa      	ldr	r2, [r7, #12]
 8005e04:	4313      	orrs	r3, r2
 8005e06:	60fb      	str	r3, [r7, #12]

  /* Reset the Output Polarity level */
  tmpccer &= ~TIM_CCER_CC4P;
 8005e08:	693b      	ldr	r3, [r7, #16]
 8005e0a:	f423 5300 	bic.w	r3, r3, #8192	; 0x2000
 8005e0e:	613b      	str	r3, [r7, #16]
  /* Set the Output Compare Polarity */
  tmpccer |= (OC_Config->OCPolarity << 12U);
 8005e10:	683b      	ldr	r3, [r7, #0]
 8005e12:	689b      	ldr	r3, [r3, #8]
 8005e14:	031b      	lsls	r3, r3, #12
 8005e16:	693a      	ldr	r2, [r7, #16]
 8005e18:	4313      	orrs	r3, r2
 8005e1a:	613b      	str	r3, [r7, #16]

  if (IS_TIM_BREAK_INSTANCE(TIMx))
 8005e1c:	687b      	ldr	r3, [r7, #4]
 8005e1e:	4a0f      	ldr	r2, [pc, #60]	; (8005e5c <TIM_OC4_SetConfig+0x98>)
 8005e20:	4293      	cmp	r3, r2
 8005e22:	d109      	bne.n	8005e38 <TIM_OC4_SetConfig+0x74>
  {
    /* Check parameters */
    assert_param(IS_TIM_OCIDLE_STATE(OC_Config->OCIdleState));

    /* Reset the Output Compare IDLE State */
    tmpcr2 &= ~TIM_CR2_OIS4;
 8005e24:	697b      	ldr	r3, [r7, #20]
 8005e26:	f423 4380 	bic.w	r3, r3, #16384	; 0x4000
 8005e2a:	617b      	str	r3, [r7, #20]

    /* Set the Output Idle state */
    tmpcr2 |= (OC_Config->OCIdleState << 6U);
 8005e2c:	683b      	ldr	r3, [r7, #0]
 8005e2e:	695b      	ldr	r3, [r3, #20]
 8005e30:	019b      	lsls	r3, r3, #6
 8005e32:	697a      	ldr	r2, [r7, #20]
 8005e34:	4313      	orrs	r3, r2
 8005e36:	617b      	str	r3, [r7, #20]
  }

  /* Write to TIMx CR2 */
  TIMx->CR2 = tmpcr2;
 8005e38:	687b      	ldr	r3, [r7, #4]
 8005e3a:	697a      	ldr	r2, [r7, #20]
 8005e3c:	605a      	str	r2, [r3, #4]

  /* Write to TIMx CCMR2 */
  TIMx->CCMR2 = tmpccmrx;
 8005e3e:	687b      	ldr	r3, [r7, #4]
 8005e40:	68fa      	ldr	r2, [r7, #12]
 8005e42:	61da      	str	r2, [r3, #28]

  /* Set the Capture Compare Register value */
  TIMx->CCR4 = OC_Config->Pulse;
 8005e44:	683b      	ldr	r3, [r7, #0]
 8005e46:	685a      	ldr	r2, [r3, #4]
 8005e48:	687b      	ldr	r3, [r7, #4]
 8005e4a:	641a      	str	r2, [r3, #64]	; 0x40

  /* Write to TIMx CCER */
  TIMx->CCER = tmpccer;
 8005e4c:	687b      	ldr	r3, [r7, #4]
 8005e4e:	693a      	ldr	r2, [r7, #16]
 8005e50:	621a      	str	r2, [r3, #32]
}
 8005e52:	bf00      	nop
 8005e54:	371c      	adds	r7, #28
 8005e56:	46bd      	mov	sp, r7
 8005e58:	bc80      	pop	{r7}
 8005e5a:	4770      	bx	lr
 8005e5c:	40012c00 	.word	0x40012c00

08005e60 <HAL_TIMEx_CommutCallback>:
  * @brief  Hall commutation changed callback in non-blocking mode
  * @param  htim TIM handle
  * @retval None
  */
__weak void HAL_TIMEx_CommutCallback(TIM_HandleTypeDef *htim)
{
 8005e60:	b480      	push	{r7}
 8005e62:	b083      	sub	sp, #12
 8005e64:	af00      	add	r7, sp, #0
 8005e66:	6078      	str	r0, [r7, #4]
  UNUSED(htim);

  /* NOTE : This function should not be modified, when the callback is needed,
            the HAL_TIMEx_CommutCallback could be implemented in the user file
   */
}
 8005e68:	bf00      	nop
 8005e6a:	370c      	adds	r7, #12
 8005e6c:	46bd      	mov	sp, r7
 8005e6e:	bc80      	pop	{r7}
 8005e70:	4770      	bx	lr

08005e72 <HAL_TIMEx_BreakCallback>:
  * @brief  Hall Break detection callback in non-blocking mode
  * @param  htim TIM handle
  * @retval None
  */
__weak void HAL_TIMEx_BreakCallback(TIM_HandleTypeDef *htim)
{
 8005e72:	b480      	push	{r7}
 8005e74:	b083      	sub	sp, #12
 8005e76:	af00      	add	r7, sp, #0
 8005e78:	6078      	str	r0, [r7, #4]
  UNUSED(htim);

  /* NOTE : This function should not be modified, when the callback is needed,
            the HAL_TIMEx_BreakCallback could be implemented in the user file
   */
}
 8005e7a:	bf00      	nop
 8005e7c:	370c      	adds	r7, #12
 8005e7e:	46bd      	mov	sp, r7
 8005e80:	bc80      	pop	{r7}
 8005e82:	4770      	bx	lr

08005e84 <HAL_UART_Init>:
  * @param  huart  Pointer to a UART_HandleTypeDef structure that contains
  *                the configuration information for the specified UART module.
  * @retval HAL status
  */
HAL_StatusTypeDef HAL_UART_Init(UART_HandleTypeDef *huart)
{
 8005e84:	b580      	push	{r7, lr}
 8005e86:	b082      	sub	sp, #8
 8005e88:	af00      	add	r7, sp, #0
 8005e8a:	6078      	str	r0, [r7, #4]
  /* Check the UART handle allocation */
  if (huart == NULL)
 8005e8c:	687b      	ldr	r3, [r7, #4]
 8005e8e:	2b00      	cmp	r3, #0
 8005e90:	d101      	bne.n	8005e96 <HAL_UART_Init+0x12>
  {
    return HAL_ERROR;
 8005e92:	2301      	movs	r3, #1
 8005e94:	e03f      	b.n	8005f16 <HAL_UART_Init+0x92>
  assert_param(IS_UART_WORD_LENGTH(huart->Init.WordLength));
#if defined(USART_CR1_OVER8)
  assert_param(IS_UART_OVERSAMPLING(huart->Init.OverSampling));
#endif /* USART_CR1_OVER8 */

  if (huart->gState == HAL_UART_STATE_RESET)
 8005e96:	687b      	ldr	r3, [r7, #4]
 8005e98:	f893 303d 	ldrb.w	r3, [r3, #61]	; 0x3d
 8005e9c:	b2db      	uxtb	r3, r3
 8005e9e:	2b00      	cmp	r3, #0
 8005ea0:	d106      	bne.n	8005eb0 <HAL_UART_Init+0x2c>
  {
    /* Allocate lock resource and initialize it */
    huart->Lock = HAL_UNLOCKED;
 8005ea2:	687b      	ldr	r3, [r7, #4]
 8005ea4:	2200      	movs	r2, #0
 8005ea6:	f883 203c 	strb.w	r2, [r3, #60]	; 0x3c

    /* Init the low level hardware */
    huart->MspInitCallback(huart);
#else
    /* Init the low level hardware : GPIO, CLOCK */
    HAL_UART_MspInit(huart);
 8005eaa:	6878      	ldr	r0, [r7, #4]
 8005eac:	f7fc fda2 	bl	80029f4 <HAL_UART_MspInit>
#endif /* (USE_HAL_UART_REGISTER_CALLBACKS) */
  }

  huart->gState = HAL_UART_STATE_BUSY;
 8005eb0:	687b      	ldr	r3, [r7, #4]
 8005eb2:	2224      	movs	r2, #36	; 0x24
 8005eb4:	f883 203d 	strb.w	r2, [r3, #61]	; 0x3d

  /* Disable the peripheral */
  __HAL_UART_DISABLE(huart);
 8005eb8:	687b      	ldr	r3, [r7, #4]
 8005eba:	681b      	ldr	r3, [r3, #0]
 8005ebc:	68da      	ldr	r2, [r3, #12]
 8005ebe:	687b      	ldr	r3, [r7, #4]
 8005ec0:	681b      	ldr	r3, [r3, #0]
 8005ec2:	f422 5200 	bic.w	r2, r2, #8192	; 0x2000
 8005ec6:	60da      	str	r2, [r3, #12]

  /* Set the UART Communication parameters */
  UART_SetConfig(huart);
 8005ec8:	6878      	ldr	r0, [r7, #4]
 8005eca:	f000 fc85 	bl	80067d8 <UART_SetConfig>

  /* In asynchronous mode, the following bits must be kept cleared:
     - LINEN and CLKEN bits in the USART_CR2 register,
     - SCEN, HDSEL and IREN  bits in the USART_CR3 register.*/
  CLEAR_BIT(huart->Instance->CR2, (USART_CR2_LINEN | USART_CR2_CLKEN));
 8005ece:	687b      	ldr	r3, [r7, #4]
 8005ed0:	681b      	ldr	r3, [r3, #0]
 8005ed2:	691a      	ldr	r2, [r3, #16]
 8005ed4:	687b      	ldr	r3, [r7, #4]
 8005ed6:	681b      	ldr	r3, [r3, #0]
 8005ed8:	f422 4290 	bic.w	r2, r2, #18432	; 0x4800
 8005edc:	611a      	str	r2, [r3, #16]
  CLEAR_BIT(huart->Instance->CR3, (USART_CR3_SCEN | USART_CR3_HDSEL | USART_CR3_IREN));
 8005ede:	687b      	ldr	r3, [r7, #4]
 8005ee0:	681b      	ldr	r3, [r3, #0]
 8005ee2:	695a      	ldr	r2, [r3, #20]
 8005ee4:	687b      	ldr	r3, [r7, #4]
 8005ee6:	681b      	ldr	r3, [r3, #0]
 8005ee8:	f022 022a 	bic.w	r2, r2, #42	; 0x2a
 8005eec:	615a      	str	r2, [r3, #20]

  /* Enable the peripheral */
  __HAL_UART_ENABLE(huart);
 8005eee:	687b      	ldr	r3, [r7, #4]
 8005ef0:	681b      	ldr	r3, [r3, #0]
 8005ef2:	68da      	ldr	r2, [r3, #12]
 8005ef4:	687b      	ldr	r3, [r7, #4]
 8005ef6:	681b      	ldr	r3, [r3, #0]
 8005ef8:	f442 5200 	orr.w	r2, r2, #8192	; 0x2000
 8005efc:	60da      	str	r2, [r3, #12]

  /* Initialize the UART state */
  huart->ErrorCode = HAL_UART_ERROR_NONE;
 8005efe:	687b      	ldr	r3, [r7, #4]
 8005f00:	2200      	movs	r2, #0
 8005f02:	641a      	str	r2, [r3, #64]	; 0x40
  huart->gState = HAL_UART_STATE_READY;
 8005f04:	687b      	ldr	r3, [r7, #4]
 8005f06:	2220      	movs	r2, #32
 8005f08:	f883 203d 	strb.w	r2, [r3, #61]	; 0x3d
  huart->RxState = HAL_UART_STATE_READY;
 8005f0c:	687b      	ldr	r3, [r7, #4]
 8005f0e:	2220      	movs	r2, #32
 8005f10:	f883 203e 	strb.w	r2, [r3, #62]	; 0x3e

  return HAL_OK;
 8005f14:	2300      	movs	r3, #0
}
 8005f16:	4618      	mov	r0, r3
 8005f18:	3708      	adds	r7, #8
 8005f1a:	46bd      	mov	sp, r7
 8005f1c:	bd80      	pop	{r7, pc}

08005f1e <HAL_UART_Transmit>:
  * @param  Size  Amount of data elements (u8 or u16) to be sent
  * @param  Timeout Timeout duration
  * @retval HAL status
  */
HAL_StatusTypeDef HAL_UART_Transmit(UART_HandleTypeDef *huart, uint8_t *pData, uint16_t Size, uint32_t Timeout)
{
 8005f1e:	b580      	push	{r7, lr}
 8005f20:	b08a      	sub	sp, #40	; 0x28
 8005f22:	af02      	add	r7, sp, #8
 8005f24:	60f8      	str	r0, [r7, #12]
 8005f26:	60b9      	str	r1, [r7, #8]
 8005f28:	603b      	str	r3, [r7, #0]
 8005f2a:	4613      	mov	r3, r2
 8005f2c:	80fb      	strh	r3, [r7, #6]
  uint8_t  *pdata8bits;
  uint16_t *pdata16bits;
  uint32_t tickstart = 0U;
 8005f2e:	2300      	movs	r3, #0
 8005f30:	617b      	str	r3, [r7, #20]

  /* Check that a Tx process is not already ongoing */
  if (huart->gState == HAL_UART_STATE_READY)
 8005f32:	68fb      	ldr	r3, [r7, #12]
 8005f34:	f893 303d 	ldrb.w	r3, [r3, #61]	; 0x3d
 8005f38:	b2db      	uxtb	r3, r3
 8005f3a:	2b20      	cmp	r3, #32
 8005f3c:	d17c      	bne.n	8006038 <HAL_UART_Transmit+0x11a>
  {
    if ((pData == NULL) || (Size == 0U))
 8005f3e:	68bb      	ldr	r3, [r7, #8]
 8005f40:	2b00      	cmp	r3, #0
 8005f42:	d002      	beq.n	8005f4a <HAL_UART_Transmit+0x2c>
 8005f44:	88fb      	ldrh	r3, [r7, #6]
 8005f46:	2b00      	cmp	r3, #0
 8005f48:	d101      	bne.n	8005f4e <HAL_UART_Transmit+0x30>
    {
      return  HAL_ERROR;
 8005f4a:	2301      	movs	r3, #1
 8005f4c:	e075      	b.n	800603a <HAL_UART_Transmit+0x11c>
    }

    /* Process Locked */
    __HAL_LOCK(huart);
 8005f4e:	68fb      	ldr	r3, [r7, #12]
 8005f50:	f893 303c 	ldrb.w	r3, [r3, #60]	; 0x3c
 8005f54:	2b01      	cmp	r3, #1
 8005f56:	d101      	bne.n	8005f5c <HAL_UART_Transmit+0x3e>
 8005f58:	2302      	movs	r3, #2
 8005f5a:	e06e      	b.n	800603a <HAL_UART_Transmit+0x11c>
 8005f5c:	68fb      	ldr	r3, [r7, #12]
 8005f5e:	2201      	movs	r2, #1
 8005f60:	f883 203c 	strb.w	r2, [r3, #60]	; 0x3c

    huart->ErrorCode = HAL_UART_ERROR_NONE;
 8005f64:	68fb      	ldr	r3, [r7, #12]
 8005f66:	2200      	movs	r2, #0
 8005f68:	641a      	str	r2, [r3, #64]	; 0x40
    huart->gState = HAL_UART_STATE_BUSY_TX;
 8005f6a:	68fb      	ldr	r3, [r7, #12]
 8005f6c:	2221      	movs	r2, #33	; 0x21
 8005f6e:	f883 203d 	strb.w	r2, [r3, #61]	; 0x3d

    /* Init tickstart for timeout management */
    tickstart = HAL_GetTick();
 8005f72:	f7fd fbaf 	bl	80036d4 <HAL_GetTick>
 8005f76:	6178      	str	r0, [r7, #20]

    huart->TxXferSize = Size;
 8005f78:	68fb      	ldr	r3, [r7, #12]
 8005f7a:	88fa      	ldrh	r2, [r7, #6]
 8005f7c:	849a      	strh	r2, [r3, #36]	; 0x24
    huart->TxXferCount = Size;
 8005f7e:	68fb      	ldr	r3, [r7, #12]
 8005f80:	88fa      	ldrh	r2, [r7, #6]
 8005f82:	84da      	strh	r2, [r3, #38]	; 0x26

    /* In case of 9bits/No Parity transfer, pData needs to be handled as a uint16_t pointer */
    if ((huart->Init.WordLength == UART_WORDLENGTH_9B) && (huart->Init.Parity == UART_PARITY_NONE))
 8005f84:	68fb      	ldr	r3, [r7, #12]
 8005f86:	689b      	ldr	r3, [r3, #8]
 8005f88:	f5b3 5f80 	cmp.w	r3, #4096	; 0x1000
 8005f8c:	d108      	bne.n	8005fa0 <HAL_UART_Transmit+0x82>
 8005f8e:	68fb      	ldr	r3, [r7, #12]
 8005f90:	691b      	ldr	r3, [r3, #16]
 8005f92:	2b00      	cmp	r3, #0
 8005f94:	d104      	bne.n	8005fa0 <HAL_UART_Transmit+0x82>
    {
      pdata8bits  = NULL;
 8005f96:	2300      	movs	r3, #0
 8005f98:	61fb      	str	r3, [r7, #28]
      pdata16bits = (uint16_t *) pData;
 8005f9a:	68bb      	ldr	r3, [r7, #8]
 8005f9c:	61bb      	str	r3, [r7, #24]
 8005f9e:	e003      	b.n	8005fa8 <HAL_UART_Transmit+0x8a>
    }
    else
    {
      pdata8bits  = pData;
 8005fa0:	68bb      	ldr	r3, [r7, #8]
 8005fa2:	61fb      	str	r3, [r7, #28]
      pdata16bits = NULL;
 8005fa4:	2300      	movs	r3, #0
 8005fa6:	61bb      	str	r3, [r7, #24]
    }

    /* Process Unlocked */
    __HAL_UNLOCK(huart);
 8005fa8:	68fb      	ldr	r3, [r7, #12]
 8005faa:	2200      	movs	r2, #0
 8005fac:	f883 203c 	strb.w	r2, [r3, #60]	; 0x3c

    while (huart->TxXferCount > 0U)
 8005fb0:	e02a      	b.n	8006008 <HAL_UART_Transmit+0xea>
    {
      if (UART_WaitOnFlagUntilTimeout(huart, UART_FLAG_TXE, RESET, tickstart, Timeout) != HAL_OK)
 8005fb2:	683b      	ldr	r3, [r7, #0]
 8005fb4:	9300      	str	r3, [sp, #0]
 8005fb6:	697b      	ldr	r3, [r7, #20]
 8005fb8:	2200      	movs	r2, #0
 8005fba:	2180      	movs	r1, #128	; 0x80
 8005fbc:	68f8      	ldr	r0, [r7, #12]
 8005fbe:	f000 fa38 	bl	8006432 <UART_WaitOnFlagUntilTimeout>
 8005fc2:	4603      	mov	r3, r0
 8005fc4:	2b00      	cmp	r3, #0
 8005fc6:	d001      	beq.n	8005fcc <HAL_UART_Transmit+0xae>
      {
        return HAL_TIMEOUT;
 8005fc8:	2303      	movs	r3, #3
 8005fca:	e036      	b.n	800603a <HAL_UART_Transmit+0x11c>
      }
      if (pdata8bits == NULL)
 8005fcc:	69fb      	ldr	r3, [r7, #28]
 8005fce:	2b00      	cmp	r3, #0
 8005fd0:	d10b      	bne.n	8005fea <HAL_UART_Transmit+0xcc>
      {
        huart->Instance->DR = (uint16_t)(*pdata16bits & 0x01FFU);
 8005fd2:	69bb      	ldr	r3, [r7, #24]
 8005fd4:	881b      	ldrh	r3, [r3, #0]
 8005fd6:	461a      	mov	r2, r3
 8005fd8:	68fb      	ldr	r3, [r7, #12]
 8005fda:	681b      	ldr	r3, [r3, #0]
 8005fdc:	f3c2 0208 	ubfx	r2, r2, #0, #9
 8005fe0:	605a      	str	r2, [r3, #4]
        pdata16bits++;
 8005fe2:	69bb      	ldr	r3, [r7, #24]
 8005fe4:	3302      	adds	r3, #2
 8005fe6:	61bb      	str	r3, [r7, #24]
 8005fe8:	e007      	b.n	8005ffa <HAL_UART_Transmit+0xdc>
      }
      else
      {
        huart->Instance->DR = (uint8_t)(*pdata8bits & 0xFFU);
 8005fea:	69fb      	ldr	r3, [r7, #28]
 8005fec:	781a      	ldrb	r2, [r3, #0]
 8005fee:	68fb      	ldr	r3, [r7, #12]
 8005ff0:	681b      	ldr	r3, [r3, #0]
 8005ff2:	605a      	str	r2, [r3, #4]
        pdata8bits++;
 8005ff4:	69fb      	ldr	r3, [r7, #28]
 8005ff6:	3301      	adds	r3, #1
 8005ff8:	61fb      	str	r3, [r7, #28]
      }
      huart->TxXferCount--;
 8005ffa:	68fb      	ldr	r3, [r7, #12]
 8005ffc:	8cdb      	ldrh	r3, [r3, #38]	; 0x26
 8005ffe:	b29b      	uxth	r3, r3
 8006000:	3b01      	subs	r3, #1
 8006002:	b29a      	uxth	r2, r3
 8006004:	68fb      	ldr	r3, [r7, #12]
 8006006:	84da      	strh	r2, [r3, #38]	; 0x26
    while (huart->TxXferCount > 0U)
 8006008:	68fb      	ldr	r3, [r7, #12]
 800600a:	8cdb      	ldrh	r3, [r3, #38]	; 0x26
 800600c:	b29b      	uxth	r3, r3
 800600e:	2b00      	cmp	r3, #0
 8006010:	d1cf      	bne.n	8005fb2 <HAL_UART_Transmit+0x94>
    }

    if (UART_WaitOnFlagUntilTimeout(huart, UART_FLAG_TC, RESET, tickstart, Timeout) != HAL_OK)
 8006012:	683b      	ldr	r3, [r7, #0]
 8006014:	9300      	str	r3, [sp, #0]
 8006016:	697b      	ldr	r3, [r7, #20]
 8006018:	2200      	movs	r2, #0
 800601a:	2140      	movs	r1, #64	; 0x40
 800601c:	68f8      	ldr	r0, [r7, #12]
 800601e:	f000 fa08 	bl	8006432 <UART_WaitOnFlagUntilTimeout>
 8006022:	4603      	mov	r3, r0
 8006024:	2b00      	cmp	r3, #0
 8006026:	d001      	beq.n	800602c <HAL_UART_Transmit+0x10e>
    {
      return HAL_TIMEOUT;
 8006028:	2303      	movs	r3, #3
 800602a:	e006      	b.n	800603a <HAL_UART_Transmit+0x11c>
    }

    /* At end of Tx process, restore huart->gState to Ready */
    huart->gState = HAL_UART_STATE_READY;
 800602c:	68fb      	ldr	r3, [r7, #12]
 800602e:	2220      	movs	r2, #32
 8006030:	f883 203d 	strb.w	r2, [r3, #61]	; 0x3d

    return HAL_OK;
 8006034:	2300      	movs	r3, #0
 8006036:	e000      	b.n	800603a <HAL_UART_Transmit+0x11c>
  }
  else
  {
    return HAL_BUSY;
 8006038:	2302      	movs	r3, #2
  }
}
 800603a:	4618      	mov	r0, r3
 800603c:	3720      	adds	r7, #32
 800603e:	46bd      	mov	sp, r7
 8006040:	bd80      	pop	{r7, pc}

08006042 <HAL_UART_Receive_IT>:
  * @param  pData Pointer to data buffer (u8 or u16 data elements).
  * @param  Size  Amount of data elements (u8 or u16) to be received.
  * @retval HAL status
  */
HAL_StatusTypeDef HAL_UART_Receive_IT(UART_HandleTypeDef *huart, uint8_t *pData, uint16_t Size)
{
 8006042:	b580      	push	{r7, lr}
 8006044:	b084      	sub	sp, #16
 8006046:	af00      	add	r7, sp, #0
 8006048:	60f8      	str	r0, [r7, #12]
 800604a:	60b9      	str	r1, [r7, #8]
 800604c:	4613      	mov	r3, r2
 800604e:	80fb      	strh	r3, [r7, #6]
  /* Check that a Rx process is not already ongoing */
  if (huart->RxState == HAL_UART_STATE_READY)
 8006050:	68fb      	ldr	r3, [r7, #12]
 8006052:	f893 303e 	ldrb.w	r3, [r3, #62]	; 0x3e
 8006056:	b2db      	uxtb	r3, r3
 8006058:	2b20      	cmp	r3, #32
 800605a:	d11d      	bne.n	8006098 <HAL_UART_Receive_IT+0x56>
  {
    if ((pData == NULL) || (Size == 0U))
 800605c:	68bb      	ldr	r3, [r7, #8]
 800605e:	2b00      	cmp	r3, #0
 8006060:	d002      	beq.n	8006068 <HAL_UART_Receive_IT+0x26>
 8006062:	88fb      	ldrh	r3, [r7, #6]
 8006064:	2b00      	cmp	r3, #0
 8006066:	d101      	bne.n	800606c <HAL_UART_Receive_IT+0x2a>
    {
      return HAL_ERROR;
 8006068:	2301      	movs	r3, #1
 800606a:	e016      	b.n	800609a <HAL_UART_Receive_IT+0x58>
    }

    /* Process Locked */
    __HAL_LOCK(huart);
 800606c:	68fb      	ldr	r3, [r7, #12]
 800606e:	f893 303c 	ldrb.w	r3, [r3, #60]	; 0x3c
 8006072:	2b01      	cmp	r3, #1
 8006074:	d101      	bne.n	800607a <HAL_UART_Receive_IT+0x38>
 8006076:	2302      	movs	r3, #2
 8006078:	e00f      	b.n	800609a <HAL_UART_Receive_IT+0x58>
 800607a:	68fb      	ldr	r3, [r7, #12]
 800607c:	2201      	movs	r2, #1
 800607e:	f883 203c 	strb.w	r2, [r3, #60]	; 0x3c

    /* Set Reception type to Standard reception */
    huart->ReceptionType = HAL_UART_RECEPTION_STANDARD;
 8006082:	68fb      	ldr	r3, [r7, #12]
 8006084:	2200      	movs	r2, #0
 8006086:	631a      	str	r2, [r3, #48]	; 0x30

    return(UART_Start_Receive_IT(huart, pData, Size));
 8006088:	88fb      	ldrh	r3, [r7, #6]
 800608a:	461a      	mov	r2, r3
 800608c:	68b9      	ldr	r1, [r7, #8]
 800608e:	68f8      	ldr	r0, [r7, #12]
 8006090:	f000 fa19 	bl	80064c6 <UART_Start_Receive_IT>
 8006094:	4603      	mov	r3, r0
 8006096:	e000      	b.n	800609a <HAL_UART_Receive_IT+0x58>
  }
  else
  {
    return HAL_BUSY;
 8006098:	2302      	movs	r3, #2
  }
}
 800609a:	4618      	mov	r0, r3
 800609c:	3710      	adds	r7, #16
 800609e:	46bd      	mov	sp, r7
 80060a0:	bd80      	pop	{r7, pc}
	...

080060a4 <HAL_UART_IRQHandler>:
  * @param  huart  Pointer to a UART_HandleTypeDef structure that contains
  *                the configuration information for the specified UART module.
  * @retval None
  */
void HAL_UART_IRQHandler(UART_HandleTypeDef *huart)
{
 80060a4:	b580      	push	{r7, lr}
 80060a6:	b08a      	sub	sp, #40	; 0x28
 80060a8:	af00      	add	r7, sp, #0
 80060aa:	6078      	str	r0, [r7, #4]
  uint32_t isrflags   = READ_REG(huart->Instance->SR);
 80060ac:	687b      	ldr	r3, [r7, #4]
 80060ae:	681b      	ldr	r3, [r3, #0]
 80060b0:	681b      	ldr	r3, [r3, #0]
 80060b2:	627b      	str	r3, [r7, #36]	; 0x24
  uint32_t cr1its     = READ_REG(huart->Instance->CR1);
 80060b4:	687b      	ldr	r3, [r7, #4]
 80060b6:	681b      	ldr	r3, [r3, #0]
 80060b8:	68db      	ldr	r3, [r3, #12]
 80060ba:	623b      	str	r3, [r7, #32]
  uint32_t cr3its     = READ_REG(huart->Instance->CR3);
 80060bc:	687b      	ldr	r3, [r7, #4]
 80060be:	681b      	ldr	r3, [r3, #0]
 80060c0:	695b      	ldr	r3, [r3, #20]
 80060c2:	61fb      	str	r3, [r7, #28]
  uint32_t errorflags = 0x00U;
 80060c4:	2300      	movs	r3, #0
 80060c6:	61bb      	str	r3, [r7, #24]
  uint32_t dmarequest = 0x00U;
 80060c8:	2300      	movs	r3, #0
 80060ca:	617b      	str	r3, [r7, #20]

  /* If no error occurs */
  errorflags = (isrflags & (uint32_t)(USART_SR_PE | USART_SR_FE | USART_SR_ORE | USART_SR_NE));
 80060cc:	6a7b      	ldr	r3, [r7, #36]	; 0x24
 80060ce:	f003 030f 	and.w	r3, r3, #15
 80060d2:	61bb      	str	r3, [r7, #24]
  if (errorflags == RESET)
 80060d4:	69bb      	ldr	r3, [r7, #24]
 80060d6:	2b00      	cmp	r3, #0
 80060d8:	d10d      	bne.n	80060f6 <HAL_UART_IRQHandler+0x52>
  {
    /* UART in mode Receiver -------------------------------------------------*/
    if (((isrflags & USART_SR_RXNE) != RESET) && ((cr1its & USART_CR1_RXNEIE) != RESET))
 80060da:	6a7b      	ldr	r3, [r7, #36]	; 0x24
 80060dc:	f003 0320 	and.w	r3, r3, #32
 80060e0:	2b00      	cmp	r3, #0
 80060e2:	d008      	beq.n	80060f6 <HAL_UART_IRQHandler+0x52>
 80060e4:	6a3b      	ldr	r3, [r7, #32]
 80060e6:	f003 0320 	and.w	r3, r3, #32
 80060ea:	2b00      	cmp	r3, #0
 80060ec:	d003      	beq.n	80060f6 <HAL_UART_IRQHandler+0x52>
    {
      UART_Receive_IT(huart);
 80060ee:	6878      	ldr	r0, [r7, #4]
 80060f0:	f000 fac9 	bl	8006686 <UART_Receive_IT>
      return;
 80060f4:	e17b      	b.n	80063ee <HAL_UART_IRQHandler+0x34a>
    }
  }

  /* If some errors occur */
  if ((errorflags != RESET) && (((cr3its & USART_CR3_EIE) != RESET) || ((cr1its & (USART_CR1_RXNEIE | USART_CR1_PEIE)) != RESET)))
 80060f6:	69bb      	ldr	r3, [r7, #24]
 80060f8:	2b00      	cmp	r3, #0
 80060fa:	f000 80b1 	beq.w	8006260 <HAL_UART_IRQHandler+0x1bc>
 80060fe:	69fb      	ldr	r3, [r7, #28]
 8006100:	f003 0301 	and.w	r3, r3, #1
 8006104:	2b00      	cmp	r3, #0
 8006106:	d105      	bne.n	8006114 <HAL_UART_IRQHandler+0x70>
 8006108:	6a3b      	ldr	r3, [r7, #32]
 800610a:	f403 7390 	and.w	r3, r3, #288	; 0x120
 800610e:	2b00      	cmp	r3, #0
 8006110:	f000 80a6 	beq.w	8006260 <HAL_UART_IRQHandler+0x1bc>
  {
    /* UART parity error interrupt occurred ----------------------------------*/
    if (((isrflags & USART_SR_PE) != RESET) && ((cr1its & USART_CR1_PEIE) != RESET))
 8006114:	6a7b      	ldr	r3, [r7, #36]	; 0x24
 8006116:	f003 0301 	and.w	r3, r3, #1
 800611a:	2b00      	cmp	r3, #0
 800611c:	d00a      	beq.n	8006134 <HAL_UART_IRQHandler+0x90>
 800611e:	6a3b      	ldr	r3, [r7, #32]
 8006120:	f403 7380 	and.w	r3, r3, #256	; 0x100
 8006124:	2b00      	cmp	r3, #0
 8006126:	d005      	beq.n	8006134 <HAL_UART_IRQHandler+0x90>
    {
      huart->ErrorCode |= HAL_UART_ERROR_PE;
 8006128:	687b      	ldr	r3, [r7, #4]
 800612a:	6c1b      	ldr	r3, [r3, #64]	; 0x40
 800612c:	f043 0201 	orr.w	r2, r3, #1
 8006130:	687b      	ldr	r3, [r7, #4]
 8006132:	641a      	str	r2, [r3, #64]	; 0x40
    }

    /* UART noise error interrupt occurred -----------------------------------*/
    if (((isrflags & USART_SR_NE) != RESET) && ((cr3its & USART_CR3_EIE) != RESET))
 8006134:	6a7b      	ldr	r3, [r7, #36]	; 0x24
 8006136:	f003 0304 	and.w	r3, r3, #4
 800613a:	2b00      	cmp	r3, #0
 800613c:	d00a      	beq.n	8006154 <HAL_UART_IRQHandler+0xb0>
 800613e:	69fb      	ldr	r3, [r7, #28]
 8006140:	f003 0301 	and.w	r3, r3, #1
 8006144:	2b00      	cmp	r3, #0
 8006146:	d005      	beq.n	8006154 <HAL_UART_IRQHandler+0xb0>
    {
      huart->ErrorCode |= HAL_UART_ERROR_NE;
 8006148:	687b      	ldr	r3, [r7, #4]
 800614a:	6c1b      	ldr	r3, [r3, #64]	; 0x40
 800614c:	f043 0202 	orr.w	r2, r3, #2
 8006150:	687b      	ldr	r3, [r7, #4]
 8006152:	641a      	str	r2, [r3, #64]	; 0x40
    }

    /* UART frame error interrupt occurred -----------------------------------*/
    if (((isrflags & USART_SR_FE) != RESET) && ((cr3its & USART_CR3_EIE) != RESET))
 8006154:	6a7b      	ldr	r3, [r7, #36]	; 0x24
 8006156:	f003 0302 	and.w	r3, r3, #2
 800615a:	2b00      	cmp	r3, #0
 800615c:	d00a      	beq.n	8006174 <HAL_UART_IRQHandler+0xd0>
 800615e:	69fb      	ldr	r3, [r7, #28]
 8006160:	f003 0301 	and.w	r3, r3, #1
 8006164:	2b00      	cmp	r3, #0
 8006166:	d005      	beq.n	8006174 <HAL_UART_IRQHandler+0xd0>
    {
      huart->ErrorCode |= HAL_UART_ERROR_FE;
 8006168:	687b      	ldr	r3, [r7, #4]
 800616a:	6c1b      	ldr	r3, [r3, #64]	; 0x40
 800616c:	f043 0204 	orr.w	r2, r3, #4
 8006170:	687b      	ldr	r3, [r7, #4]
 8006172:	641a      	str	r2, [r3, #64]	; 0x40
    }

    /* UART Over-Run interrupt occurred --------------------------------------*/
    if (((isrflags & USART_SR_ORE) != RESET) && (((cr1its & USART_CR1_RXNEIE) != RESET) || ((cr3its & USART_CR3_EIE) != RESET)))
 8006174:	6a7b      	ldr	r3, [r7, #36]	; 0x24
 8006176:	f003 0308 	and.w	r3, r3, #8
 800617a:	2b00      	cmp	r3, #0
 800617c:	d00f      	beq.n	800619e <HAL_UART_IRQHandler+0xfa>
 800617e:	6a3b      	ldr	r3, [r7, #32]
 8006180:	f003 0320 	and.w	r3, r3, #32
 8006184:	2b00      	cmp	r3, #0
 8006186:	d104      	bne.n	8006192 <HAL_UART_IRQHandler+0xee>
 8006188:	69fb      	ldr	r3, [r7, #28]
 800618a:	f003 0301 	and.w	r3, r3, #1
 800618e:	2b00      	cmp	r3, #0
 8006190:	d005      	beq.n	800619e <HAL_UART_IRQHandler+0xfa>
    {
      huart->ErrorCode |= HAL_UART_ERROR_ORE;
 8006192:	687b      	ldr	r3, [r7, #4]
 8006194:	6c1b      	ldr	r3, [r3, #64]	; 0x40
 8006196:	f043 0208 	orr.w	r2, r3, #8
 800619a:	687b      	ldr	r3, [r7, #4]
 800619c:	641a      	str	r2, [r3, #64]	; 0x40
    }

    /* Call UART Error Call back function if need be --------------------------*/
    if (huart->ErrorCode != HAL_UART_ERROR_NONE)
 800619e:	687b      	ldr	r3, [r7, #4]
 80061a0:	6c1b      	ldr	r3, [r3, #64]	; 0x40
 80061a2:	2b00      	cmp	r3, #0
 80061a4:	f000 811e 	beq.w	80063e4 <HAL_UART_IRQHandler+0x340>
    {
      /* UART in mode Receiver -----------------------------------------------*/
      if (((isrflags & USART_SR_RXNE) != RESET) && ((cr1its & USART_CR1_RXNEIE) != RESET))
 80061a8:	6a7b      	ldr	r3, [r7, #36]	; 0x24
 80061aa:	f003 0320 	and.w	r3, r3, #32
 80061ae:	2b00      	cmp	r3, #0
 80061b0:	d007      	beq.n	80061c2 <HAL_UART_IRQHandler+0x11e>
 80061b2:	6a3b      	ldr	r3, [r7, #32]
 80061b4:	f003 0320 	and.w	r3, r3, #32
 80061b8:	2b00      	cmp	r3, #0
 80061ba:	d002      	beq.n	80061c2 <HAL_UART_IRQHandler+0x11e>
      {
        UART_Receive_IT(huart);
 80061bc:	6878      	ldr	r0, [r7, #4]
 80061be:	f000 fa62 	bl	8006686 <UART_Receive_IT>
      }

      /* If Overrun error occurs, or if any error occurs in DMA mode reception,
         consider error as blocking */
      dmarequest = HAL_IS_BIT_SET(huart->Instance->CR3, USART_CR3_DMAR);
 80061c2:	687b      	ldr	r3, [r7, #4]
 80061c4:	681b      	ldr	r3, [r3, #0]
 80061c6:	695b      	ldr	r3, [r3, #20]
 80061c8:	f003 0340 	and.w	r3, r3, #64	; 0x40
 80061cc:	2b00      	cmp	r3, #0
 80061ce:	bf14      	ite	ne
 80061d0:	2301      	movne	r3, #1
 80061d2:	2300      	moveq	r3, #0
 80061d4:	b2db      	uxtb	r3, r3
 80061d6:	617b      	str	r3, [r7, #20]
      if (((huart->ErrorCode & HAL_UART_ERROR_ORE) != RESET) || dmarequest)
 80061d8:	687b      	ldr	r3, [r7, #4]
 80061da:	6c1b      	ldr	r3, [r3, #64]	; 0x40
 80061dc:	f003 0308 	and.w	r3, r3, #8
 80061e0:	2b00      	cmp	r3, #0
 80061e2:	d102      	bne.n	80061ea <HAL_UART_IRQHandler+0x146>
 80061e4:	697b      	ldr	r3, [r7, #20]
 80061e6:	2b00      	cmp	r3, #0
 80061e8:	d031      	beq.n	800624e <HAL_UART_IRQHandler+0x1aa>
      {
        /* Blocking error : transfer is aborted
           Set the UART state ready to be able to start again the process,
           Disable Rx Interrupts, and disable Rx DMA request, if ongoing */
        UART_EndRxTransfer(huart);
 80061ea:	6878      	ldr	r0, [r7, #4]
 80061ec:	f000 f9a4 	bl	8006538 <UART_EndRxTransfer>

        /* Disable the UART DMA Rx request if enabled */
        if (HAL_IS_BIT_SET(huart->Instance->CR3, USART_CR3_DMAR))
 80061f0:	687b      	ldr	r3, [r7, #4]
 80061f2:	681b      	ldr	r3, [r3, #0]
 80061f4:	695b      	ldr	r3, [r3, #20]
 80061f6:	f003 0340 	and.w	r3, r3, #64	; 0x40
 80061fa:	2b00      	cmp	r3, #0
 80061fc:	d023      	beq.n	8006246 <HAL_UART_IRQHandler+0x1a2>
        {
          CLEAR_BIT(huart->Instance->CR3, USART_CR3_DMAR);
 80061fe:	687b      	ldr	r3, [r7, #4]
 8006200:	681b      	ldr	r3, [r3, #0]
 8006202:	695a      	ldr	r2, [r3, #20]
 8006204:	687b      	ldr	r3, [r7, #4]
 8006206:	681b      	ldr	r3, [r3, #0]
 8006208:	f022 0240 	bic.w	r2, r2, #64	; 0x40
 800620c:	615a      	str	r2, [r3, #20]

          /* Abort the UART DMA Rx channel */
          if (huart->hdmarx != NULL)
 800620e:	687b      	ldr	r3, [r7, #4]
 8006210:	6b9b      	ldr	r3, [r3, #56]	; 0x38
 8006212:	2b00      	cmp	r3, #0
 8006214:	d013      	beq.n	800623e <HAL_UART_IRQHandler+0x19a>
          {
            /* Set the UART DMA Abort callback :
               will lead to call HAL_UART_ErrorCallback() at end of DMA abort procedure */
            huart->hdmarx->XferAbortCallback = UART_DMAAbortOnError;
 8006216:	687b      	ldr	r3, [r7, #4]
 8006218:	6b9b      	ldr	r3, [r3, #56]	; 0x38
 800621a:	4a76      	ldr	r2, [pc, #472]	; (80063f4 <HAL_UART_IRQHandler+0x350>)
 800621c:	635a      	str	r2, [r3, #52]	; 0x34
            if (HAL_DMA_Abort_IT(huart->hdmarx) != HAL_OK)
 800621e:	687b      	ldr	r3, [r7, #4]
 8006220:	6b9b      	ldr	r3, [r3, #56]	; 0x38
 8006222:	4618      	mov	r0, r3
 8006224:	f7fe f9b0 	bl	8004588 <HAL_DMA_Abort_IT>
 8006228:	4603      	mov	r3, r0
 800622a:	2b00      	cmp	r3, #0
 800622c:	d016      	beq.n	800625c <HAL_UART_IRQHandler+0x1b8>
            {
              /* Call Directly XferAbortCallback function in case of error */
              huart->hdmarx->XferAbortCallback(huart->hdmarx);
 800622e:	687b      	ldr	r3, [r7, #4]
 8006230:	6b9b      	ldr	r3, [r3, #56]	; 0x38
 8006232:	6b5b      	ldr	r3, [r3, #52]	; 0x34
 8006234:	687a      	ldr	r2, [r7, #4]
 8006236:	6b92      	ldr	r2, [r2, #56]	; 0x38
 8006238:	4610      	mov	r0, r2
 800623a:	4798      	blx	r3
        if (HAL_IS_BIT_SET(huart->Instance->CR3, USART_CR3_DMAR))
 800623c:	e00e      	b.n	800625c <HAL_UART_IRQHandler+0x1b8>
#if (USE_HAL_UART_REGISTER_CALLBACKS == 1)
            /*Call registered error callback*/
            huart->ErrorCallback(huart);
#else
            /*Call legacy weak error callback*/
            HAL_UART_ErrorCallback(huart);
 800623e:	6878      	ldr	r0, [r7, #4]
 8006240:	f000 f8e3 	bl	800640a <HAL_UART_ErrorCallback>
        if (HAL_IS_BIT_SET(huart->Instance->CR3, USART_CR3_DMAR))
 8006244:	e00a      	b.n	800625c <HAL_UART_IRQHandler+0x1b8>
#if (USE_HAL_UART_REGISTER_CALLBACKS == 1)
          /*Call registered error callback*/
          huart->ErrorCallback(huart);
#else
          /*Call legacy weak error callback*/
          HAL_UART_ErrorCallback(huart);
 8006246:	6878      	ldr	r0, [r7, #4]
 8006248:	f000 f8df 	bl	800640a <HAL_UART_ErrorCallback>
        if (HAL_IS_BIT_SET(huart->Instance->CR3, USART_CR3_DMAR))
 800624c:	e006      	b.n	800625c <HAL_UART_IRQHandler+0x1b8>
#if (USE_HAL_UART_REGISTER_CALLBACKS == 1)
        /*Call registered error callback*/
        huart->ErrorCallback(huart);
#else
        /*Call legacy weak error callback*/
        HAL_UART_ErrorCallback(huart);
 800624e:	6878      	ldr	r0, [r7, #4]
 8006250:	f000 f8db 	bl	800640a <HAL_UART_ErrorCallback>
#endif /* USE_HAL_UART_REGISTER_CALLBACKS */

        huart->ErrorCode = HAL_UART_ERROR_NONE;
 8006254:	687b      	ldr	r3, [r7, #4]
 8006256:	2200      	movs	r2, #0
 8006258:	641a      	str	r2, [r3, #64]	; 0x40
      }
    }
    return;
 800625a:	e0c3      	b.n	80063e4 <HAL_UART_IRQHandler+0x340>
        if (HAL_IS_BIT_SET(huart->Instance->CR3, USART_CR3_DMAR))
 800625c:	bf00      	nop
    return;
 800625e:	e0c1      	b.n	80063e4 <HAL_UART_IRQHandler+0x340>
  } /* End if some error occurs */

  /* Check current reception Mode :
     If Reception till IDLE event has been selected : */
  if (  (huart->ReceptionType == HAL_UART_RECEPTION_TOIDLE)
 8006260:	687b      	ldr	r3, [r7, #4]
 8006262:	6b1b      	ldr	r3, [r3, #48]	; 0x30
 8006264:	2b01      	cmp	r3, #1
 8006266:	f040 80a1 	bne.w	80063ac <HAL_UART_IRQHandler+0x308>
      &&((isrflags & USART_SR_IDLE) != 0U)
 800626a:	6a7b      	ldr	r3, [r7, #36]	; 0x24
 800626c:	f003 0310 	and.w	r3, r3, #16
 8006270:	2b00      	cmp	r3, #0
 8006272:	f000 809b 	beq.w	80063ac <HAL_UART_IRQHandler+0x308>
      &&((cr1its & USART_SR_IDLE) != 0U))
 8006276:	6a3b      	ldr	r3, [r7, #32]
 8006278:	f003 0310 	and.w	r3, r3, #16
 800627c:	2b00      	cmp	r3, #0
 800627e:	f000 8095 	beq.w	80063ac <HAL_UART_IRQHandler+0x308>
  {
    __HAL_UART_CLEAR_IDLEFLAG(huart);
 8006282:	2300      	movs	r3, #0
 8006284:	60fb      	str	r3, [r7, #12]
 8006286:	687b      	ldr	r3, [r7, #4]
 8006288:	681b      	ldr	r3, [r3, #0]
 800628a:	681b      	ldr	r3, [r3, #0]
 800628c:	60fb      	str	r3, [r7, #12]
 800628e:	687b      	ldr	r3, [r7, #4]
 8006290:	681b      	ldr	r3, [r3, #0]
 8006292:	685b      	ldr	r3, [r3, #4]
 8006294:	60fb      	str	r3, [r7, #12]
 8006296:	68fb      	ldr	r3, [r7, #12]

    /* Check if DMA mode is enabled in UART */
    if (HAL_IS_BIT_SET(huart->Instance->CR3, USART_CR3_DMAR))
 8006298:	687b      	ldr	r3, [r7, #4]
 800629a:	681b      	ldr	r3, [r3, #0]
 800629c:	695b      	ldr	r3, [r3, #20]
 800629e:	f003 0340 	and.w	r3, r3, #64	; 0x40
 80062a2:	2b00      	cmp	r3, #0
 80062a4:	d04e      	beq.n	8006344 <HAL_UART_IRQHandler+0x2a0>
    {
      /* DMA mode enabled */
      /* Check received length : If all expected data are received, do nothing,
         (DMA cplt callback will be called).
         Otherwise, if at least one data has already been received, IDLE event is to be notified to user */
      uint16_t nb_remaining_rx_data = (uint16_t) __HAL_DMA_GET_COUNTER(huart->hdmarx);
 80062a6:	687b      	ldr	r3, [r7, #4]
 80062a8:	6b9b      	ldr	r3, [r3, #56]	; 0x38
 80062aa:	681b      	ldr	r3, [r3, #0]
 80062ac:	685b      	ldr	r3, [r3, #4]
 80062ae:	823b      	strh	r3, [r7, #16]
      if (  (nb_remaining_rx_data > 0U)
 80062b0:	8a3b      	ldrh	r3, [r7, #16]
 80062b2:	2b00      	cmp	r3, #0
 80062b4:	f000 8098 	beq.w	80063e8 <HAL_UART_IRQHandler+0x344>
          &&(nb_remaining_rx_data < huart->RxXferSize))
 80062b8:	687b      	ldr	r3, [r7, #4]
 80062ba:	8d9b      	ldrh	r3, [r3, #44]	; 0x2c
 80062bc:	8a3a      	ldrh	r2, [r7, #16]
 80062be:	429a      	cmp	r2, r3
 80062c0:	f080 8092 	bcs.w	80063e8 <HAL_UART_IRQHandler+0x344>
      {
        /* Reception is not complete */
        huart->RxXferCount = nb_remaining_rx_data;
 80062c4:	687b      	ldr	r3, [r7, #4]
 80062c6:	8a3a      	ldrh	r2, [r7, #16]
 80062c8:	85da      	strh	r2, [r3, #46]	; 0x2e

        /* In Normal mode, end DMA xfer and HAL UART Rx process*/
        if (huart->hdmarx->Init.Mode != DMA_CIRCULAR)
 80062ca:	687b      	ldr	r3, [r7, #4]
 80062cc:	6b9b      	ldr	r3, [r3, #56]	; 0x38
 80062ce:	699b      	ldr	r3, [r3, #24]
 80062d0:	2b20      	cmp	r3, #32
 80062d2:	d02b      	beq.n	800632c <HAL_UART_IRQHandler+0x288>
        {
          /* Disable PE and ERR (Frame error, noise error, overrun error) interrupts */
          CLEAR_BIT(huart->Instance->CR1, USART_CR1_PEIE);
 80062d4:	687b      	ldr	r3, [r7, #4]
 80062d6:	681b      	ldr	r3, [r3, #0]
 80062d8:	68da      	ldr	r2, [r3, #12]
 80062da:	687b      	ldr	r3, [r7, #4]
 80062dc:	681b      	ldr	r3, [r3, #0]
 80062de:	f422 7280 	bic.w	r2, r2, #256	; 0x100
 80062e2:	60da      	str	r2, [r3, #12]
          CLEAR_BIT(huart->Instance->CR3, USART_CR3_EIE);
 80062e4:	687b      	ldr	r3, [r7, #4]
 80062e6:	681b      	ldr	r3, [r3, #0]
 80062e8:	695a      	ldr	r2, [r3, #20]
 80062ea:	687b      	ldr	r3, [r7, #4]
 80062ec:	681b      	ldr	r3, [r3, #0]
 80062ee:	f022 0201 	bic.w	r2, r2, #1
 80062f2:	615a      	str	r2, [r3, #20]

          /* Disable the DMA transfer for the receiver request by resetting the DMAR bit
             in the UART CR3 register */
          CLEAR_BIT(huart->Instance->CR3, USART_CR3_DMAR);
 80062f4:	687b      	ldr	r3, [r7, #4]
 80062f6:	681b      	ldr	r3, [r3, #0]
 80062f8:	695a      	ldr	r2, [r3, #20]
 80062fa:	687b      	ldr	r3, [r7, #4]
 80062fc:	681b      	ldr	r3, [r3, #0]
 80062fe:	f022 0240 	bic.w	r2, r2, #64	; 0x40
 8006302:	615a      	str	r2, [r3, #20]

          /* At end of Rx process, restore huart->RxState to Ready */
          huart->RxState = HAL_UART_STATE_READY;
 8006304:	687b      	ldr	r3, [r7, #4]
 8006306:	2220      	movs	r2, #32
 8006308:	f883 203e 	strb.w	r2, [r3, #62]	; 0x3e
          huart->ReceptionType = HAL_UART_RECEPTION_STANDARD;
 800630c:	687b      	ldr	r3, [r7, #4]
 800630e:	2200      	movs	r2, #0
 8006310:	631a      	str	r2, [r3, #48]	; 0x30

          CLEAR_BIT(huart->Instance->CR1, USART_CR1_IDLEIE);
 8006312:	687b      	ldr	r3, [r7, #4]
 8006314:	681b      	ldr	r3, [r3, #0]
 8006316:	68da      	ldr	r2, [r3, #12]
 8006318:	687b      	ldr	r3, [r7, #4]
 800631a:	681b      	ldr	r3, [r3, #0]
 800631c:	f022 0210 	bic.w	r2, r2, #16
 8006320:	60da      	str	r2, [r3, #12]

          /* Last bytes received, so no need as the abort is immediate */
          (void)HAL_DMA_Abort(huart->hdmarx);
 8006322:	687b      	ldr	r3, [r7, #4]
 8006324:	6b9b      	ldr	r3, [r3, #56]	; 0x38
 8006326:	4618      	mov	r0, r3
 8006328:	f7fe f8f3 	bl	8004512 <HAL_DMA_Abort>
#if (USE_HAL_UART_REGISTER_CALLBACKS == 1)
        /*Call registered Rx Event callback*/
        huart->RxEventCallback(huart, (huart->RxXferSize - huart->RxXferCount));
#else
        /*Call legacy weak Rx Event callback*/
        HAL_UARTEx_RxEventCallback(huart, (huart->RxXferSize - huart->RxXferCount));
 800632c:	687b      	ldr	r3, [r7, #4]
 800632e:	8d9a      	ldrh	r2, [r3, #44]	; 0x2c
 8006330:	687b      	ldr	r3, [r7, #4]
 8006332:	8ddb      	ldrh	r3, [r3, #46]	; 0x2e
 8006334:	b29b      	uxth	r3, r3
 8006336:	1ad3      	subs	r3, r2, r3
 8006338:	b29b      	uxth	r3, r3
 800633a:	4619      	mov	r1, r3
 800633c:	6878      	ldr	r0, [r7, #4]
 800633e:	f000 f86d 	bl	800641c <HAL_UARTEx_RxEventCallback>
#endif
      }
      return;
 8006342:	e051      	b.n	80063e8 <HAL_UART_IRQHandler+0x344>
    else
    {
      /* DMA mode not enabled */
      /* Check received length : If all expected data are received, do nothing.
         Otherwise, if at least one data has already been received, IDLE event is to be notified to user */
      uint16_t nb_rx_data = huart->RxXferSize - huart->RxXferCount;
 8006344:	687b      	ldr	r3, [r7, #4]
 8006346:	8d9a      	ldrh	r2, [r3, #44]	; 0x2c
 8006348:	687b      	ldr	r3, [r7, #4]
 800634a:	8ddb      	ldrh	r3, [r3, #46]	; 0x2e
 800634c:	b29b      	uxth	r3, r3
 800634e:	1ad3      	subs	r3, r2, r3
 8006350:	827b      	strh	r3, [r7, #18]
      if (  (huart->RxXferCount > 0U)
 8006352:	687b      	ldr	r3, [r7, #4]
 8006354:	8ddb      	ldrh	r3, [r3, #46]	; 0x2e
 8006356:	b29b      	uxth	r3, r3
 8006358:	2b00      	cmp	r3, #0
 800635a:	d047      	beq.n	80063ec <HAL_UART_IRQHandler+0x348>
          &&(nb_rx_data > 0U) )
 800635c:	8a7b      	ldrh	r3, [r7, #18]
 800635e:	2b00      	cmp	r3, #0
 8006360:	d044      	beq.n	80063ec <HAL_UART_IRQHandler+0x348>
      {
        /* Disable the UART Parity Error Interrupt and RXNE interrupts */
        CLEAR_BIT(huart->Instance->CR1, (USART_CR1_RXNEIE | USART_CR1_PEIE));
 8006362:	687b      	ldr	r3, [r7, #4]
 8006364:	681b      	ldr	r3, [r3, #0]
 8006366:	68da      	ldr	r2, [r3, #12]
 8006368:	687b      	ldr	r3, [r7, #4]
 800636a:	681b      	ldr	r3, [r3, #0]
 800636c:	f422 7290 	bic.w	r2, r2, #288	; 0x120
 8006370:	60da      	str	r2, [r3, #12]

        /* Disable the UART Error Interrupt: (Frame error, noise error, overrun error) */
        CLEAR_BIT(huart->Instance->CR3, USART_CR3_EIE);
 8006372:	687b      	ldr	r3, [r7, #4]
 8006374:	681b      	ldr	r3, [r3, #0]
 8006376:	695a      	ldr	r2, [r3, #20]
 8006378:	687b      	ldr	r3, [r7, #4]
 800637a:	681b      	ldr	r3, [r3, #0]
 800637c:	f022 0201 	bic.w	r2, r2, #1
 8006380:	615a      	str	r2, [r3, #20]

        /* Rx process is completed, restore huart->RxState to Ready */
        huart->RxState = HAL_UART_STATE_READY;
 8006382:	687b      	ldr	r3, [r7, #4]
 8006384:	2220      	movs	r2, #32
 8006386:	f883 203e 	strb.w	r2, [r3, #62]	; 0x3e
        huart->ReceptionType = HAL_UART_RECEPTION_STANDARD;
 800638a:	687b      	ldr	r3, [r7, #4]
 800638c:	2200      	movs	r2, #0
 800638e:	631a      	str	r2, [r3, #48]	; 0x30

        CLEAR_BIT(huart->Instance->CR1, USART_CR1_IDLEIE);
 8006390:	687b      	ldr	r3, [r7, #4]
 8006392:	681b      	ldr	r3, [r3, #0]
 8006394:	68da      	ldr	r2, [r3, #12]
 8006396:	687b      	ldr	r3, [r7, #4]
 8006398:	681b      	ldr	r3, [r3, #0]
 800639a:	f022 0210 	bic.w	r2, r2, #16
 800639e:	60da      	str	r2, [r3, #12]
#if (USE_HAL_UART_REGISTER_CALLBACKS == 1)
        /*Call registered Rx complete callback*/
        huart->RxEventCallback(huart, nb_rx_data);
#else
        /*Call legacy weak Rx Event callback*/
        HAL_UARTEx_RxEventCallback(huart, nb_rx_data);
 80063a0:	8a7b      	ldrh	r3, [r7, #18]
 80063a2:	4619      	mov	r1, r3
 80063a4:	6878      	ldr	r0, [r7, #4]
 80063a6:	f000 f839 	bl	800641c <HAL_UARTEx_RxEventCallback>
#endif
      }
      return;
 80063aa:	e01f      	b.n	80063ec <HAL_UART_IRQHandler+0x348>
    }
  }

  /* UART in mode Transmitter ------------------------------------------------*/
  if (((isrflags & USART_SR_TXE) != RESET) && ((cr1its & USART_CR1_TXEIE) != RESET))
 80063ac:	6a7b      	ldr	r3, [r7, #36]	; 0x24
 80063ae:	f003 0380 	and.w	r3, r3, #128	; 0x80
 80063b2:	2b00      	cmp	r3, #0
 80063b4:	d008      	beq.n	80063c8 <HAL_UART_IRQHandler+0x324>
 80063b6:	6a3b      	ldr	r3, [r7, #32]
 80063b8:	f003 0380 	and.w	r3, r3, #128	; 0x80
 80063bc:	2b00      	cmp	r3, #0
 80063be:	d003      	beq.n	80063c8 <HAL_UART_IRQHandler+0x324>
  {
    UART_Transmit_IT(huart);
 80063c0:	6878      	ldr	r0, [r7, #4]
 80063c2:	f000 f8f9 	bl	80065b8 <UART_Transmit_IT>
    return;
 80063c6:	e012      	b.n	80063ee <HAL_UART_IRQHandler+0x34a>
  }

  /* UART in mode Transmitter end --------------------------------------------*/
  if (((isrflags & USART_SR_TC) != RESET) && ((cr1its & USART_CR1_TCIE) != RESET))
 80063c8:	6a7b      	ldr	r3, [r7, #36]	; 0x24
 80063ca:	f003 0340 	and.w	r3, r3, #64	; 0x40
 80063ce:	2b00      	cmp	r3, #0
 80063d0:	d00d      	beq.n	80063ee <HAL_UART_IRQHandler+0x34a>
 80063d2:	6a3b      	ldr	r3, [r7, #32]
 80063d4:	f003 0340 	and.w	r3, r3, #64	; 0x40
 80063d8:	2b00      	cmp	r3, #0
 80063da:	d008      	beq.n	80063ee <HAL_UART_IRQHandler+0x34a>
  {
    UART_EndTransmit_IT(huart);
 80063dc:	6878      	ldr	r0, [r7, #4]
 80063de:	f000 f93a 	bl	8006656 <UART_EndTransmit_IT>
    return;
 80063e2:	e004      	b.n	80063ee <HAL_UART_IRQHandler+0x34a>
    return;
 80063e4:	bf00      	nop
 80063e6:	e002      	b.n	80063ee <HAL_UART_IRQHandler+0x34a>
      return;
 80063e8:	bf00      	nop
 80063ea:	e000      	b.n	80063ee <HAL_UART_IRQHandler+0x34a>
      return;
 80063ec:	bf00      	nop
  }
}
 80063ee:	3728      	adds	r7, #40	; 0x28
 80063f0:	46bd      	mov	sp, r7
 80063f2:	bd80      	pop	{r7, pc}
 80063f4:	08006591 	.word	0x08006591

080063f8 <HAL_UART_TxCpltCallback>:
  * @param  huart  Pointer to a UART_HandleTypeDef structure that contains
  *                the configuration information for the specified UART module.
  * @retval None
  */
__weak void HAL_UART_TxCpltCallback(UART_HandleTypeDef *huart)
{
 80063f8:	b480      	push	{r7}
 80063fa:	b083      	sub	sp, #12
 80063fc:	af00      	add	r7, sp, #0
 80063fe:	6078      	str	r0, [r7, #4]
  /* Prevent unused argument(s) compilation warning */
  UNUSED(huart);
  /* NOTE: This function should not be modified, when the callback is needed,
           the HAL_UART_TxCpltCallback could be implemented in the user file
   */
}
 8006400:	bf00      	nop
 8006402:	370c      	adds	r7, #12
 8006404:	46bd      	mov	sp, r7
 8006406:	bc80      	pop	{r7}
 8006408:	4770      	bx	lr

0800640a <HAL_UART_ErrorCallback>:
  * @param  huart  Pointer to a UART_HandleTypeDef structure that contains
  *                the configuration information for the specified UART module.
  * @retval None
  */
__weak void HAL_UART_ErrorCallback(UART_HandleTypeDef *huart)
{
 800640a:	b480      	push	{r7}
 800640c:	b083      	sub	sp, #12
 800640e:	af00      	add	r7, sp, #0
 8006410:	6078      	str	r0, [r7, #4]
  /* Prevent unused argument(s) compilation warning */
  UNUSED(huart);
  /* NOTE: This function should not be modified, when the callback is needed,
           the HAL_UART_ErrorCallback could be implemented in the user file
   */
}
 8006412:	bf00      	nop
 8006414:	370c      	adds	r7, #12
 8006416:	46bd      	mov	sp, r7
 8006418:	bc80      	pop	{r7}
 800641a:	4770      	bx	lr

0800641c <HAL_UARTEx_RxEventCallback>:
  * @param  Size  Number of data available in application reception buffer (indicates a position in
  *               reception buffer until which, data are available)
  * @retval None
  */
__weak void HAL_UARTEx_RxEventCallback(UART_HandleTypeDef *huart, uint16_t Size)
{
 800641c:	b480      	push	{r7}
 800641e:	b083      	sub	sp, #12
 8006420:	af00      	add	r7, sp, #0
 8006422:	6078      	str	r0, [r7, #4]
 8006424:	460b      	mov	r3, r1
 8006426:	807b      	strh	r3, [r7, #2]
  UNUSED(Size);

  /* NOTE : This function should not be modified, when the callback is needed,
            the HAL_UARTEx_RxEventCallback can be implemented in the user file.
   */
}
 8006428:	bf00      	nop
 800642a:	370c      	adds	r7, #12
 800642c:	46bd      	mov	sp, r7
 800642e:	bc80      	pop	{r7}
 8006430:	4770      	bx	lr

08006432 <UART_WaitOnFlagUntilTimeout>:
  * @param  Tickstart Tick start value
  * @param  Timeout Timeout duration
  * @retval HAL status
  */
static HAL_StatusTypeDef UART_WaitOnFlagUntilTimeout(UART_HandleTypeDef *huart, uint32_t Flag, FlagStatus Status, uint32_t Tickstart, uint32_t Timeout)
{
 8006432:	b580      	push	{r7, lr}
 8006434:	b084      	sub	sp, #16
 8006436:	af00      	add	r7, sp, #0
 8006438:	60f8      	str	r0, [r7, #12]
 800643a:	60b9      	str	r1, [r7, #8]
 800643c:	603b      	str	r3, [r7, #0]
 800643e:	4613      	mov	r3, r2
 8006440:	71fb      	strb	r3, [r7, #7]
  /* Wait until flag is set */
  while ((__HAL_UART_GET_FLAG(huart, Flag) ? SET : RESET) == Status)
 8006442:	e02c      	b.n	800649e <UART_WaitOnFlagUntilTimeout+0x6c>
  {
    /* Check for the Timeout */
    if (Timeout != HAL_MAX_DELAY)
 8006444:	69bb      	ldr	r3, [r7, #24]
 8006446:	f1b3 3fff 	cmp.w	r3, #4294967295
 800644a:	d028      	beq.n	800649e <UART_WaitOnFlagUntilTimeout+0x6c>
    {
      if ((Timeout == 0U) || ((HAL_GetTick() - Tickstart) > Timeout))
 800644c:	69bb      	ldr	r3, [r7, #24]
 800644e:	2b00      	cmp	r3, #0
 8006450:	d007      	beq.n	8006462 <UART_WaitOnFlagUntilTimeout+0x30>
 8006452:	f7fd f93f 	bl	80036d4 <HAL_GetTick>
 8006456:	4602      	mov	r2, r0
 8006458:	683b      	ldr	r3, [r7, #0]
 800645a:	1ad3      	subs	r3, r2, r3
 800645c:	69ba      	ldr	r2, [r7, #24]
 800645e:	429a      	cmp	r2, r3
 8006460:	d21d      	bcs.n	800649e <UART_WaitOnFlagUntilTimeout+0x6c>
      {
        /* Disable TXE, RXNE, PE and ERR (Frame error, noise error, overrun error) interrupts for the interrupt process */
        CLEAR_BIT(huart->Instance->CR1, (USART_CR1_RXNEIE | USART_CR1_PEIE | USART_CR1_TXEIE));
 8006462:	68fb      	ldr	r3, [r7, #12]
 8006464:	681b      	ldr	r3, [r3, #0]
 8006466:	68da      	ldr	r2, [r3, #12]
 8006468:	68fb      	ldr	r3, [r7, #12]
 800646a:	681b      	ldr	r3, [r3, #0]
 800646c:	f422 72d0 	bic.w	r2, r2, #416	; 0x1a0
 8006470:	60da      	str	r2, [r3, #12]
        CLEAR_BIT(huart->Instance->CR3, USART_CR3_EIE);
 8006472:	68fb      	ldr	r3, [r7, #12]
 8006474:	681b      	ldr	r3, [r3, #0]
 8006476:	695a      	ldr	r2, [r3, #20]
 8006478:	68fb      	ldr	r3, [r7, #12]
 800647a:	681b      	ldr	r3, [r3, #0]
 800647c:	f022 0201 	bic.w	r2, r2, #1
 8006480:	615a      	str	r2, [r3, #20]

        huart->gState  = HAL_UART_STATE_READY;
 8006482:	68fb      	ldr	r3, [r7, #12]
 8006484:	2220      	movs	r2, #32
 8006486:	f883 203d 	strb.w	r2, [r3, #61]	; 0x3d
        huart->RxState = HAL_UART_STATE_READY;
 800648a:	68fb      	ldr	r3, [r7, #12]
 800648c:	2220      	movs	r2, #32
 800648e:	f883 203e 	strb.w	r2, [r3, #62]	; 0x3e

        /* Process Unlocked */
        __HAL_UNLOCK(huart);
 8006492:	68fb      	ldr	r3, [r7, #12]
 8006494:	2200      	movs	r2, #0
 8006496:	f883 203c 	strb.w	r2, [r3, #60]	; 0x3c

        return HAL_TIMEOUT;
 800649a:	2303      	movs	r3, #3
 800649c:	e00f      	b.n	80064be <UART_WaitOnFlagUntilTimeout+0x8c>
  while ((__HAL_UART_GET_FLAG(huart, Flag) ? SET : RESET) == Status)
 800649e:	68fb      	ldr	r3, [r7, #12]
 80064a0:	681b      	ldr	r3, [r3, #0]
 80064a2:	681a      	ldr	r2, [r3, #0]
 80064a4:	68bb      	ldr	r3, [r7, #8]
 80064a6:	4013      	ands	r3, r2
 80064a8:	68ba      	ldr	r2, [r7, #8]
 80064aa:	429a      	cmp	r2, r3
 80064ac:	bf0c      	ite	eq
 80064ae:	2301      	moveq	r3, #1
 80064b0:	2300      	movne	r3, #0
 80064b2:	b2db      	uxtb	r3, r3
 80064b4:	461a      	mov	r2, r3
 80064b6:	79fb      	ldrb	r3, [r7, #7]
 80064b8:	429a      	cmp	r2, r3
 80064ba:	d0c3      	beq.n	8006444 <UART_WaitOnFlagUntilTimeout+0x12>
      }
    }
  }
  return HAL_OK;
 80064bc:	2300      	movs	r3, #0
}
 80064be:	4618      	mov	r0, r3
 80064c0:	3710      	adds	r7, #16
 80064c2:	46bd      	mov	sp, r7
 80064c4:	bd80      	pop	{r7, pc}

080064c6 <UART_Start_Receive_IT>:
  * @param  pData Pointer to data buffer (u8 or u16 data elements).
  * @param  Size  Amount of data elements (u8 or u16) to be received.
  * @retval HAL status
  */
HAL_StatusTypeDef UART_Start_Receive_IT(UART_HandleTypeDef *huart, uint8_t *pData, uint16_t Size)
{
 80064c6:	b480      	push	{r7}
 80064c8:	b085      	sub	sp, #20
 80064ca:	af00      	add	r7, sp, #0
 80064cc:	60f8      	str	r0, [r7, #12]
 80064ce:	60b9      	str	r1, [r7, #8]
 80064d0:	4613      	mov	r3, r2
 80064d2:	80fb      	strh	r3, [r7, #6]
  huart->pRxBuffPtr = pData;
 80064d4:	68fb      	ldr	r3, [r7, #12]
 80064d6:	68ba      	ldr	r2, [r7, #8]
 80064d8:	629a      	str	r2, [r3, #40]	; 0x28
  huart->RxXferSize = Size;
 80064da:	68fb      	ldr	r3, [r7, #12]
 80064dc:	88fa      	ldrh	r2, [r7, #6]
 80064de:	859a      	strh	r2, [r3, #44]	; 0x2c
  huart->RxXferCount = Size;
 80064e0:	68fb      	ldr	r3, [r7, #12]
 80064e2:	88fa      	ldrh	r2, [r7, #6]
 80064e4:	85da      	strh	r2, [r3, #46]	; 0x2e

  huart->ErrorCode = HAL_UART_ERROR_NONE;
 80064e6:	68fb      	ldr	r3, [r7, #12]
 80064e8:	2200      	movs	r2, #0
 80064ea:	641a      	str	r2, [r3, #64]	; 0x40
  huart->RxState = HAL_UART_STATE_BUSY_RX;
 80064ec:	68fb      	ldr	r3, [r7, #12]
 80064ee:	2222      	movs	r2, #34	; 0x22
 80064f0:	f883 203e 	strb.w	r2, [r3, #62]	; 0x3e

  /* Process Unlocked */
  __HAL_UNLOCK(huart);
 80064f4:	68fb      	ldr	r3, [r7, #12]
 80064f6:	2200      	movs	r2, #0
 80064f8:	f883 203c 	strb.w	r2, [r3, #60]	; 0x3c

  /* Enable the UART Parity Error Interrupt */
  __HAL_UART_ENABLE_IT(huart, UART_IT_PE);
 80064fc:	68fb      	ldr	r3, [r7, #12]
 80064fe:	681b      	ldr	r3, [r3, #0]
 8006500:	68da      	ldr	r2, [r3, #12]
 8006502:	68fb      	ldr	r3, [r7, #12]
 8006504:	681b      	ldr	r3, [r3, #0]
 8006506:	f442 7280 	orr.w	r2, r2, #256	; 0x100
 800650a:	60da      	str	r2, [r3, #12]

  /* Enable the UART Error Interrupt: (Frame error, noise error, overrun error) */
  __HAL_UART_ENABLE_IT(huart, UART_IT_ERR);
 800650c:	68fb      	ldr	r3, [r7, #12]
 800650e:	681b      	ldr	r3, [r3, #0]
 8006510:	695a      	ldr	r2, [r3, #20]
 8006512:	68fb      	ldr	r3, [r7, #12]
 8006514:	681b      	ldr	r3, [r3, #0]
 8006516:	f042 0201 	orr.w	r2, r2, #1
 800651a:	615a      	str	r2, [r3, #20]

  /* Enable the UART Data Register not empty Interrupt */
  __HAL_UART_ENABLE_IT(huart, UART_IT_RXNE);
 800651c:	68fb      	ldr	r3, [r7, #12]
 800651e:	681b      	ldr	r3, [r3, #0]
 8006520:	68da      	ldr	r2, [r3, #12]
 8006522:	68fb      	ldr	r3, [r7, #12]
 8006524:	681b      	ldr	r3, [r3, #0]
 8006526:	f042 0220 	orr.w	r2, r2, #32
 800652a:	60da      	str	r2, [r3, #12]

  return HAL_OK;
 800652c:	2300      	movs	r3, #0
}
 800652e:	4618      	mov	r0, r3
 8006530:	3714      	adds	r7, #20
 8006532:	46bd      	mov	sp, r7
 8006534:	bc80      	pop	{r7}
 8006536:	4770      	bx	lr

08006538 <UART_EndRxTransfer>:
  * @brief  End ongoing Rx transfer on UART peripheral (following error detection or Reception completion).
  * @param  huart UART handle.
  * @retval None
  */
static void UART_EndRxTransfer(UART_HandleTypeDef *huart)
{
 8006538:	b480      	push	{r7}
 800653a:	b083      	sub	sp, #12
 800653c:	af00      	add	r7, sp, #0
 800653e:	6078      	str	r0, [r7, #4]
  /* Disable RXNE, PE and ERR (Frame error, noise error, overrun error) interrupts */
  CLEAR_BIT(huart->Instance->CR1, (USART_CR1_RXNEIE | USART_CR1_PEIE));
 8006540:	687b      	ldr	r3, [r7, #4]
 8006542:	681b      	ldr	r3, [r3, #0]
 8006544:	68da      	ldr	r2, [r3, #12]
 8006546:	687b      	ldr	r3, [r7, #4]
 8006548:	681b      	ldr	r3, [r3, #0]
 800654a:	f422 7290 	bic.w	r2, r2, #288	; 0x120
 800654e:	60da      	str	r2, [r3, #12]
  CLEAR_BIT(huart->Instance->CR3, USART_CR3_EIE);
 8006550:	687b      	ldr	r3, [r7, #4]
 8006552:	681b      	ldr	r3, [r3, #0]
 8006554:	695a      	ldr	r2, [r3, #20]
 8006556:	687b      	ldr	r3, [r7, #4]
 8006558:	681b      	ldr	r3, [r3, #0]
 800655a:	f022 0201 	bic.w	r2, r2, #1
 800655e:	615a      	str	r2, [r3, #20]

  /* In case of reception waiting for IDLE event, disable also the IDLE IE interrupt source */
  if (huart->ReceptionType == HAL_UART_RECEPTION_TOIDLE)
 8006560:	687b      	ldr	r3, [r7, #4]
 8006562:	6b1b      	ldr	r3, [r3, #48]	; 0x30
 8006564:	2b01      	cmp	r3, #1
 8006566:	d107      	bne.n	8006578 <UART_EndRxTransfer+0x40>
  {
    CLEAR_BIT(huart->Instance->CR1, USART_CR1_IDLEIE);
 8006568:	687b      	ldr	r3, [r7, #4]
 800656a:	681b      	ldr	r3, [r3, #0]
 800656c:	68da      	ldr	r2, [r3, #12]
 800656e:	687b      	ldr	r3, [r7, #4]
 8006570:	681b      	ldr	r3, [r3, #0]
 8006572:	f022 0210 	bic.w	r2, r2, #16
 8006576:	60da      	str	r2, [r3, #12]
  }

  /* At end of Rx process, restore huart->RxState to Ready */
  huart->RxState = HAL_UART_STATE_READY;
 8006578:	687b      	ldr	r3, [r7, #4]
 800657a:	2220      	movs	r2, #32
 800657c:	f883 203e 	strb.w	r2, [r3, #62]	; 0x3e
  huart->ReceptionType = HAL_UART_RECEPTION_STANDARD;
 8006580:	687b      	ldr	r3, [r7, #4]
 8006582:	2200      	movs	r2, #0
 8006584:	631a      	str	r2, [r3, #48]	; 0x30
}
 8006586:	bf00      	nop
 8006588:	370c      	adds	r7, #12
 800658a:	46bd      	mov	sp, r7
 800658c:	bc80      	pop	{r7}
 800658e:	4770      	bx	lr

08006590 <UART_DMAAbortOnError>:
  * @param  hdma  Pointer to a DMA_HandleTypeDef structure that contains
  *               the configuration information for the specified DMA module.
  * @retval None
  */
static void UART_DMAAbortOnError(DMA_HandleTypeDef *hdma)
{
 8006590:	b580      	push	{r7, lr}
 8006592:	b084      	sub	sp, #16
 8006594:	af00      	add	r7, sp, #0
 8006596:	6078      	str	r0, [r7, #4]
  UART_HandleTypeDef *huart = (UART_HandleTypeDef *)((DMA_HandleTypeDef *)hdma)->Parent;
 8006598:	687b      	ldr	r3, [r7, #4]
 800659a:	6a5b      	ldr	r3, [r3, #36]	; 0x24
 800659c:	60fb      	str	r3, [r7, #12]
  huart->RxXferCount = 0x00U;
 800659e:	68fb      	ldr	r3, [r7, #12]
 80065a0:	2200      	movs	r2, #0
 80065a2:	85da      	strh	r2, [r3, #46]	; 0x2e
  huart->TxXferCount = 0x00U;
 80065a4:	68fb      	ldr	r3, [r7, #12]
 80065a6:	2200      	movs	r2, #0
 80065a8:	84da      	strh	r2, [r3, #38]	; 0x26
#if (USE_HAL_UART_REGISTER_CALLBACKS == 1)
  /*Call registered error callback*/
  huart->ErrorCallback(huart);
#else
  /*Call legacy weak error callback*/
  HAL_UART_ErrorCallback(huart);
 80065aa:	68f8      	ldr	r0, [r7, #12]
 80065ac:	f7ff ff2d 	bl	800640a <HAL_UART_ErrorCallback>
#endif /* USE_HAL_UART_REGISTER_CALLBACKS */
}
 80065b0:	bf00      	nop
 80065b2:	3710      	adds	r7, #16
 80065b4:	46bd      	mov	sp, r7
 80065b6:	bd80      	pop	{r7, pc}

080065b8 <UART_Transmit_IT>:
  * @param  huart  Pointer to a UART_HandleTypeDef structure that contains
  *                the configuration information for the specified UART module.
  * @retval HAL status
  */
static HAL_StatusTypeDef UART_Transmit_IT(UART_HandleTypeDef *huart)
{
 80065b8:	b480      	push	{r7}
 80065ba:	b085      	sub	sp, #20
 80065bc:	af00      	add	r7, sp, #0
 80065be:	6078      	str	r0, [r7, #4]
  uint16_t *tmp;

  /* Check that a Tx process is ongoing */
  if (huart->gState == HAL_UART_STATE_BUSY_TX)
 80065c0:	687b      	ldr	r3, [r7, #4]
 80065c2:	f893 303d 	ldrb.w	r3, [r3, #61]	; 0x3d
 80065c6:	b2db      	uxtb	r3, r3
 80065c8:	2b21      	cmp	r3, #33	; 0x21
 80065ca:	d13e      	bne.n	800664a <UART_Transmit_IT+0x92>
  {
    if ((huart->Init.WordLength == UART_WORDLENGTH_9B) && (huart->Init.Parity == UART_PARITY_NONE))
 80065cc:	687b      	ldr	r3, [r7, #4]
 80065ce:	689b      	ldr	r3, [r3, #8]
 80065d0:	f5b3 5f80 	cmp.w	r3, #4096	; 0x1000
 80065d4:	d114      	bne.n	8006600 <UART_Transmit_IT+0x48>
 80065d6:	687b      	ldr	r3, [r7, #4]
 80065d8:	691b      	ldr	r3, [r3, #16]
 80065da:	2b00      	cmp	r3, #0
 80065dc:	d110      	bne.n	8006600 <UART_Transmit_IT+0x48>
    {
      tmp = (uint16_t *) huart->pTxBuffPtr;
 80065de:	687b      	ldr	r3, [r7, #4]
 80065e0:	6a1b      	ldr	r3, [r3, #32]
 80065e2:	60fb      	str	r3, [r7, #12]
      huart->Instance->DR = (uint16_t)(*tmp & (uint16_t)0x01FF);
 80065e4:	68fb      	ldr	r3, [r7, #12]
 80065e6:	881b      	ldrh	r3, [r3, #0]
 80065e8:	461a      	mov	r2, r3
 80065ea:	687b      	ldr	r3, [r7, #4]
 80065ec:	681b      	ldr	r3, [r3, #0]
 80065ee:	f3c2 0208 	ubfx	r2, r2, #0, #9
 80065f2:	605a      	str	r2, [r3, #4]
      huart->pTxBuffPtr += 2U;
 80065f4:	687b      	ldr	r3, [r7, #4]
 80065f6:	6a1b      	ldr	r3, [r3, #32]
 80065f8:	1c9a      	adds	r2, r3, #2
 80065fa:	687b      	ldr	r3, [r7, #4]
 80065fc:	621a      	str	r2, [r3, #32]
 80065fe:	e008      	b.n	8006612 <UART_Transmit_IT+0x5a>
    }
    else
    {
      huart->Instance->DR = (uint8_t)(*huart->pTxBuffPtr++ & (uint8_t)0x00FF);
 8006600:	687b      	ldr	r3, [r7, #4]
 8006602:	6a1b      	ldr	r3, [r3, #32]
 8006604:	1c59      	adds	r1, r3, #1
 8006606:	687a      	ldr	r2, [r7, #4]
 8006608:	6211      	str	r1, [r2, #32]
 800660a:	781a      	ldrb	r2, [r3, #0]
 800660c:	687b      	ldr	r3, [r7, #4]
 800660e:	681b      	ldr	r3, [r3, #0]
 8006610:	605a      	str	r2, [r3, #4]
    }

    if (--huart->TxXferCount == 0U)
 8006612:	687b      	ldr	r3, [r7, #4]
 8006614:	8cdb      	ldrh	r3, [r3, #38]	; 0x26
 8006616:	b29b      	uxth	r3, r3
 8006618:	3b01      	subs	r3, #1
 800661a:	b29b      	uxth	r3, r3
 800661c:	687a      	ldr	r2, [r7, #4]
 800661e:	4619      	mov	r1, r3
 8006620:	84d1      	strh	r1, [r2, #38]	; 0x26
 8006622:	2b00      	cmp	r3, #0
 8006624:	d10f      	bne.n	8006646 <UART_Transmit_IT+0x8e>
    {
      /* Disable the UART Transmit Complete Interrupt */
      __HAL_UART_DISABLE_IT(huart, UART_IT_TXE);
 8006626:	687b      	ldr	r3, [r7, #4]
 8006628:	681b      	ldr	r3, [r3, #0]
 800662a:	68da      	ldr	r2, [r3, #12]
 800662c:	687b      	ldr	r3, [r7, #4]
 800662e:	681b      	ldr	r3, [r3, #0]
 8006630:	f022 0280 	bic.w	r2, r2, #128	; 0x80
 8006634:	60da      	str	r2, [r3, #12]

      /* Enable the UART Transmit Complete Interrupt */
      __HAL_UART_ENABLE_IT(huart, UART_IT_TC);
 8006636:	687b      	ldr	r3, [r7, #4]
 8006638:	681b      	ldr	r3, [r3, #0]
 800663a:	68da      	ldr	r2, [r3, #12]
 800663c:	687b      	ldr	r3, [r7, #4]
 800663e:	681b      	ldr	r3, [r3, #0]
 8006640:	f042 0240 	orr.w	r2, r2, #64	; 0x40
 8006644:	60da      	str	r2, [r3, #12]
    }
    return HAL_OK;
 8006646:	2300      	movs	r3, #0
 8006648:	e000      	b.n	800664c <UART_Transmit_IT+0x94>
  }
  else
  {
    return HAL_BUSY;
 800664a:	2302      	movs	r3, #2
  }
}
 800664c:	4618      	mov	r0, r3
 800664e:	3714      	adds	r7, #20
 8006650:	46bd      	mov	sp, r7
 8006652:	bc80      	pop	{r7}
 8006654:	4770      	bx	lr

08006656 <UART_EndTransmit_IT>:
  * @param  huart  Pointer to a UART_HandleTypeDef structure that contains
  *                the configuration information for the specified UART module.
  * @retval HAL status
  */
static HAL_StatusTypeDef UART_EndTransmit_IT(UART_HandleTypeDef *huart)
{
 8006656:	b580      	push	{r7, lr}
 8006658:	b082      	sub	sp, #8
 800665a:	af00      	add	r7, sp, #0
 800665c:	6078      	str	r0, [r7, #4]
  /* Disable the UART Transmit Complete Interrupt */
  __HAL_UART_DISABLE_IT(huart, UART_IT_TC);
 800665e:	687b      	ldr	r3, [r7, #4]
 8006660:	681b      	ldr	r3, [r3, #0]
 8006662:	68da      	ldr	r2, [r3, #12]
 8006664:	687b      	ldr	r3, [r7, #4]
 8006666:	681b      	ldr	r3, [r3, #0]
 8006668:	f022 0240 	bic.w	r2, r2, #64	; 0x40
 800666c:	60da      	str	r2, [r3, #12]

  /* Tx process is ended, restore huart->gState to Ready */
  huart->gState = HAL_UART_STATE_READY;
 800666e:	687b      	ldr	r3, [r7, #4]
 8006670:	2220      	movs	r2, #32
 8006672:	f883 203d 	strb.w	r2, [r3, #61]	; 0x3d
#if (USE_HAL_UART_REGISTER_CALLBACKS == 1)
  /*Call registered Tx complete callback*/
  huart->TxCpltCallback(huart);
#else
  /*Call legacy weak Tx complete callback*/
  HAL_UART_TxCpltCallback(huart);
 8006676:	6878      	ldr	r0, [r7, #4]
 8006678:	f7ff febe 	bl	80063f8 <HAL_UART_TxCpltCallback>
#endif /* USE_HAL_UART_REGISTER_CALLBACKS */

  return HAL_OK;
 800667c:	2300      	movs	r3, #0
}
 800667e:	4618      	mov	r0, r3
 8006680:	3708      	adds	r7, #8
 8006682:	46bd      	mov	sp, r7
 8006684:	bd80      	pop	{r7, pc}

08006686 <UART_Receive_IT>:
  * @param  huart  Pointer to a UART_HandleTypeDef structure that contains
  *                the configuration information for the specified UART module.
  * @retval HAL status
  */
static HAL_StatusTypeDef UART_Receive_IT(UART_HandleTypeDef *huart)
{
 8006686:	b580      	push	{r7, lr}
 8006688:	b086      	sub	sp, #24
 800668a:	af00      	add	r7, sp, #0
 800668c:	6078      	str	r0, [r7, #4]
  uint8_t  *pdata8bits;
  uint16_t *pdata16bits;

  /* Check that a Rx process is ongoing */
  if (huart->RxState == HAL_UART_STATE_BUSY_RX)
 800668e:	687b      	ldr	r3, [r7, #4]
 8006690:	f893 303e 	ldrb.w	r3, [r3, #62]	; 0x3e
 8006694:	b2db      	uxtb	r3, r3
 8006696:	2b22      	cmp	r3, #34	; 0x22
 8006698:	f040 8099 	bne.w	80067ce <UART_Receive_IT+0x148>
  {
    if ((huart->Init.WordLength == UART_WORDLENGTH_9B) && (huart->Init.Parity == UART_PARITY_NONE))
 800669c:	687b      	ldr	r3, [r7, #4]
 800669e:	689b      	ldr	r3, [r3, #8]
 80066a0:	f5b3 5f80 	cmp.w	r3, #4096	; 0x1000
 80066a4:	d117      	bne.n	80066d6 <UART_Receive_IT+0x50>
 80066a6:	687b      	ldr	r3, [r7, #4]
 80066a8:	691b      	ldr	r3, [r3, #16]
 80066aa:	2b00      	cmp	r3, #0
 80066ac:	d113      	bne.n	80066d6 <UART_Receive_IT+0x50>
    {
      pdata8bits  = NULL;
 80066ae:	2300      	movs	r3, #0
 80066b0:	617b      	str	r3, [r7, #20]
      pdata16bits = (uint16_t *) huart->pRxBuffPtr;
 80066b2:	687b      	ldr	r3, [r7, #4]
 80066b4:	6a9b      	ldr	r3, [r3, #40]	; 0x28
 80066b6:	613b      	str	r3, [r7, #16]
      *pdata16bits = (uint16_t)(huart->Instance->DR & (uint16_t)0x01FF);
 80066b8:	687b      	ldr	r3, [r7, #4]
 80066ba:	681b      	ldr	r3, [r3, #0]
 80066bc:	685b      	ldr	r3, [r3, #4]
 80066be:	b29b      	uxth	r3, r3
 80066c0:	f3c3 0308 	ubfx	r3, r3, #0, #9
 80066c4:	b29a      	uxth	r2, r3
 80066c6:	693b      	ldr	r3, [r7, #16]
 80066c8:	801a      	strh	r2, [r3, #0]
      huart->pRxBuffPtr += 2U;
 80066ca:	687b      	ldr	r3, [r7, #4]
 80066cc:	6a9b      	ldr	r3, [r3, #40]	; 0x28
 80066ce:	1c9a      	adds	r2, r3, #2
 80066d0:	687b      	ldr	r3, [r7, #4]
 80066d2:	629a      	str	r2, [r3, #40]	; 0x28
 80066d4:	e026      	b.n	8006724 <UART_Receive_IT+0x9e>
    }
    else
    {
      pdata8bits = (uint8_t *) huart->pRxBuffPtr;
 80066d6:	687b      	ldr	r3, [r7, #4]
 80066d8:	6a9b      	ldr	r3, [r3, #40]	; 0x28
 80066da:	617b      	str	r3, [r7, #20]
      pdata16bits  = NULL;
 80066dc:	2300      	movs	r3, #0
 80066de:	613b      	str	r3, [r7, #16]

      if ((huart->Init.WordLength == UART_WORDLENGTH_9B) || ((huart->Init.WordLength == UART_WORDLENGTH_8B) && (huart->Init.Parity == UART_PARITY_NONE)))
 80066e0:	687b      	ldr	r3, [r7, #4]
 80066e2:	689b      	ldr	r3, [r3, #8]
 80066e4:	f5b3 5f80 	cmp.w	r3, #4096	; 0x1000
 80066e8:	d007      	beq.n	80066fa <UART_Receive_IT+0x74>
 80066ea:	687b      	ldr	r3, [r7, #4]
 80066ec:	689b      	ldr	r3, [r3, #8]
 80066ee:	2b00      	cmp	r3, #0
 80066f0:	d10a      	bne.n	8006708 <UART_Receive_IT+0x82>
 80066f2:	687b      	ldr	r3, [r7, #4]
 80066f4:	691b      	ldr	r3, [r3, #16]
 80066f6:	2b00      	cmp	r3, #0
 80066f8:	d106      	bne.n	8006708 <UART_Receive_IT+0x82>
      {
        *pdata8bits = (uint8_t)(huart->Instance->DR & (uint8_t)0x00FF);
 80066fa:	687b      	ldr	r3, [r7, #4]
 80066fc:	681b      	ldr	r3, [r3, #0]
 80066fe:	685b      	ldr	r3, [r3, #4]
 8006700:	b2da      	uxtb	r2, r3
 8006702:	697b      	ldr	r3, [r7, #20]
 8006704:	701a      	strb	r2, [r3, #0]
 8006706:	e008      	b.n	800671a <UART_Receive_IT+0x94>
      }
      else
      {
        *pdata8bits = (uint8_t)(huart->Instance->DR & (uint8_t)0x007F);
 8006708:	687b      	ldr	r3, [r7, #4]
 800670a:	681b      	ldr	r3, [r3, #0]
 800670c:	685b      	ldr	r3, [r3, #4]
 800670e:	b2db      	uxtb	r3, r3
 8006710:	f003 037f 	and.w	r3, r3, #127	; 0x7f
 8006714:	b2da      	uxtb	r2, r3
 8006716:	697b      	ldr	r3, [r7, #20]
 8006718:	701a      	strb	r2, [r3, #0]
      }
      huart->pRxBuffPtr += 1U;
 800671a:	687b      	ldr	r3, [r7, #4]
 800671c:	6a9b      	ldr	r3, [r3, #40]	; 0x28
 800671e:	1c5a      	adds	r2, r3, #1
 8006720:	687b      	ldr	r3, [r7, #4]
 8006722:	629a      	str	r2, [r3, #40]	; 0x28
    }

    if (--huart->RxXferCount == 0U)
 8006724:	687b      	ldr	r3, [r7, #4]
 8006726:	8ddb      	ldrh	r3, [r3, #46]	; 0x2e
 8006728:	b29b      	uxth	r3, r3
 800672a:	3b01      	subs	r3, #1
 800672c:	b29b      	uxth	r3, r3
 800672e:	687a      	ldr	r2, [r7, #4]
 8006730:	4619      	mov	r1, r3
 8006732:	85d1      	strh	r1, [r2, #46]	; 0x2e
 8006734:	2b00      	cmp	r3, #0
 8006736:	d148      	bne.n	80067ca <UART_Receive_IT+0x144>
    {
      /* Disable the UART Data Register not empty Interrupt */
      __HAL_UART_DISABLE_IT(huart, UART_IT_RXNE);
 8006738:	687b      	ldr	r3, [r7, #4]
 800673a:	681b      	ldr	r3, [r3, #0]
 800673c:	68da      	ldr	r2, [r3, #12]
 800673e:	687b      	ldr	r3, [r7, #4]
 8006740:	681b      	ldr	r3, [r3, #0]
 8006742:	f022 0220 	bic.w	r2, r2, #32
 8006746:	60da      	str	r2, [r3, #12]

      /* Disable the UART Parity Error Interrupt */
      __HAL_UART_DISABLE_IT(huart, UART_IT_PE);
 8006748:	687b      	ldr	r3, [r7, #4]
 800674a:	681b      	ldr	r3, [r3, #0]
 800674c:	68da      	ldr	r2, [r3, #12]
 800674e:	687b      	ldr	r3, [r7, #4]
 8006750:	681b      	ldr	r3, [r3, #0]
 8006752:	f422 7280 	bic.w	r2, r2, #256	; 0x100
 8006756:	60da      	str	r2, [r3, #12]

      /* Disable the UART Error Interrupt: (Frame error, noise error, overrun error) */
      __HAL_UART_DISABLE_IT(huart, UART_IT_ERR);
 8006758:	687b      	ldr	r3, [r7, #4]
 800675a:	681b      	ldr	r3, [r3, #0]
 800675c:	695a      	ldr	r2, [r3, #20]
 800675e:	687b      	ldr	r3, [r7, #4]
 8006760:	681b      	ldr	r3, [r3, #0]
 8006762:	f022 0201 	bic.w	r2, r2, #1
 8006766:	615a      	str	r2, [r3, #20]

      /* Rx process is completed, restore huart->RxState to Ready */
      huart->RxState = HAL_UART_STATE_READY;
 8006768:	687b      	ldr	r3, [r7, #4]
 800676a:	2220      	movs	r2, #32
 800676c:	f883 203e 	strb.w	r2, [r3, #62]	; 0x3e

      /* Check current reception Mode :
         If Reception till IDLE event has been selected : */
      if (huart->ReceptionType == HAL_UART_RECEPTION_TOIDLE)
 8006770:	687b      	ldr	r3, [r7, #4]
 8006772:	6b1b      	ldr	r3, [r3, #48]	; 0x30
 8006774:	2b01      	cmp	r3, #1
 8006776:	d123      	bne.n	80067c0 <UART_Receive_IT+0x13a>
      {
        /* Set reception type to Standard */
        huart->ReceptionType = HAL_UART_RECEPTION_STANDARD;
 8006778:	687b      	ldr	r3, [r7, #4]
 800677a:	2200      	movs	r2, #0
 800677c:	631a      	str	r2, [r3, #48]	; 0x30

        /* Disable IDLE interrupt */
        CLEAR_BIT(huart->Instance->CR1, USART_CR1_IDLEIE);
 800677e:	687b      	ldr	r3, [r7, #4]
 8006780:	681b      	ldr	r3, [r3, #0]
 8006782:	68da      	ldr	r2, [r3, #12]
 8006784:	687b      	ldr	r3, [r7, #4]
 8006786:	681b      	ldr	r3, [r3, #0]
 8006788:	f022 0210 	bic.w	r2, r2, #16
 800678c:	60da      	str	r2, [r3, #12]

        /* Check if IDLE flag is set */
        if (__HAL_UART_GET_FLAG(huart, UART_FLAG_IDLE))
 800678e:	687b      	ldr	r3, [r7, #4]
 8006790:	681b      	ldr	r3, [r3, #0]
 8006792:	681b      	ldr	r3, [r3, #0]
 8006794:	f003 0310 	and.w	r3, r3, #16
 8006798:	2b10      	cmp	r3, #16
 800679a:	d10a      	bne.n	80067b2 <UART_Receive_IT+0x12c>
        {
          /* Clear IDLE flag in ISR */
          __HAL_UART_CLEAR_IDLEFLAG(huart);
 800679c:	2300      	movs	r3, #0
 800679e:	60fb      	str	r3, [r7, #12]
 80067a0:	687b      	ldr	r3, [r7, #4]
 80067a2:	681b      	ldr	r3, [r3, #0]
 80067a4:	681b      	ldr	r3, [r3, #0]
 80067a6:	60fb      	str	r3, [r7, #12]
 80067a8:	687b      	ldr	r3, [r7, #4]
 80067aa:	681b      	ldr	r3, [r3, #0]
 80067ac:	685b      	ldr	r3, [r3, #4]
 80067ae:	60fb      	str	r3, [r7, #12]
 80067b0:	68fb      	ldr	r3, [r7, #12]
#if (USE_HAL_UART_REGISTER_CALLBACKS == 1)
        /*Call registered Rx Event callback*/
        huart->RxEventCallback(huart, huart->RxXferSize);
#else
        /*Call legacy weak Rx Event callback*/
        HAL_UARTEx_RxEventCallback(huart, huart->RxXferSize);
 80067b2:	687b      	ldr	r3, [r7, #4]
 80067b4:	8d9b      	ldrh	r3, [r3, #44]	; 0x2c
 80067b6:	4619      	mov	r1, r3
 80067b8:	6878      	ldr	r0, [r7, #4]
 80067ba:	f7ff fe2f 	bl	800641c <HAL_UARTEx_RxEventCallback>
 80067be:	e002      	b.n	80067c6 <UART_Receive_IT+0x140>
#if (USE_HAL_UART_REGISTER_CALLBACKS == 1)		  
       /*Call registered Rx complete callback*/
       huart->RxCpltCallback(huart);
#else
       /*Call legacy weak Rx complete callback*/
       HAL_UART_RxCpltCallback(huart);
 80067c0:	6878      	ldr	r0, [r7, #4]
 80067c2:	f7fa fa15 	bl	8000bf0 <HAL_UART_RxCpltCallback>
#endif /* USE_HAL_UART_REGISTER_CALLBACKS */
      }

      return HAL_OK;
 80067c6:	2300      	movs	r3, #0
 80067c8:	e002      	b.n	80067d0 <UART_Receive_IT+0x14a>
    }
    return HAL_OK;
 80067ca:	2300      	movs	r3, #0
 80067cc:	e000      	b.n	80067d0 <UART_Receive_IT+0x14a>
  }
  else
  {
    return HAL_BUSY;
 80067ce:	2302      	movs	r3, #2
  }
}
 80067d0:	4618      	mov	r0, r3
 80067d2:	3718      	adds	r7, #24
 80067d4:	46bd      	mov	sp, r7
 80067d6:	bd80      	pop	{r7, pc}

080067d8 <UART_SetConfig>:
  * @param  huart  Pointer to a UART_HandleTypeDef structure that contains
  *                the configuration information for the specified UART module.
  * @retval None
  */
static void UART_SetConfig(UART_HandleTypeDef *huart)
{
 80067d8:	b580      	push	{r7, lr}
 80067da:	b084      	sub	sp, #16
 80067dc:	af00      	add	r7, sp, #0
 80067de:	6078      	str	r0, [r7, #4]
  assert_param(IS_UART_MODE(huart->Init.Mode));

  /*-------------------------- USART CR2 Configuration -----------------------*/
  /* Configure the UART Stop Bits: Set STOP[13:12] bits
     according to huart->Init.StopBits value */
  MODIFY_REG(huart->Instance->CR2, USART_CR2_STOP, huart->Init.StopBits);
 80067e0:	687b      	ldr	r3, [r7, #4]
 80067e2:	681b      	ldr	r3, [r3, #0]
 80067e4:	691b      	ldr	r3, [r3, #16]
 80067e6:	f423 5140 	bic.w	r1, r3, #12288	; 0x3000
 80067ea:	687b      	ldr	r3, [r7, #4]
 80067ec:	68da      	ldr	r2, [r3, #12]
 80067ee:	687b      	ldr	r3, [r7, #4]
 80067f0:	681b      	ldr	r3, [r3, #0]
 80067f2:	430a      	orrs	r2, r1
 80067f4:	611a      	str	r2, [r3, #16]
  tmpreg = (uint32_t)huart->Init.WordLength | huart->Init.Parity | huart->Init.Mode | huart->Init.OverSampling;
  MODIFY_REG(huart->Instance->CR1,
             (uint32_t)(USART_CR1_M | USART_CR1_PCE | USART_CR1_PS | USART_CR1_TE | USART_CR1_RE | USART_CR1_OVER8),
             tmpreg);
#else
  tmpreg = (uint32_t)huart->Init.WordLength | huart->Init.Parity | huart->Init.Mode;
 80067f6:	687b      	ldr	r3, [r7, #4]
 80067f8:	689a      	ldr	r2, [r3, #8]
 80067fa:	687b      	ldr	r3, [r7, #4]
 80067fc:	691b      	ldr	r3, [r3, #16]
 80067fe:	431a      	orrs	r2, r3
 8006800:	687b      	ldr	r3, [r7, #4]
 8006802:	695b      	ldr	r3, [r3, #20]
 8006804:	4313      	orrs	r3, r2
 8006806:	60bb      	str	r3, [r7, #8]
  MODIFY_REG(huart->Instance->CR1,
 8006808:	687b      	ldr	r3, [r7, #4]
 800680a:	681b      	ldr	r3, [r3, #0]
 800680c:	68db      	ldr	r3, [r3, #12]
 800680e:	f423 53b0 	bic.w	r3, r3, #5632	; 0x1600
 8006812:	f023 030c 	bic.w	r3, r3, #12
 8006816:	687a      	ldr	r2, [r7, #4]
 8006818:	6812      	ldr	r2, [r2, #0]
 800681a:	68b9      	ldr	r1, [r7, #8]
 800681c:	430b      	orrs	r3, r1
 800681e:	60d3      	str	r3, [r2, #12]
             tmpreg);
#endif /* USART_CR1_OVER8 */

  /*-------------------------- USART CR3 Configuration -----------------------*/
  /* Configure the UART HFC: Set CTSE and RTSE bits according to huart->Init.HwFlowCtl value */
  MODIFY_REG(huart->Instance->CR3, (USART_CR3_RTSE | USART_CR3_CTSE), huart->Init.HwFlowCtl);
 8006820:	687b      	ldr	r3, [r7, #4]
 8006822:	681b      	ldr	r3, [r3, #0]
 8006824:	695b      	ldr	r3, [r3, #20]
 8006826:	f423 7140 	bic.w	r1, r3, #768	; 0x300
 800682a:	687b      	ldr	r3, [r7, #4]
 800682c:	699a      	ldr	r2, [r3, #24]
 800682e:	687b      	ldr	r3, [r7, #4]
 8006830:	681b      	ldr	r3, [r3, #0]
 8006832:	430a      	orrs	r2, r1
 8006834:	615a      	str	r2, [r3, #20]


  if(huart->Instance == USART1)
 8006836:	687b      	ldr	r3, [r7, #4]
 8006838:	681b      	ldr	r3, [r3, #0]
 800683a:	4a2c      	ldr	r2, [pc, #176]	; (80068ec <UART_SetConfig+0x114>)
 800683c:	4293      	cmp	r3, r2
 800683e:	d103      	bne.n	8006848 <UART_SetConfig+0x70>
  {
    pclk = HAL_RCC_GetPCLK2Freq();
 8006840:	f7fe fcd8 	bl	80051f4 <HAL_RCC_GetPCLK2Freq>
 8006844:	60f8      	str	r0, [r7, #12]
 8006846:	e002      	b.n	800684e <UART_SetConfig+0x76>
  }
  else
  {
    pclk = HAL_RCC_GetPCLK1Freq();
 8006848:	f7fe fcc0 	bl	80051cc <HAL_RCC_GetPCLK1Freq>
 800684c:	60f8      	str	r0, [r7, #12]
  else
  {
    huart->Instance->BRR = UART_BRR_SAMPLING16(pclk, huart->Init.BaudRate);
  }
#else
  huart->Instance->BRR = UART_BRR_SAMPLING16(pclk, huart->Init.BaudRate);
 800684e:	68fa      	ldr	r2, [r7, #12]
 8006850:	4613      	mov	r3, r2
 8006852:	009b      	lsls	r3, r3, #2
 8006854:	4413      	add	r3, r2
 8006856:	009a      	lsls	r2, r3, #2
 8006858:	441a      	add	r2, r3
 800685a:	687b      	ldr	r3, [r7, #4]
 800685c:	685b      	ldr	r3, [r3, #4]
 800685e:	009b      	lsls	r3, r3, #2
 8006860:	fbb2 f3f3 	udiv	r3, r2, r3
 8006864:	4a22      	ldr	r2, [pc, #136]	; (80068f0 <UART_SetConfig+0x118>)
 8006866:	fba2 2303 	umull	r2, r3, r2, r3
 800686a:	095b      	lsrs	r3, r3, #5
 800686c:	0119      	lsls	r1, r3, #4
 800686e:	68fa      	ldr	r2, [r7, #12]
 8006870:	4613      	mov	r3, r2
 8006872:	009b      	lsls	r3, r3, #2
 8006874:	4413      	add	r3, r2
 8006876:	009a      	lsls	r2, r3, #2
 8006878:	441a      	add	r2, r3
 800687a:	687b      	ldr	r3, [r7, #4]
 800687c:	685b      	ldr	r3, [r3, #4]
 800687e:	009b      	lsls	r3, r3, #2
 8006880:	fbb2 f2f3 	udiv	r2, r2, r3
 8006884:	4b1a      	ldr	r3, [pc, #104]	; (80068f0 <UART_SetConfig+0x118>)
 8006886:	fba3 0302 	umull	r0, r3, r3, r2
 800688a:	095b      	lsrs	r3, r3, #5
 800688c:	2064      	movs	r0, #100	; 0x64
 800688e:	fb00 f303 	mul.w	r3, r0, r3
 8006892:	1ad3      	subs	r3, r2, r3
 8006894:	011b      	lsls	r3, r3, #4
 8006896:	3332      	adds	r3, #50	; 0x32
 8006898:	4a15      	ldr	r2, [pc, #84]	; (80068f0 <UART_SetConfig+0x118>)
 800689a:	fba2 2303 	umull	r2, r3, r2, r3
 800689e:	095b      	lsrs	r3, r3, #5
 80068a0:	f003 03f0 	and.w	r3, r3, #240	; 0xf0
 80068a4:	4419      	add	r1, r3
 80068a6:	68fa      	ldr	r2, [r7, #12]
 80068a8:	4613      	mov	r3, r2
 80068aa:	009b      	lsls	r3, r3, #2
 80068ac:	4413      	add	r3, r2
 80068ae:	009a      	lsls	r2, r3, #2
 80068b0:	441a      	add	r2, r3
 80068b2:	687b      	ldr	r3, [r7, #4]
 80068b4:	685b      	ldr	r3, [r3, #4]
 80068b6:	009b      	lsls	r3, r3, #2
 80068b8:	fbb2 f2f3 	udiv	r2, r2, r3
 80068bc:	4b0c      	ldr	r3, [pc, #48]	; (80068f0 <UART_SetConfig+0x118>)
 80068be:	fba3 0302 	umull	r0, r3, r3, r2
 80068c2:	095b      	lsrs	r3, r3, #5
 80068c4:	2064      	movs	r0, #100	; 0x64
 80068c6:	fb00 f303 	mul.w	r3, r0, r3
 80068ca:	1ad3      	subs	r3, r2, r3
 80068cc:	011b      	lsls	r3, r3, #4
 80068ce:	3332      	adds	r3, #50	; 0x32
 80068d0:	4a07      	ldr	r2, [pc, #28]	; (80068f0 <UART_SetConfig+0x118>)
 80068d2:	fba2 2303 	umull	r2, r3, r2, r3
 80068d6:	095b      	lsrs	r3, r3, #5
 80068d8:	f003 020f 	and.w	r2, r3, #15
 80068dc:	687b      	ldr	r3, [r7, #4]
 80068de:	681b      	ldr	r3, [r3, #0]
 80068e0:	440a      	add	r2, r1
 80068e2:	609a      	str	r2, [r3, #8]
#endif /* USART_CR1_OVER8 */
}
 80068e4:	bf00      	nop
 80068e6:	3710      	adds	r7, #16
 80068e8:	46bd      	mov	sp, r7
 80068ea:	bd80      	pop	{r7, pc}
 80068ec:	40013800 	.word	0x40013800
 80068f0:	51eb851f 	.word	0x51eb851f

080068f4 <__libc_init_array>:
 80068f4:	b570      	push	{r4, r5, r6, lr}
 80068f6:	2600      	movs	r6, #0
 80068f8:	4d0c      	ldr	r5, [pc, #48]	; (800692c <__libc_init_array+0x38>)
 80068fa:	4c0d      	ldr	r4, [pc, #52]	; (8006930 <__libc_init_array+0x3c>)
 80068fc:	1b64      	subs	r4, r4, r5
 80068fe:	10a4      	asrs	r4, r4, #2
 8006900:	42a6      	cmp	r6, r4
 8006902:	d109      	bne.n	8006918 <__libc_init_array+0x24>
 8006904:	f000 f82a 	bl	800695c <_init>
 8006908:	2600      	movs	r6, #0
 800690a:	4d0a      	ldr	r5, [pc, #40]	; (8006934 <__libc_init_array+0x40>)
 800690c:	4c0a      	ldr	r4, [pc, #40]	; (8006938 <__libc_init_array+0x44>)
 800690e:	1b64      	subs	r4, r4, r5
 8006910:	10a4      	asrs	r4, r4, #2
 8006912:	42a6      	cmp	r6, r4
 8006914:	d105      	bne.n	8006922 <__libc_init_array+0x2e>
 8006916:	bd70      	pop	{r4, r5, r6, pc}
 8006918:	f855 3b04 	ldr.w	r3, [r5], #4
 800691c:	4798      	blx	r3
 800691e:	3601      	adds	r6, #1
 8006920:	e7ee      	b.n	8006900 <__libc_init_array+0xc>
 8006922:	f855 3b04 	ldr.w	r3, [r5], #4
 8006926:	4798      	blx	r3
 8006928:	3601      	adds	r6, #1
 800692a:	e7f2      	b.n	8006912 <__libc_init_array+0x1e>
 800692c:	08007234 	.word	0x08007234
 8006930:	08007234 	.word	0x08007234
 8006934:	08007234 	.word	0x08007234
 8006938:	08007238 	.word	0x08007238

0800693c <memset>:
 800693c:	4603      	mov	r3, r0
 800693e:	4402      	add	r2, r0
 8006940:	4293      	cmp	r3, r2
 8006942:	d100      	bne.n	8006946 <memset+0xa>
 8006944:	4770      	bx	lr
 8006946:	f803 1b01 	strb.w	r1, [r3], #1
 800694a:	e7f9      	b.n	8006940 <memset+0x4>

0800694c <strcpy>:
 800694c:	4603      	mov	r3, r0
 800694e:	f811 2b01 	ldrb.w	r2, [r1], #1
 8006952:	f803 2b01 	strb.w	r2, [r3], #1
 8006956:	2a00      	cmp	r2, #0
 8006958:	d1f9      	bne.n	800694e <strcpy+0x2>
 800695a:	4770      	bx	lr

0800695c <_init>:
 800695c:	b5f8      	push	{r3, r4, r5, r6, r7, lr}
 800695e:	bf00      	nop
 8006960:	bcf8      	pop	{r3, r4, r5, r6, r7}
 8006962:	bc08      	pop	{r3}
 8006964:	469e      	mov	lr, r3
 8006966:	4770      	bx	lr

08006968 <_fini>:
 8006968:	b5f8      	push	{r3, r4, r5, r6, r7, lr}
 800696a:	bf00      	nop
 800696c:	bcf8      	pop	{r3, r4, r5, r6, r7}
 800696e:	bc08      	pop	{r3}
 8006970:	469e      	mov	lr, r3
 8006972:	4770      	bx	lr
